
run-2_FSBL.elf:     file format elf32-littlearm

Sections:
Idx Name          Size      VMA       LMA       File off  Algn
  0 .isr_vector   0000034c  34180400  34180400  00000400  2**0
                  CONTENTS, ALLOC, LOAD, READONLY, DATA
  1 .text         00008544  3418074c  3418074c  0000074c  2**2
                  CONTENTS, ALLOC, LOAD, READONLY, CODE
  2 .rodata       00000044  34188c90  34188c90  00008c90  2**2
                  CONTENTS, ALLOC, LOAD, READONLY, DATA
  3 .ARM.extab    00000000  34188cd4  34188cd4  00009d20  2**0
                  CONTENTS, READONLY
  4 .ARM          00000000  34188cd4  34188cd4  00009d20  2**0
                  CONTENTS, READONLY
  5 .preinit_array 00000000  34188cd4  34188cd4  00009d20  2**0
                  CONTENTS, ALLOC, LOAD, DATA
  6 .init_array   00000004  34188cd4  34188cd4  00008cd4  2**2
                  CONTENTS, ALLOC, LOAD, READONLY, DATA
  7 .fini_array   00000004  34188cd8  34188cd8  00008cd8  2**2
                  CONTENTS, ALLOC, LOAD, READONLY, DATA
  8 .data         0000000c  341c0000  34188cdc  00009000  2**2
                  CONTENTS, ALLOC, LOAD, DATA
  9 .noncacheable 00000004  341c000c  34188ce8  0000900c  2**0
                  ALLOC
 10 .gnu.sgstubs  00000020  34188d00  34188d00  00009d00  2**5
                  CONTENTS, ALLOC, LOAD, READONLY, CODE
 11 .bss          000003f4  341c0010  341c0010  0000a010  2**2
                  ALLOC
 12 ._user_heap_stack 00000a04  341c0404  341c0404  0000a010  2**0
                  ALLOC
 13 .ARM.attributes 0000003a  00000000  00000000  00009d20  2**0
                  CONTENTS, READONLY
 14 .comment      00000043  00000000  00000000  00009d5a  2**0
                  CONTENTS, READONLY
 15 .debug_frame  00000074  00000000  00000000  00009da0  2**2
                  CONTENTS, READONLY, DEBUGGING, OCTETS

Disassembly of section .text:

3418074c <__do_global_dtors_aux>:
3418074c:	b510      	push	{r4, lr}
3418074e:	4c05      	ldr	r4, [pc, #20]	@ (34180764 <__do_global_dtors_aux+0x18>)
34180750:	7823      	ldrb	r3, [r4, #0]
34180752:	b933      	cbnz	r3, 34180762 <__do_global_dtors_aux+0x16>
34180754:	4b04      	ldr	r3, [pc, #16]	@ (34180768 <__do_global_dtors_aux+0x1c>)
34180756:	b113      	cbz	r3, 3418075e <__do_global_dtors_aux+0x12>
34180758:	4804      	ldr	r0, [pc, #16]	@ (3418076c <__do_global_dtors_aux+0x20>)
3418075a:	f3af 8000 	nop.w
3418075e:	2301      	movs	r3, #1
34180760:	7023      	strb	r3, [r4, #0]
34180762:	bd10      	pop	{r4, pc}
34180764:	341c0010 	.word	0x341c0010
34180768:	00000000 	.word	0x00000000
3418076c:	34188c78 	.word	0x34188c78

34180770 <frame_dummy>:
34180770:	b508      	push	{r3, lr}
34180772:	4b03      	ldr	r3, [pc, #12]	@ (34180780 <frame_dummy+0x10>)
34180774:	b11b      	cbz	r3, 3418077e <frame_dummy+0xe>
34180776:	4903      	ldr	r1, [pc, #12]	@ (34180784 <frame_dummy+0x14>)
34180778:	4803      	ldr	r0, [pc, #12]	@ (34180788 <frame_dummy+0x18>)
3418077a:	f3af 8000 	nop.w
3418077e:	bd08      	pop	{r3, pc}
34180780:	00000000 	.word	0x00000000
34180784:	341c0014 	.word	0x341c0014
34180788:	34188c78 	.word	0x34188c78

3418078c <MX_EXTMEM_MANAGER_Init>:
3418078c:	b508      	push	{r3, lr}
3418078e:	22ac      	movs	r2, #172	@ 0xac
34180790:	2100      	movs	r1, #0
34180792:	4809      	ldr	r0, [pc, #36]	@ (341807b8 <MX_EXTMEM_MANAGER_Init+0x2c>)
34180794:	f008 fa35 	bl	34188c02 <memset>
34180798:	4a07      	ldr	r2, [pc, #28]	@ (341807b8 <MX_EXTMEM_MANAGER_Init+0x2c>)
3418079a:	4b08      	ldr	r3, [pc, #32]	@ (341807bc <MX_EXTMEM_MANAGER_Init+0x30>)
3418079c:	f44f 0100 	mov.w	r1, #8388608	@ 0x800000
341807a0:	6053      	str	r3, [r2, #4]
341807a2:	2303      	movs	r3, #3
341807a4:	2000      	movs	r0, #0
341807a6:	7213      	strb	r3, [r2, #8]
341807a8:	f005 fce8 	bl	3418617c <HAL_RCCEx_GetPeriphCLKFreq>
341807ac:	e8bd 4008 	ldmia.w	sp!, {r3, lr}
341807b0:	4601      	mov	r1, r0
341807b2:	2000      	movs	r0, #0
341807b4:	f006 be8e 	b.w	341874d4 <EXTMEM_Init>
341807b8:	341c01d0 	.word	0x341c01d0
341807bc:	341c002c 	.word	0x341c002c

341807c0 <LL_MEM_EnableClock>:
341807c0:	4b04      	ldr	r3, [pc, #16]	@ (341807d4 <LL_MEM_EnableClock+0x14>)
341807c2:	b082      	sub	sp, #8
341807c4:	f8c3 0a4c 	str.w	r0, [r3, #2636]	@ 0xa4c
341807c8:	f8d3 324c 	ldr.w	r3, [r3, #588]	@ 0x24c
341807cc:	9301      	str	r3, [sp, #4]
341807ce:	9b01      	ldr	r3, [sp, #4]
341807d0:	b002      	add	sp, #8
341807d2:	4770      	bx	lr
341807d4:	56028000 	.word	0x56028000

341807d8 <LL_AHB4_GRP1_EnableClock>:
341807d8:	4b04      	ldr	r3, [pc, #16]	@ (341807ec <LL_AHB4_GRP1_EnableClock+0x14>)
341807da:	b082      	sub	sp, #8
341807dc:	f8c3 0a5c 	str.w	r0, [r3, #2652]	@ 0xa5c
341807e0:	f8d3 325c 	ldr.w	r3, [r3, #604]	@ 0x25c
341807e4:	9301      	str	r3, [sp, #4]
341807e6:	9b01      	ldr	r3, [sp, #4]
341807e8:	b002      	add	sp, #8
341807ea:	4770      	bx	lr
341807ec:	56028000 	.word	0x56028000

341807f0 <SystemClock_Config>:
341807f0:	b510      	push	{r4, lr}
341807f2:	b0b6      	sub	sp, #216	@ 0xd8
341807f4:	2298      	movs	r2, #152	@ 0x98
341807f6:	2100      	movs	r1, #0
341807f8:	a810      	add	r0, sp, #64	@ 0x40
341807fa:	f008 fa02 	bl	34188c02 <memset>
341807fe:	2240      	movs	r2, #64	@ 0x40
34180800:	2100      	movs	r1, #0
34180802:	4668      	mov	r0, sp
34180804:	f008 f9fd 	bl	34188c02 <memset>
34180808:	2000      	movs	r0, #0
3418080a:	f001 fe9b 	bl	34182544 <HAL_PWREx_ConfigSupply>
3418080e:	b108      	cbz	r0, 34180814 <SystemClock_Config+0x24>
34180810:	b672      	cpsid	i
34180812:	e7fe      	b.n	34180812 <SystemClock_Config+0x22>
34180814:	2001      	movs	r0, #1
34180816:	f001 feaf 	bl	34182578 <HAL_PWREx_ControlVoltageScaling>
3418081a:	b108      	cbz	r0, 34180820 <SystemClock_Config+0x30>
3418081c:	b672      	cpsid	i
3418081e:	e7fe      	b.n	3418081e <SystemClock_Config+0x2e>
34180820:	2302      	movs	r3, #2
34180822:	9310      	str	r3, [sp, #64]	@ 0x40
34180824:	2308      	movs	r3, #8
34180826:	9015      	str	r0, [sp, #84]	@ 0x54
34180828:	e9cd 3013 	strd	r3, r0, [sp, #76]	@ 0x4c
3418082c:	901a      	str	r0, [sp, #104]	@ 0x68
3418082e:	9021      	str	r0, [sp, #132]	@ 0x84
34180830:	9028      	str	r0, [sp, #160]	@ 0xa0
34180832:	902f      	str	r0, [sp, #188]	@ 0xbc
34180834:	a810      	add	r0, sp, #64	@ 0x40
34180836:	f002 f8e1 	bl	341829fc <HAL_RCC_OscConfig>
3418083a:	b108      	cbz	r0, 34180840 <SystemClock_Config+0x50>
3418083c:	b672      	cpsid	i
3418083e:	e7fe      	b.n	3418083e <SystemClock_Config+0x4e>
34180840:	4668      	mov	r0, sp
34180842:	f002 fd55 	bl	341832f0 <HAL_RCC_GetClockConfig>
34180846:	9b01      	ldr	r3, [sp, #4]
34180848:	f5b3 3f40 	cmp.w	r3, #196608	@ 0x30000
3418084c:	d003      	beq.n	34180856 <SystemClock_Config+0x66>
3418084e:	9b02      	ldr	r3, [sp, #8]
34180850:	f1b3 7f40 	cmp.w	r3, #50331648	@ 0x3000000
34180854:	d10a      	bne.n	3418086c <SystemClock_Config+0x7c>
34180856:	2300      	movs	r3, #0
34180858:	2403      	movs	r4, #3
3418085a:	4668      	mov	r0, sp
3418085c:	e9cd 4300 	strd	r4, r3, [sp]
34180860:	9302      	str	r3, [sp, #8]
34180862:	f002 fbdb 	bl	3418301c <HAL_RCC_ClockConfig>
34180866:	b108      	cbz	r0, 3418086c <SystemClock_Config+0x7c>
34180868:	b672      	cpsid	i
3418086a:	e7fe      	b.n	3418086a <SystemClock_Config+0x7a>
3418086c:	2300      	movs	r3, #0
3418086e:	214b      	movs	r1, #75	@ 0x4b
34180870:	e9cd 311d 	strd	r3, r1, [sp, #116]	@ 0x74
34180874:	2108      	movs	r1, #8
34180876:	207d      	movs	r0, #125	@ 0x7d
34180878:	2202      	movs	r2, #2
3418087a:	2401      	movs	r4, #1
3418087c:	9123      	str	r1, [sp, #140]	@ 0x8c
3418087e:	912a      	str	r1, [sp, #168]	@ 0xa8
34180880:	21e1      	movs	r1, #225	@ 0xe1
34180882:	e9cd 3024 	strd	r3, r0, [sp, #144]	@ 0x90
34180886:	a810      	add	r0, sp, #64	@ 0x40
34180888:	e9cd 231a 	strd	r2, r3, [sp, #104]	@ 0x68
3418088c:	e9cd 441f 	strd	r4, r4, [sp, #124]	@ 0x7c
34180890:	e9cd 2321 	strd	r2, r3, [sp, #132]	@ 0x84
34180894:	e9cd 4426 	strd	r4, r4, [sp, #152]	@ 0x98
34180898:	e9cd 2328 	strd	r2, r3, [sp, #160]	@ 0xa0
3418089c:	e9cd 312b 	strd	r3, r1, [sp, #172]	@ 0xac
341808a0:	e9cd 242d 	strd	r2, r4, [sp, #180]	@ 0xb4
341808a4:	9310      	str	r3, [sp, #64]	@ 0x40
341808a6:	921c      	str	r2, [sp, #112]	@ 0x70
341808a8:	932f      	str	r3, [sp, #188]	@ 0xbc
341808aa:	f002 f8a7 	bl	341829fc <HAL_RCC_OscConfig>
341808ae:	b108      	cbz	r0, 341808b4 <SystemClock_Config+0xc4>
341808b0:	b672      	cpsid	i
341808b2:	e7fe      	b.n	341808b2 <SystemClock_Config+0xc2>
341808b4:	f44f 3340 	mov.w	r3, #196608	@ 0x30000
341808b8:	227f      	movs	r2, #127	@ 0x7f
341808ba:	f04f 7140 	mov.w	r1, #50331648	@ 0x3000000
341808be:	e9cd 2300 	strd	r2, r3, [sp]
341808c2:	f44f 1380 	mov.w	r3, #1048576	@ 0x100000
341808c6:	e9cd 1302 	strd	r1, r3, [sp, #8]
341808ca:	2303      	movs	r3, #3
341808cc:	e9cd 0004 	strd	r0, r0, [sp, #16]
341808d0:	e9cd 3009 	strd	r3, r0, [sp, #36]	@ 0x24
341808d4:	e9cd 0006 	strd	r0, r0, [sp, #24]
341808d8:	f04f 5380 	mov.w	r3, #268435456	@ 0x10000000
341808dc:	9008      	str	r0, [sp, #32]
341808de:	2006      	movs	r0, #6
341808e0:	e9cd 030b 	strd	r0, r3, [sp, #44]	@ 0x2c
341808e4:	f04f 5300 	mov.w	r3, #536870912	@ 0x20000000
341808e8:	4668      	mov	r0, sp
341808ea:	e9cd 340e 	strd	r3, r4, [sp, #56]	@ 0x38
341808ee:	940d      	str	r4, [sp, #52]	@ 0x34
341808f0:	f002 fb94 	bl	3418301c <HAL_RCC_ClockConfig>
341808f4:	b108      	cbz	r0, 341808fa <SystemClock_Config+0x10a>
341808f6:	b672      	cpsid	i
341808f8:	e7fe      	b.n	341808f8 <SystemClock_Config+0x108>
341808fa:	b036      	add	sp, #216	@ 0xd8
341808fc:	bd10      	pop	{r4, pc}
	...

34180900 <main>:
34180900:	e92d 48ff 	stmdb	sp!, {r0, r1, r2, r3, r4, r5, r6, r7, fp, lr}
34180904:	ac01      	add	r4, sp, #4
34180906:	f001 fc2f 	bl	34182168 <HAL_Init>
3418090a:	f7ff ff71 	bl	341807f0 <SystemClock_Config>
3418090e:	2214      	movs	r2, #20
34180910:	2100      	movs	r1, #0
34180912:	4620      	mov	r0, r4
34180914:	f008 f975 	bl	34188c02 <memset>
34180918:	2004      	movs	r0, #4
3418091a:	f7ff ff5d 	bl	341807d8 <LL_AHB4_GRP1_EnableClock>
3418091e:	2010      	movs	r0, #16
34180920:	f7ff ff5a 	bl	341807d8 <LL_AHB4_GRP1_EnableClock>
34180924:	2080      	movs	r0, #128	@ 0x80
34180926:	f7ff ff57 	bl	341807d8 <LL_AHB4_GRP1_EnableClock>
3418092a:	2008      	movs	r0, #8
3418092c:	f7ff ff54 	bl	341807d8 <LL_AHB4_GRP1_EnableClock>
34180930:	2002      	movs	r0, #2
34180932:	f7ff ff51 	bl	341807d8 <LL_AHB4_GRP1_EnableClock>
34180936:	f44f 4000 	mov.w	r0, #32768	@ 0x8000
3418093a:	f7ff ff4d 	bl	341807d8 <LL_AHB4_GRP1_EnableClock>
3418093e:	f44f 4080 	mov.w	r0, #16384	@ 0x4000
34180942:	f7ff ff49 	bl	341807d8 <LL_AHB4_GRP1_EnableClock>
34180946:	2040      	movs	r0, #64	@ 0x40
34180948:	f7ff ff46 	bl	341807d8 <LL_AHB4_GRP1_EnableClock>
3418094c:	2020      	movs	r0, #32
3418094e:	f7ff ff43 	bl	341807d8 <LL_AHB4_GRP1_EnableClock>
34180952:	f44f 5000 	mov.w	r0, #8192	@ 0x2000
34180956:	f7ff ff3f 	bl	341807d8 <LL_AHB4_GRP1_EnableClock>
3418095a:	2001      	movs	r0, #1
3418095c:	f7ff ff3c 	bl	341807d8 <LL_AHB4_GRP1_EnableClock>
34180960:	2200      	movs	r2, #0
34180962:	2110      	movs	r1, #16
34180964:	48c4      	ldr	r0, [pc, #784]	@ (34180c78 <main+0x378>)
34180966:	2700      	movs	r7, #0
34180968:	2502      	movs	r5, #2
3418096a:	f001 fde5 	bl	34182538 <HAL_GPIO_WritePin>
3418096e:	f04f 0912 	mov.w	r9, #18
34180972:	2304      	movs	r3, #4
34180974:	4621      	mov	r1, r4
34180976:	48c1      	ldr	r0, [pc, #772]	@ (34180c7c <main+0x37c>)
34180978:	2601      	movs	r6, #1
3418097a:	f04f 0b0b 	mov.w	fp, #11
3418097e:	9305      	str	r3, [sp, #20]
34180980:	e9cd 5901 	strd	r5, r9, [sp, #4]
34180984:	e9cd 7703 	strd	r7, r7, [sp, #12]
34180988:	f001 fcf2 	bl	34182370 <HAL_GPIO_Init>
3418098c:	2239      	movs	r2, #57	@ 0x39
3418098e:	4621      	mov	r1, r4
34180990:	48ba      	ldr	r0, [pc, #744]	@ (34180c7c <main+0x37c>)
34180992:	e9cd 2501 	strd	r2, r5, [sp, #4]
34180996:	e9cd 6b04 	strd	r6, fp, [sp, #16]
3418099a:	9703      	str	r7, [sp, #12]
3418099c:	f001 fce8 	bl	34182370 <HAL_GPIO_Init>
341809a0:	2304      	movs	r3, #4
341809a2:	f44f 72c2 	mov.w	r2, #388	@ 0x184
341809a6:	4621      	mov	r1, r4
341809a8:	48b5      	ldr	r0, [pc, #724]	@ (34180c80 <main+0x380>)
341809aa:	f04f 080e 	mov.w	r8, #14
341809ae:	9305      	str	r3, [sp, #20]
341809b0:	e9cd 2501 	strd	r2, r5, [sp, #4]
341809b4:	e9cd 7703 	strd	r7, r7, [sp, #12]
341809b8:	f001 fcda 	bl	34182370 <HAL_GPIO_Init>
341809bc:	2258      	movs	r2, #88	@ 0x58
341809be:	4621      	mov	r1, r4
341809c0:	48b0      	ldr	r0, [pc, #704]	@ (34180c84 <main+0x384>)
341809c2:	e9cd 2501 	strd	r2, r5, [sp, #4]
341809c6:	f8cd 8014 	str.w	r8, [sp, #20]
341809ca:	e9cd 7703 	strd	r7, r7, [sp, #12]
341809ce:	f001 fccf 	bl	34182370 <HAL_GPIO_Init>
341809d2:	f44f 4203 	mov.w	r2, #33536	@ 0x8300
341809d6:	4621      	mov	r1, r4
341809d8:	48ab      	ldr	r0, [pc, #684]	@ (34180c88 <main+0x388>)
341809da:	e9cd 2501 	strd	r2, r5, [sp, #4]
341809de:	f8cd 8014 	str.w	r8, [sp, #20]
341809e2:	e9cd 7703 	strd	r7, r7, [sp, #12]
341809e6:	f001 fcc3 	bl	34182370 <HAL_GPIO_Init>
341809ea:	2304      	movs	r3, #4
341809ec:	f244 0210 	movw	r2, #16400	@ 0x4010
341809f0:	4621      	mov	r1, r4
341809f2:	48a5      	ldr	r0, [pc, #660]	@ (34180c88 <main+0x388>)
341809f4:	e9cd 2901 	strd	r2, r9, [sp, #4]
341809f8:	9305      	str	r3, [sp, #20]
341809fa:	e9cd 7703 	strd	r7, r7, [sp, #12]
341809fe:	f001 fcb7 	bl	34182370 <HAL_GPIO_Init>
34180a02:	f64d 0214 	movw	r2, #55316	@ 0xd814
34180a06:	4621      	mov	r1, r4
34180a08:	48a0      	ldr	r0, [pc, #640]	@ (34180c8c <main+0x38c>)
34180a0a:	e9cd 2501 	strd	r2, r5, [sp, #4]
34180a0e:	f8cd 8014 	str.w	r8, [sp, #20]
34180a12:	e9cd 7703 	strd	r7, r7, [sp, #12]
34180a16:	f001 fcab 	bl	34182370 <HAL_GPIO_Init>
34180a1a:	f44f 7200 	mov.w	r2, #512	@ 0x200
34180a1e:	2304      	movs	r3, #4
34180a20:	4621      	mov	r1, r4
34180a22:	4898      	ldr	r0, [pc, #608]	@ (34180c84 <main+0x384>)
34180a24:	e9cd 2901 	strd	r2, r9, [sp, #4]
34180a28:	f04f 0a03 	mov.w	sl, #3
34180a2c:	9305      	str	r3, [sp, #20]
34180a2e:	e9cd 7703 	strd	r7, r7, [sp, #12]
34180a32:	f001 fc9d 	bl	34182370 <HAL_GPIO_Init>
34180a36:	2304      	movs	r3, #4
34180a38:	f04f 0910 	mov.w	r9, #16
34180a3c:	4621      	mov	r1, r4
34180a3e:	488f      	ldr	r0, [pc, #572]	@ (34180c7c <main+0x37c>)
34180a40:	e9cd 3501 	strd	r3, r5, [sp, #4]
34180a44:	e9cd ab04 	strd	sl, fp, [sp, #16]
34180a48:	9703      	str	r7, [sp, #12]
34180a4a:	f001 fc91 	bl	34182370 <HAL_GPIO_Init>
34180a4e:	4621      	mov	r1, r4
34180a50:	488b      	ldr	r0, [pc, #556]	@ (34180c80 <main+0x380>)
34180a52:	f8cd b014 	str.w	fp, [sp, #20]
34180a56:	e9cd 9501 	strd	r9, r5, [sp, #4]
34180a5a:	e9cd 7603 	strd	r7, r6, [sp, #12]
34180a5e:	f001 fc87 	bl	34182370 <HAL_GPIO_Init>
34180a62:	f44f 6300 	mov.w	r3, #2048	@ 0x800
34180a66:	4621      	mov	r1, r4
34180a68:	4885      	ldr	r0, [pc, #532]	@ (34180c80 <main+0x380>)
34180a6a:	e9cd 3501 	strd	r3, r5, [sp, #4]
34180a6e:	f8cd 8014 	str.w	r8, [sp, #20]
34180a72:	e9cd 7703 	strd	r7, r7, [sp, #12]
34180a76:	f001 fc7b 	bl	34182370 <HAL_GPIO_Init>
34180a7a:	22c1      	movs	r2, #193	@ 0xc1
34180a7c:	e9cd 2501 	strd	r2, r5, [sp, #4]
34180a80:	2206      	movs	r2, #6
34180a82:	4621      	mov	r1, r4
34180a84:	4881      	ldr	r0, [pc, #516]	@ (34180c8c <main+0x38c>)
34180a86:	9205      	str	r2, [sp, #20]
34180a88:	e9cd 7703 	strd	r7, r7, [sp, #12]
34180a8c:	f001 fc70 	bl	34182370 <HAL_GPIO_Init>
34180a90:	f44f 5000 	mov.w	r0, #8192	@ 0x2000
34180a94:	f44f 1188 	mov.w	r1, #1114112	@ 0x110000
34180a98:	e9cd 0101 	strd	r0, r1, [sp, #4]
34180a9c:	4621      	mov	r1, r4
34180a9e:	4877      	ldr	r0, [pc, #476]	@ (34180c7c <main+0x37c>)
34180aa0:	f04f 0b08 	mov.w	fp, #8
34180aa4:	9703      	str	r7, [sp, #12]
34180aa6:	f001 fc63 	bl	34182370 <HAL_GPIO_Init>
34180aaa:	2206      	movs	r2, #6
34180aac:	4621      	mov	r1, r4
34180aae:	4874      	ldr	r0, [pc, #464]	@ (34180c80 <main+0x380>)
34180ab0:	9205      	str	r2, [sp, #20]
34180ab2:	e9cd b501 	strd	fp, r5, [sp, #4]
34180ab6:	e9cd 7703 	strd	r7, r7, [sp, #12]
34180aba:	f001 fc59 	bl	34182370 <HAL_GPIO_Init>
34180abe:	f44f 417f 	mov.w	r1, #65280	@ 0xff00
34180ac2:	2309      	movs	r3, #9
34180ac4:	e9cd 1501 	strd	r1, r5, [sp, #4]
34180ac8:	4871      	ldr	r0, [pc, #452]	@ (34180c90 <main+0x390>)
34180aca:	4621      	mov	r1, r4
34180acc:	9305      	str	r3, [sp, #20]
34180ace:	e9cd 7a03 	strd	r7, sl, [sp, #12]
34180ad2:	f001 fc4d 	bl	34182370 <HAL_GPIO_Init>
34180ad6:	2180      	movs	r1, #128	@ 0x80
34180ad8:	2206      	movs	r2, #6
34180ada:	e9cd 1501 	strd	r1, r5, [sp, #4]
34180ade:	486d      	ldr	r0, [pc, #436]	@ (34180c94 <main+0x394>)
34180ae0:	4621      	mov	r1, r4
34180ae2:	9205      	str	r2, [sp, #20]
34180ae4:	e9cd 7703 	strd	r7, r7, [sp, #12]
34180ae8:	f001 fc42 	bl	34182370 <HAL_GPIO_Init>
34180aec:	4621      	mov	r1, r4
34180aee:	4862      	ldr	r0, [pc, #392]	@ (34180c78 <main+0x378>)
34180af0:	e9cd 9601 	strd	r9, r6, [sp, #4]
34180af4:	e9cd 7703 	strd	r7, r7, [sp, #12]
34180af8:	f001 fc3a 	bl	34182370 <HAL_GPIO_Init>
34180afc:	f64b 1243 	movw	r2, #47427	@ 0xb943
34180b00:	4621      	mov	r1, r4
34180b02:	4864      	ldr	r0, [pc, #400]	@ (34180c94 <main+0x394>)
34180b04:	e9cd 2501 	strd	r2, r5, [sp, #4]
34180b08:	f8cd 8014 	str.w	r8, [sp, #20]
34180b0c:	e9cd 7703 	strd	r7, r7, [sp, #12]
34180b10:	f001 fc2e 	bl	34182370 <HAL_GPIO_Init>
34180b14:	2309      	movs	r3, #9
34180b16:	4621      	mov	r1, r4
34180b18:	485f      	ldr	r0, [pc, #380]	@ (34180c98 <main+0x398>)
34180b1a:	9305      	str	r3, [sp, #20]
34180b1c:	e9cd b501 	strd	fp, r5, [sp, #4]
34180b20:	e9cd 7a03 	strd	r7, sl, [sp, #12]
34180b24:	f001 fc24 	bl	34182370 <HAL_GPIO_Init>
34180b28:	f248 1287 	movw	r2, #33159	@ 0x8187
34180b2c:	4621      	mov	r1, r4
34180b2e:	485b      	ldr	r0, [pc, #364]	@ (34180c9c <main+0x39c>)
34180b30:	e9cd 2501 	strd	r2, r5, [sp, #4]
34180b34:	f8cd 8014 	str.w	r8, [sp, #20]
34180b38:	e9cd 7703 	strd	r7, r7, [sp, #12]
34180b3c:	f001 fc18 	bl	34182370 <HAL_GPIO_Init>
34180b40:	f44f 6300 	mov.w	r3, #2048	@ 0x800
34180b44:	4621      	mov	r1, r4
34180b46:	4855      	ldr	r0, [pc, #340]	@ (34180c9c <main+0x39c>)
34180b48:	e9cd 3a01 	strd	r3, sl, [sp, #4]
34180b4c:	9703      	str	r7, [sp, #12]
34180b4e:	f001 fc0f 	bl	34182370 <HAL_GPIO_Init>
34180b52:	4853      	ldr	r0, [pc, #332]	@ (34180ca0 <main+0x3a0>)
34180b54:	f240 1101 	movw	r1, #257	@ 0x101
34180b58:	f001 fbe4 	bl	34182324 <HAL_EXTI_ConfigLineAttributes>
34180b5c:	4b51      	ldr	r3, [pc, #324]	@ (34180ca4 <main+0x3a4>)
34180b5e:	f8df 814c 	ldr.w	r8, [pc, #332]	@ 34180cac <main+0x3ac>
34180b62:	4618      	mov	r0, r3
34180b64:	9701      	str	r7, [sp, #4]
34180b66:	e9c3 8600 	strd	r8, r6, [r3]
34180b6a:	e9c4 7701 	strd	r7, r7, [r4, #4]
34180b6e:	e9c3 7702 	strd	r7, r7, [r3, #8]
34180b72:	e9c3 7604 	strd	r7, r6, [r3, #16]
34180b76:	e9c3 7706 	strd	r7, r7, [r3, #24]
34180b7a:	e9c3 7708 	strd	r7, r7, [r3, #32]
34180b7e:	e9c3 770a 	strd	r7, r7, [r3, #40]	@ 0x28
34180b82:	e9c3 770c 	strd	r7, r7, [r3, #48]	@ 0x30
34180b86:	e9c3 770e 	strd	r7, r7, [r3, #56]	@ 0x38
34180b8a:	f006 f8b9 	bl	34186d00 <HAL_XSPI_Init>
34180b8e:	b108      	cbz	r0, 34180b94 <main+0x294>
34180b90:	b672      	cpsid	i
34180b92:	e7fe      	b.n	34180b92 <main+0x292>
34180b94:	e9cd 9001 	strd	r9, r0, [sp, #4]
34180b98:	f241 3288 	movw	r2, #5000	@ 0x1388
34180b9c:	4621      	mov	r1, r4
34180b9e:	4841      	ldr	r0, [pc, #260]	@ (34180ca4 <main+0x3a4>)
34180ba0:	9603      	str	r6, [sp, #12]
34180ba2:	f006 fb43 	bl	3418722c <HAL_XSPIM_Config>
34180ba6:	b108      	cbz	r0, 34180bac <main+0x2ac>
34180ba8:	b672      	cpsid	i
34180baa:	e7fe      	b.n	34180baa <main+0x2aa>
34180bac:	2204      	movs	r2, #4
34180bae:	4b3e      	ldr	r3, [pc, #248]	@ (34180ca8 <main+0x3a8>)
34180bb0:	f8df a0fc 	ldr.w	sl, [pc, #252]	@ 34180cb0 <main+0x3b0>
34180bb4:	f04f 7180 	mov.w	r1, #16777216	@ 0x1000000
34180bb8:	e9c3 a200 	strd	sl, r2, [r3]
34180bbc:	221a      	movs	r2, #26
34180bbe:	e9c3 1203 	strd	r1, r2, [r3, #12]
34180bc2:	f04f 5280 	mov.w	r2, #268435456	@ 0x10000000
34180bc6:	e9c3 6005 	strd	r6, r0, [r3, #20]
34180bca:	e9c3 0007 	strd	r0, r0, [r3, #28]
34180bce:	e9c3 0009 	strd	r0, r0, [r3, #36]	@ 0x24
34180bd2:	e9c3 200b 	strd	r2, r0, [r3, #44]	@ 0x2c
34180bd6:	e9c3 000d 	strd	r0, r0, [r3, #52]	@ 0x34
34180bda:	9001      	str	r0, [sp, #4]
34180bdc:	6098      	str	r0, [r3, #8]
34180bde:	63d8      	str	r0, [r3, #60]	@ 0x3c
34180be0:	e9c4 0001 	strd	r0, r0, [r4, #4]
34180be4:	4618      	mov	r0, r3
34180be6:	f006 f88b 	bl	34186d00 <HAL_XSPI_Init>
34180bea:	4b2f      	ldr	r3, [pc, #188]	@ (34180ca8 <main+0x3a8>)
34180bec:	b108      	cbz	r0, 34180bf2 <main+0x2f2>
34180bee:	b672      	cpsid	i
34180bf0:	e7fe      	b.n	34180bf0 <main+0x2f0>
34180bf2:	f241 3288 	movw	r2, #5000	@ 0x1388
34180bf6:	4621      	mov	r1, r4
34180bf8:	4618      	mov	r0, r3
34180bfa:	e9cd 9601 	strd	r9, r6, [sp, #4]
34180bfe:	9603      	str	r6, [sp, #12]
34180c00:	f006 fb14 	bl	3418722c <HAL_XSPIM_Config>
34180c04:	4681      	mov	r9, r0
34180c06:	b108      	cbz	r0, 34180c0c <main+0x30c>
34180c08:	b672      	cpsid	i
34180c0a:	e7fe      	b.n	34180c0a <main+0x30a>
34180c0c:	f7ff fdbe 	bl	3418078c <MX_EXTMEM_MANAGER_Init>
34180c10:	f44f 7080 	mov.w	r0, #256	@ 0x100
34180c14:	f7ff fdd4 	bl	341807c0 <LL_MEM_EnableClock>
34180c18:	4630      	mov	r0, r6
34180c1a:	f7ff fdd1 	bl	341807c0 <LL_MEM_EnableClock>
34180c1e:	4628      	mov	r0, r5
34180c20:	f7ff fdce 	bl	341807c0 <LL_MEM_EnableClock>
34180c24:	2004      	movs	r0, #4
34180c26:	f7ff fdcb 	bl	341807c0 <LL_MEM_EnableClock>
34180c2a:	4658      	mov	r0, fp
34180c2c:	f7ff fdc8 	bl	341807c0 <LL_MEM_EnableClock>
34180c30:	f240 1301 	movw	r3, #257	@ 0x101
34180c34:	4621      	mov	r1, r4
34180c36:	4648      	mov	r0, r9
34180c38:	f8ad 3004 	strh.w	r3, [sp, #4]
34180c3c:	f000 fe48 	bl	341818d0 <BSP_XSPI_NOR_Init>
34180c40:	4648      	mov	r0, r9
34180c42:	f000 fdb5 	bl	341817b0 <BSP_XSPI_NOR_EnableMemoryMappedMode>
34180c46:	f8da 3000 	ldr.w	r3, [sl]
34180c4a:	4648      	mov	r0, r9
34180c4c:	f043 7300 	orr.w	r3, r3, #33554432	@ 0x2000000
34180c50:	f8ca 3000 	str.w	r3, [sl]
34180c54:	f000 ff80 	bl	34181b58 <BSP_XSPI_RAM_Init>
34180c58:	4648      	mov	r0, r9
34180c5a:	f001 f8a1 	bl	34181da0 <BSP_XSPI_RAM_EnableMemoryMappedMode>
34180c5e:	f8d8 3000 	ldr.w	r3, [r8]
34180c62:	f043 7300 	orr.w	r3, r3, #33554432	@ 0x2000000
34180c66:	f8c8 3000 	str.w	r3, [r8]
34180c6a:	f006 fc29 	bl	341874c0 <BOOT_Application>
34180c6e:	b108      	cbz	r0, 34180c74 <main+0x374>
34180c70:	b672      	cpsid	i
34180c72:	e7fe      	b.n	34180c72 <main+0x372>
34180c74:	e7fe      	b.n	34180c74 <main+0x374>
34180c76:	bf00      	nop
34180c78:	56021400 	.word	0x56021400
34180c7c:	56020800 	.word	0x56020800
34180c80:	56021000 	.word	0x56021000
34180c84:	56021c00 	.word	0x56021c00
34180c88:	56020c00 	.word	0x56020c00
34180c8c:	56020400 	.word	0x56020400
34180c90:	56023c00 	.word	0x56023c00
34180c94:	56021800 	.word	0x56021800
34180c98:	56023800 	.word	0x56023800
34180c9c:	56020000 	.word	0x56020000
34180ca0:	1600000d 	.word	0x1600000d
34180ca4:	341c0090 	.word	0x341c0090
34180ca8:	341c002c 	.word	0x341c002c
34180cac:	58025000 	.word	0x58025000
34180cb0:	5802a000 	.word	0x5802a000

34180cb4 <Error_Handler>:
34180cb4:	b672      	cpsid	i
34180cb6:	e7fe      	b.n	34180cb6 <Error_Handler+0x2>

34180cb8 <LL_AHB5_GRP1_EnableClock>:
34180cb8:	4b04      	ldr	r3, [pc, #16]	@ (34180ccc <LL_AHB5_GRP1_EnableClock+0x14>)
34180cba:	b082      	sub	sp, #8
34180cbc:	f8c3 0a60 	str.w	r0, [r3, #2656]	@ 0xa60
34180cc0:	f8d3 3260 	ldr.w	r3, [r3, #608]	@ 0x260
34180cc4:	9301      	str	r3, [sp, #4]
34180cc6:	9b01      	ldr	r3, [sp, #4]
34180cc8:	b002      	add	sp, #8
34180cca:	4770      	bx	lr
34180ccc:	56028000 	.word	0x56028000

34180cd0 <HAL_MspInit>:
34180cd0:	b508      	push	{r3, lr}
34180cd2:	f001 fc9b 	bl	3418260c <HAL_PWREx_EnableVddIO2>
34180cd6:	f001 fca1 	bl	3418261c <HAL_PWREx_EnableVddIO3>
34180cda:	f001 fca7 	bl	3418262c <HAL_PWREx_EnableVddIO4>
34180cde:	e8bd 4008 	ldmia.w	sp!, {r3, lr}
34180ce2:	f001 bcab 	b.w	3418263c <HAL_PWREx_EnableVddIO5>
	...

34180ce8 <HAL_XSPI_MspInit>:
34180ce8:	b5f0      	push	{r4, r5, r6, r7, lr}
34180cea:	4604      	mov	r4, r0
34180cec:	b0ed      	sub	sp, #436	@ 0x1b4
34180cee:	2214      	movs	r2, #20
34180cf0:	2100      	movs	r1, #0
34180cf2:	a803      	add	r0, sp, #12
34180cf4:	f007 ff85 	bl	34188c02 <memset>
34180cf8:	f44f 72c8 	mov.w	r2, #400	@ 0x190
34180cfc:	2100      	movs	r1, #0
34180cfe:	a808      	add	r0, sp, #32
34180d00:	f007 ff7f 	bl	34188c02 <memset>
34180d04:	6823      	ldr	r3, [r4, #0]
34180d06:	4a41      	ldr	r2, [pc, #260]	@ (34180e0c <HAL_XSPI_MspInit+0x124>)
34180d08:	4293      	cmp	r3, r2
34180d0a:	d147      	bne.n	34180d9c <HAL_XSPI_MspInit+0xb4>
34180d0c:	f44f 0380 	mov.w	r3, #4194304	@ 0x400000
34180d10:	2200      	movs	r2, #0
34180d12:	e9cd 2308 	strd	r2, r3, [sp, #32]
34180d16:	4b3e      	ldr	r3, [pc, #248]	@ (34180e10 <HAL_XSPI_MspInit+0x128>)
34180d18:	a808      	add	r0, sp, #32
34180d1a:	9333      	str	r3, [sp, #204]	@ 0xcc
34180d1c:	230c      	movs	r3, #12
34180d1e:	930f      	str	r3, [sp, #60]	@ 0x3c
34180d20:	f002 fc44 	bl	341835ac <HAL_RCCEx_PeriphCLKConfig>
34180d24:	b108      	cbz	r0, 34180d2a <HAL_XSPI_MspInit+0x42>
34180d26:	f7ff ffc5 	bl	34180cb4 <Error_Handler>
34180d2a:	4a3a      	ldr	r2, [pc, #232]	@ (34180e14 <HAL_XSPI_MspInit+0x12c>)
34180d2c:	6813      	ldr	r3, [r2, #0]
34180d2e:	3301      	adds	r3, #1
34180d30:	2b01      	cmp	r3, #1
34180d32:	6013      	str	r3, [r2, #0]
34180d34:	d103      	bne.n	34180d3e <HAL_XSPI_MspInit+0x56>
34180d36:	f44f 5000 	mov.w	r0, #8192	@ 0x2000
34180d3a:	f7ff ffbd 	bl	34180cb8 <LL_AHB5_GRP1_EnableClock>
34180d3e:	f44f 4200 	mov.w	r2, #32768	@ 0x8000
34180d42:	2020      	movs	r0, #32
34180d44:	f7ff ffb8 	bl	34180cb8 <LL_AHB5_GRP1_EnableClock>
34180d48:	4b33      	ldr	r3, [pc, #204]	@ (34180e18 <HAL_XSPI_MspInit+0x130>)
34180d4a:	2702      	movs	r7, #2
34180d4c:	f8c3 2a5c 	str.w	r2, [r3, #2652]	@ 0xa5c
34180d50:	f8d3 125c 	ldr.w	r1, [r3, #604]	@ 0x25c
34180d54:	2600      	movs	r6, #0
34180d56:	9101      	str	r1, [sp, #4]
34180d58:	9a01      	ldr	r2, [sp, #4]
34180d5a:	f44f 4280 	mov.w	r2, #16384	@ 0x4000
34180d5e:	f8c3 2a5c 	str.w	r2, [r3, #2652]	@ 0xa5c
34180d62:	f8d3 225c 	ldr.w	r2, [r3, #604]	@ 0x25c
34180d66:	466b      	mov	r3, sp
34180d68:	9200      	str	r2, [sp, #0]
34180d6a:	2503      	movs	r5, #3
34180d6c:	2409      	movs	r4, #9
34180d6e:	681b      	ldr	r3, [r3, #0]
34180d70:	23ff      	movs	r3, #255	@ 0xff
34180d72:	482a      	ldr	r0, [pc, #168]	@ (34180e1c <HAL_XSPI_MspInit+0x134>)
34180d74:	a903      	add	r1, sp, #12
34180d76:	e9cd 3703 	strd	r3, r7, [sp, #12]
34180d7a:	e9cd 6505 	strd	r6, r5, [sp, #20]
34180d7e:	9407      	str	r4, [sp, #28]
34180d80:	f001 faf6 	bl	34182370 <HAL_GPIO_Init>
34180d84:	2315      	movs	r3, #21
34180d86:	e9cd 6505 	strd	r6, r5, [sp, #20]
34180d8a:	e9cd 3703 	strd	r3, r7, [sp, #12]
34180d8e:	4824      	ldr	r0, [pc, #144]	@ (34180e20 <HAL_XSPI_MspInit+0x138>)
34180d90:	9407      	str	r4, [sp, #28]
34180d92:	a903      	add	r1, sp, #12
34180d94:	f001 faec 	bl	34182370 <HAL_GPIO_Init>
34180d98:	b06d      	add	sp, #436	@ 0x1b4
34180d9a:	bdf0      	pop	{r4, r5, r6, r7, pc}
34180d9c:	4a21      	ldr	r2, [pc, #132]	@ (34180e24 <HAL_XSPI_MspInit+0x13c>)
34180d9e:	4293      	cmp	r3, r2
34180da0:	d1fa      	bne.n	34180d98 <HAL_XSPI_MspInit+0xb0>
34180da2:	f44f 0300 	mov.w	r3, #8388608	@ 0x800000
34180da6:	2200      	movs	r2, #0
34180da8:	e9cd 2308 	strd	r2, r3, [sp, #32]
34180dac:	4b1e      	ldr	r3, [pc, #120]	@ (34180e28 <HAL_XSPI_MspInit+0x140>)
34180dae:	a808      	add	r0, sp, #32
34180db0:	9334      	str	r3, [sp, #208]	@ 0xd0
34180db2:	230c      	movs	r3, #12
34180db4:	930f      	str	r3, [sp, #60]	@ 0x3c
34180db6:	f002 fbf9 	bl	341835ac <HAL_RCCEx_PeriphCLKConfig>
34180dba:	b108      	cbz	r0, 34180dc0 <HAL_XSPI_MspInit+0xd8>
34180dbc:	f7ff ff7a 	bl	34180cb4 <Error_Handler>
34180dc0:	4a14      	ldr	r2, [pc, #80]	@ (34180e14 <HAL_XSPI_MspInit+0x12c>)
34180dc2:	6813      	ldr	r3, [r2, #0]
34180dc4:	3301      	adds	r3, #1
34180dc6:	2b01      	cmp	r3, #1
34180dc8:	6013      	str	r3, [r2, #0]
34180dca:	d103      	bne.n	34180dd4 <HAL_XSPI_MspInit+0xec>
34180dcc:	f44f 5000 	mov.w	r0, #8192	@ 0x2000
34180dd0:	f7ff ff72 	bl	34180cb8 <LL_AHB5_GRP1_EnableClock>
34180dd4:	f44f 5200 	mov.w	r2, #8192	@ 0x2000
34180dd8:	f44f 5080 	mov.w	r0, #4096	@ 0x1000
34180ddc:	f7ff ff6c 	bl	34180cb8 <LL_AHB5_GRP1_EnableClock>
34180de0:	4b0d      	ldr	r3, [pc, #52]	@ (34180e18 <HAL_XSPI_MspInit+0x130>)
34180de2:	2100      	movs	r1, #0
34180de4:	f8c3 2a5c 	str.w	r2, [r3, #2652]	@ 0xa5c
34180de8:	f8d3 225c 	ldr.w	r2, [r3, #604]	@ 0x25c
34180dec:	480f      	ldr	r0, [pc, #60]	@ (34180e2c <HAL_XSPI_MspInit+0x144>)
34180dee:	9202      	str	r2, [sp, #8]
34180df0:	9b02      	ldr	r3, [sp, #8]
34180df2:	f640 727f 	movw	r2, #3967	@ 0xf7f
34180df6:	2302      	movs	r3, #2
34180df8:	e9cd 2303 	strd	r2, r3, [sp, #12]
34180dfc:	2303      	movs	r3, #3
34180dfe:	e9cd 1305 	strd	r1, r3, [sp, #20]
34180e02:	2309      	movs	r3, #9
34180e04:	a903      	add	r1, sp, #12
34180e06:	9307      	str	r3, [sp, #28]
34180e08:	e7c4      	b.n	34180d94 <HAL_XSPI_MspInit+0xac>
34180e0a:	bf00      	nop
34180e0c:	58025000 	.word	0x58025000
34180e10:	03020014 	.word	0x03020014
34180e14:	341c00f4 	.word	0x341c00f4
34180e18:	56028000 	.word	0x56028000
34180e1c:	56023c00 	.word	0x56023c00
34180e20:	56023800 	.word	0x56023800
34180e24:	5802a000 	.word	0x5802a000
34180e28:	03020414 	.word	0x03020414
34180e2c:	56023400 	.word	0x56023400

34180e30 <NMI_Handler>:
34180e30:	e7fe      	b.n	34180e30 <NMI_Handler>

34180e32 <HardFault_Handler>:
34180e32:	e7fe      	b.n	34180e32 <HardFault_Handler>

34180e34 <MemManage_Handler>:
34180e34:	e7fe      	b.n	34180e34 <MemManage_Handler>

34180e36 <BusFault_Handler>:
34180e36:	e7fe      	b.n	34180e36 <BusFault_Handler>

34180e38 <UsageFault_Handler>:
34180e38:	e7fe      	b.n	34180e38 <UsageFault_Handler>

34180e3a <SecureFault_Handler>:
34180e3a:	e7fe      	b.n	34180e3a <SecureFault_Handler>

34180e3c <SVC_Handler>:
34180e3c:	4770      	bx	lr

34180e3e <DebugMon_Handler>:
34180e3e:	4770      	bx	lr

34180e40 <PendSV_Handler>:
34180e40:	4770      	bx	lr

34180e42 <SysTick_Handler>:
34180e42:	f001 b9a3 	b.w	3418218c <HAL_IncTick>
	...

34180e48 <Reset_Handler>:
34180e48:	480f      	ldr	r0, [pc, #60]	@ (34180e88 <LoopForever+0x4>)
34180e4a:	f380 880a 	msr	MSPLIM, r0
34180e4e:	480f      	ldr	r0, [pc, #60]	@ (34180e8c <LoopForever+0x8>)
34180e50:	4685      	mov	sp, r0
34180e52:	f000 ffb9 	bl	34181dc8 <SystemInit>
34180e56:	480e      	ldr	r0, [pc, #56]	@ (34180e90 <LoopForever+0xc>)
34180e58:	490e      	ldr	r1, [pc, #56]	@ (34180e94 <LoopForever+0x10>)
34180e5a:	4a0f      	ldr	r2, [pc, #60]	@ (34180e98 <LoopForever+0x14>)
34180e5c:	2300      	movs	r3, #0
34180e5e:	e002      	b.n	34180e66 <LoopCopyDataInit>

34180e60 <CopyDataInit>:
34180e60:	58d4      	ldr	r4, [r2, r3]
34180e62:	50c4      	str	r4, [r0, r3]
34180e64:	3304      	adds	r3, #4

34180e66 <LoopCopyDataInit>:
34180e66:	18c4      	adds	r4, r0, r3
34180e68:	428c      	cmp	r4, r1
34180e6a:	d3f9      	bcc.n	34180e60 <CopyDataInit>
34180e6c:	4a0b      	ldr	r2, [pc, #44]	@ (34180e9c <LoopForever+0x18>)
34180e6e:	4c0c      	ldr	r4, [pc, #48]	@ (34180ea0 <LoopForever+0x1c>)
34180e70:	2300      	movs	r3, #0
34180e72:	e001      	b.n	34180e78 <LoopFillZerobss>

34180e74 <FillZerobss>:
34180e74:	6013      	str	r3, [r2, #0]
34180e76:	3204      	adds	r2, #4

34180e78 <LoopFillZerobss>:
34180e78:	42a2      	cmp	r2, r4
34180e7a:	d3fb      	bcc.n	34180e74 <FillZerobss>
34180e7c:	f007 feca 	bl	34188c14 <__libc_init_array>
34180e80:	f7ff fd3e 	bl	34180900 <main>

34180e84 <LoopForever>:
34180e84:	e7fe      	b.n	34180e84 <LoopForever>
34180e86:	0000      	.short	0x0000
34180e88:	341ff800 	.word	0x341ff800
34180e8c:	34200000 	.word	0x34200000
34180e90:	341c0000 	.word	0x341c0000
34180e94:	341c000c 	.word	0x341c000c
34180e98:	34188cdc 	.word	0x34188cdc
34180e9c:	341c0010 	.word	0x341c0010
34180ea0:	341c0404 	.word	0x341c0404

34180ea4 <ADC1_2_IRQHandler>:
34180ea4:	e7fe      	b.n	34180ea4 <ADC1_2_IRQHandler>

34180ea6 <APS256XX_EnableMemoryMappedMode>:
34180ea6:	e92d 41f0 	stmdb	sp!, {r4, r5, r6, r7, r8, lr}
34180eaa:	b098      	sub	sp, #96	@ 0x60
34180eac:	4605      	mov	r5, r0
34180eae:	4617      	mov	r7, r2
34180eb0:	460e      	mov	r6, r1
34180eb2:	223c      	movs	r2, #60	@ 0x3c
34180eb4:	2100      	movs	r1, #0
34180eb6:	a806      	add	r0, sp, #24
34180eb8:	4698      	mov	r8, r3
34180eba:	9c1e      	ldr	r4, [sp, #120]	@ 0x78
34180ebc:	f007 fea1 	bl	34188c02 <memset>
34180ec0:	2210      	movs	r2, #16
34180ec2:	2100      	movs	r1, #0
34180ec4:	a801      	add	r0, sp, #4
34180ec6:	f007 fe9c 	bl	34188c02 <memset>
34180eca:	2302      	movs	r3, #2
34180ecc:	9305      	str	r3, [sp, #20]
34180ece:	2304      	movs	r3, #4
34180ed0:	2c00      	cmp	r4, #0
34180ed2:	9308      	str	r3, [sp, #32]
34180ed4:	bf14      	ite	ne
34180ed6:	2380      	movne	r3, #128	@ 0x80
34180ed8:	23a0      	moveq	r3, #160	@ 0xa0
34180eda:	f44f 6180 	mov.w	r1, #1024	@ 0x400
34180ede:	9307      	str	r3, [sp, #28]
34180ee0:	f44f 5340 	mov.w	r3, #12288	@ 0x3000
34180ee4:	e9cd 130c 	strd	r1, r3, [sp, #48]	@ 0x30
34180ee8:	f44f 6300 	mov.w	r3, #2048	@ 0x800
34180eec:	f1b8 0f00 	cmp.w	r8, #0
34180ef0:	930e      	str	r3, [sp, #56]	@ 0x38
34180ef2:	bf14      	ite	ne
34180ef4:	f04f 63a0 	movne.w	r3, #83886080	@ 0x5000000
34180ef8:	f04f 6380 	moveq.w	r3, #67108864	@ 0x4000000
34180efc:	9313      	str	r3, [sp, #76]	@ 0x4c
34180efe:	f04f 6300 	mov.w	r3, #134217728	@ 0x8000000
34180f02:	9315      	str	r3, [sp, #84]	@ 0x54
34180f04:	f04f 5300 	mov.w	r3, #536870912	@ 0x20000000
34180f08:	3f01      	subs	r7, #1
34180f0a:	f241 3288 	movw	r2, #5000	@ 0x1388
34180f0e:	4628      	mov	r0, r5
34180f10:	a905      	add	r1, sp, #20
34180f12:	9716      	str	r7, [sp, #88]	@ 0x58
34180f14:	9317      	str	r3, [sp, #92]	@ 0x5c
34180f16:	f005 ff9f 	bl	34186e58 <HAL_XSPI_Command>
34180f1a:	b120      	cbz	r0, 34180f26 <APS256XX_EnableMemoryMappedMode+0x80>
34180f1c:	f04f 30ff 	mov.w	r0, #4294967295
34180f20:	b018      	add	sp, #96	@ 0x60
34180f22:	e8bd 81f0 	ldmia.w	sp!, {r4, r5, r6, r7, r8, pc}
34180f26:	2301      	movs	r3, #1
34180f28:	9305      	str	r3, [sp, #20]
34180f2a:	fab4 f384 	clz	r3, r4
34180f2e:	095b      	lsrs	r3, r3, #5
34180f30:	015b      	lsls	r3, r3, #5
34180f32:	3e01      	subs	r6, #1
34180f34:	f241 3288 	movw	r2, #5000	@ 0x1388
34180f38:	4628      	mov	r0, r5
34180f3a:	a905      	add	r1, sp, #20
34180f3c:	9307      	str	r3, [sp, #28]
34180f3e:	9616      	str	r6, [sp, #88]	@ 0x58
34180f40:	f005 ff8a 	bl	34186e58 <HAL_XSPI_Command>
34180f44:	2800      	cmp	r0, #0
34180f46:	d1e9      	bne.n	34180f1c <APS256XX_EnableMemoryMappedMode+0x76>
34180f48:	9001      	str	r0, [sp, #4]
34180f4a:	a901      	add	r1, sp, #4
34180f4c:	4628      	mov	r0, r5
34180f4e:	f006 f8ca 	bl	341870e6 <HAL_XSPI_MemoryMapped>
34180f52:	3800      	subs	r0, #0
34180f54:	bf18      	it	ne
34180f56:	2001      	movne	r0, #1
34180f58:	4240      	negs	r0, r0
34180f5a:	e7e1      	b.n	34180f20 <APS256XX_EnableMemoryMappedMode+0x7a>

34180f5c <APS256XX_WriteReg>:
34180f5c:	b530      	push	{r4, r5, lr}
34180f5e:	b097      	sub	sp, #92	@ 0x5c
34180f60:	460d      	mov	r5, r1
34180f62:	4604      	mov	r4, r0
34180f64:	2100      	movs	r1, #0
34180f66:	f88d 2007 	strb.w	r2, [sp, #7]
34180f6a:	a803      	add	r0, sp, #12
34180f6c:	224c      	movs	r2, #76	@ 0x4c
34180f6e:	f007 fe48 	bl	34188c02 <memset>
34180f72:	23c0      	movs	r3, #192	@ 0xc0
34180f74:	2204      	movs	r2, #4
34180f76:	f44f 6180 	mov.w	r1, #1024	@ 0x400
34180f7a:	e9cd 3205 	strd	r3, r2, [sp, #20]
34180f7e:	f44f 5340 	mov.w	r3, #12288	@ 0x3000
34180f82:	e9cd 130a 	strd	r1, r3, [sp, #40]	@ 0x28
34180f86:	f44f 6300 	mov.w	r3, #2048	@ 0x800
34180f8a:	930c      	str	r3, [sp, #48]	@ 0x30
34180f8c:	f04f 6380 	mov.w	r3, #67108864	@ 0x4000000
34180f90:	9509      	str	r5, [sp, #36]	@ 0x24
34180f92:	9311      	str	r3, [sp, #68]	@ 0x44
34180f94:	f04f 6500 	mov.w	r5, #134217728	@ 0x8000000
34180f98:	2302      	movs	r3, #2
34180f9a:	f241 3288 	movw	r2, #5000	@ 0x1388
34180f9e:	4620      	mov	r0, r4
34180fa0:	a903      	add	r1, sp, #12
34180fa2:	e9cd 3512 	strd	r3, r5, [sp, #72]	@ 0x48
34180fa6:	f005 ff57 	bl	34186e58 <HAL_XSPI_Command>
34180faa:	b960      	cbnz	r0, 34180fc6 <APS256XX_WriteReg+0x6a>
34180fac:	f241 3288 	movw	r2, #5000	@ 0x1388
34180fb0:	4620      	mov	r0, r4
34180fb2:	f10d 0107 	add.w	r1, sp, #7
34180fb6:	f005 ffa1 	bl	34186efc <HAL_XSPI_Transmit>
34180fba:	3800      	subs	r0, #0
34180fbc:	bf18      	it	ne
34180fbe:	2001      	movne	r0, #1
34180fc0:	4240      	negs	r0, r0
34180fc2:	b017      	add	sp, #92	@ 0x5c
34180fc4:	bd30      	pop	{r4, r5, pc}
34180fc6:	f04f 30ff 	mov.w	r0, #4294967295
34180fca:	e7fa      	b.n	34180fc2 <APS256XX_WriteReg+0x66>

34180fcc <MX66UW1G45G_GetFlashInfo>:
34180fcc:	f04f 6200 	mov.w	r2, #134217728	@ 0x8000000
34180fd0:	f44f 3380 	mov.w	r3, #65536	@ 0x10000
34180fd4:	e9c0 2300 	strd	r2, r3, [r0]
34180fd8:	f44f 5280 	mov.w	r2, #4096	@ 0x1000
34180fdc:	f44f 6300 	mov.w	r3, #2048	@ 0x800
34180fe0:	e9c0 3202 	strd	r3, r2, [r0, #8]
34180fe4:	f44f 4300 	mov.w	r3, #32768	@ 0x8000
34180fe8:	f44f 7180 	mov.w	r1, #256	@ 0x100
34180fec:	e9c0 3204 	strd	r3, r2, [r0, #16]
34180ff0:	6183      	str	r3, [r0, #24]
34180ff2:	f44f 2300 	mov.w	r3, #524288	@ 0x80000
34180ff6:	e9c0 1307 	strd	r1, r3, [r0, #28]
34180ffa:	2000      	movs	r0, #0
34180ffc:	4770      	bx	lr

34180ffe <MX66UW1G45G_AutoPollingMemReady>:
34180ffe:	b570      	push	{r4, r5, r6, lr}
34181000:	460d      	mov	r5, r1
34181002:	b098      	sub	sp, #96	@ 0x60
34181004:	2100      	movs	r1, #0
34181006:	4606      	mov	r6, r0
34181008:	4614      	mov	r4, r2
3418100a:	a805      	add	r0, sp, #20
3418100c:	224c      	movs	r2, #76	@ 0x4c
3418100e:	f007 fdf8 	bl	34188c02 <memset>
34181012:	2214      	movs	r2, #20
34181014:	2100      	movs	r1, #0
34181016:	4668      	mov	r0, sp
34181018:	f007 fdf3 	bl	34188c02 <memset>
3418101c:	b92d      	cbnz	r5, 3418102a <MX66UW1G45G_AutoPollingMemReady+0x2c>
3418101e:	2c01      	cmp	r4, #1
34181020:	d14d      	bne.n	341810be <MX66UW1G45G_AutoPollingMemReady+0xc0>
34181022:	f04f 30ff 	mov.w	r0, #4294967295
34181026:	b018      	add	sp, #96	@ 0x60
34181028:	bd70      	pop	{r4, r5, r6, pc}
3418102a:	2204      	movs	r2, #4
3418102c:	f104 3cff 	add.w	ip, r4, #4294967295
34181030:	f1dc 0300 	rsbs	r3, ip, #0
34181034:	eb43 030c 	adc.w	r3, r3, ip
34181038:	00db      	lsls	r3, r3, #3
3418103a:	9208      	str	r2, [sp, #32]
3418103c:	930a      	str	r3, [sp, #40]	@ 0x28
3418103e:	2d00      	cmp	r5, #0
34181040:	d040      	beq.n	341810c4 <MX66UW1G45G_AutoPollingMemReady+0xc6>
34181042:	2310      	movs	r3, #16
34181044:	f240 52fa 	movw	r2, #1530	@ 0x5fa
34181048:	9309      	str	r3, [sp, #36]	@ 0x24
3418104a:	f44f 6380 	mov.w	r3, #1024	@ 0x400
3418104e:	1e60      	subs	r0, r4, #1
34181050:	930c      	str	r3, [sp, #48]	@ 0x30
34181052:	4243      	negs	r3, r0
34181054:	4143      	adcs	r3, r0
34181056:	9207      	str	r2, [sp, #28]
34181058:	02da      	lsls	r2, r3, #11
3418105a:	920e      	str	r2, [sp, #56]	@ 0x38
3418105c:	f44f 5240 	mov.w	r2, #12288	@ 0x3000
34181060:	2d00      	cmp	r5, #0
34181062:	920d      	str	r2, [sp, #52]	@ 0x34
34181064:	bf14      	ite	ne
34181066:	f04f 6280 	movne.w	r2, #67108864	@ 0x4000000
3418106a:	f04f 7280 	moveq.w	r2, #16777216	@ 0x1000000
3418106e:	ea4f 63c3 	mov.w	r3, r3, lsl #27
34181072:	9213      	str	r2, [sp, #76]	@ 0x4c
34181074:	9315      	str	r3, [sp, #84]	@ 0x54
34181076:	d02d      	beq.n	341810d4 <MX66UW1G45G_AutoPollingMemReady+0xd6>
34181078:	2c01      	cmp	r4, #1
3418107a:	d126      	bne.n	341810ca <MX66UW1G45G_AutoPollingMemReady+0xcc>
3418107c:	2305      	movs	r3, #5
3418107e:	9316      	str	r3, [sp, #88]	@ 0x58
34181080:	2202      	movs	r2, #2
34181082:	f04f 5300 	mov.w	r3, #536870912	@ 0x20000000
34181086:	9317      	str	r3, [sp, #92]	@ 0x5c
34181088:	2301      	movs	r3, #1
3418108a:	2110      	movs	r1, #16
3418108c:	9301      	str	r3, [sp, #4]
3418108e:	f44f 0380 	mov.w	r3, #4194304	@ 0x400000
34181092:	9214      	str	r2, [sp, #80]	@ 0x50
34181094:	e9cd 3103 	strd	r3, r1, [sp, #12]
34181098:	f241 3288 	movw	r2, #5000	@ 0x1388
3418109c:	4630      	mov	r0, r6
3418109e:	a905      	add	r1, sp, #20
341810a0:	f005 feda 	bl	34186e58 <HAL_XSPI_Command>
341810a4:	2800      	cmp	r0, #0
341810a6:	d1bc      	bne.n	34181022 <MX66UW1G45G_AutoPollingMemReady+0x24>
341810a8:	f241 3288 	movw	r2, #5000	@ 0x1388
341810ac:	4669      	mov	r1, sp
341810ae:	4630      	mov	r0, r6
341810b0:	f005 ffc2 	bl	34187038 <HAL_XSPI_AutoPolling>
341810b4:	3800      	subs	r0, #0
341810b6:	bf18      	it	ne
341810b8:	2001      	movne	r0, #1
341810ba:	4240      	negs	r0, r0
341810bc:	e7b3      	b.n	34181026 <MX66UW1G45G_AutoPollingMemReady+0x28>
341810be:	2201      	movs	r2, #1
341810c0:	462b      	mov	r3, r5
341810c2:	e7ba      	b.n	3418103a <MX66UW1G45G_AutoPollingMemReady+0x3c>
341810c4:	2205      	movs	r2, #5
341810c6:	462b      	mov	r3, r5
341810c8:	e7c1      	b.n	3418104e <MX66UW1G45G_AutoPollingMemReady+0x50>
341810ca:	2304      	movs	r3, #4
341810cc:	9316      	str	r3, [sp, #88]	@ 0x58
341810ce:	2201      	movs	r2, #1
341810d0:	2300      	movs	r3, #0
341810d2:	e7d8      	b.n	34181086 <MX66UW1G45G_AutoPollingMemReady+0x88>
341810d4:	2c01      	cmp	r4, #1
341810d6:	d1fa      	bne.n	341810ce <MX66UW1G45G_AutoPollingMemReady+0xd0>
341810d8:	e7d2      	b.n	34181080 <MX66UW1G45G_AutoPollingMemReady+0x82>

341810da <MX66UW1G45G_EnableSTRMemoryMappedMode>:
341810da:	b570      	push	{r4, r5, r6, lr}
341810dc:	460c      	mov	r4, r1
341810de:	b098      	sub	sp, #96	@ 0x60
341810e0:	2100      	movs	r1, #0
341810e2:	4606      	mov	r6, r0
341810e4:	4615      	mov	r5, r2
341810e6:	a805      	add	r0, sp, #20
341810e8:	224c      	movs	r2, #76	@ 0x4c
341810ea:	f007 fd8a 	bl	34188c02 <memset>
341810ee:	2210      	movs	r2, #16
341810f0:	2100      	movs	r1, #0
341810f2:	a801      	add	r0, sp, #4
341810f4:	f007 fd85 	bl	34188c02 <memset>
341810f8:	2c01      	cmp	r4, #1
341810fa:	d140      	bne.n	3418117e <MX66UW1G45G_EnableSTRMemoryMappedMode+0xa4>
341810fc:	b91d      	cbnz	r5, 34181106 <MX66UW1G45G_EnableSTRMemoryMappedMode+0x2c>
341810fe:	f04f 30ff 	mov.w	r0, #4294967295
34181102:	b018      	add	sp, #96	@ 0x60
34181104:	bd70      	pop	{r4, r5, r6, pc}
34181106:	9405      	str	r4, [sp, #20]
34181108:	2204      	movs	r2, #4
3418110a:	2310      	movs	r3, #16
3418110c:	e9cd 2308 	strd	r2, r3, [sp, #32]
34181110:	f64e 4213 	movw	r2, #60435	@ 0xec13
34181114:	f44f 6380 	mov.w	r3, #1024	@ 0x400
34181118:	2d00      	cmp	r5, #0
3418111a:	930c      	str	r3, [sp, #48]	@ 0x30
3418111c:	bf14      	ite	ne
3418111e:	f44f 5340 	movne.w	r3, #12288	@ 0x3000
34181122:	f44f 5300 	moveq.w	r3, #8192	@ 0x2000
34181126:	9207      	str	r2, [sp, #28]
34181128:	930d      	str	r3, [sp, #52]	@ 0x34
3418112a:	2c00      	cmp	r4, #0
3418112c:	d033      	beq.n	34181196 <MX66UW1G45G_EnableSTRMemoryMappedMode+0xbc>
3418112e:	f04f 6280 	mov.w	r2, #67108864	@ 0x4000000
34181132:	2306      	movs	r3, #6
34181134:	9213      	str	r2, [sp, #76]	@ 0x4c
34181136:	4630      	mov	r0, r6
34181138:	f241 3288 	movw	r2, #5000	@ 0x1388
3418113c:	a905      	add	r1, sp, #20
3418113e:	9316      	str	r3, [sp, #88]	@ 0x58
34181140:	f005 fe8a 	bl	34186e58 <HAL_XSPI_Command>
34181144:	2800      	cmp	r0, #0
34181146:	d1da      	bne.n	341810fe <MX66UW1G45G_EnableSTRMemoryMappedMode+0x24>
34181148:	2302      	movs	r3, #2
3418114a:	9305      	str	r3, [sp, #20]
3418114c:	bb3c      	cbnz	r4, 3418119e <MX66UW1G45G_EnableSTRMemoryMappedMode+0xc4>
3418114e:	2d00      	cmp	r5, #0
34181150:	bf18      	it	ne
34181152:	2312      	movne	r3, #18
34181154:	9307      	str	r3, [sp, #28]
34181156:	2300      	movs	r3, #0
34181158:	f241 3288 	movw	r2, #5000	@ 0x1388
3418115c:	4630      	mov	r0, r6
3418115e:	a905      	add	r1, sp, #20
34181160:	9316      	str	r3, [sp, #88]	@ 0x58
34181162:	f005 fe79 	bl	34186e58 <HAL_XSPI_Command>
34181166:	2800      	cmp	r0, #0
34181168:	d1c9      	bne.n	341810fe <MX66UW1G45G_EnableSTRMemoryMappedMode+0x24>
3418116a:	9001      	str	r0, [sp, #4]
3418116c:	a901      	add	r1, sp, #4
3418116e:	4630      	mov	r0, r6
34181170:	f005 ffb9 	bl	341870e6 <HAL_XSPI_MemoryMapped>
34181174:	3800      	subs	r0, #0
34181176:	bf18      	it	ne
34181178:	2001      	movne	r0, #1
3418117a:	4240      	negs	r0, r0
3418117c:	e7c1      	b.n	34181102 <MX66UW1G45G_EnableSTRMemoryMappedMode+0x28>
3418117e:	2301      	movs	r3, #1
34181180:	9305      	str	r3, [sp, #20]
34181182:	2c00      	cmp	r4, #0
34181184:	d1c0      	bne.n	34181108 <MX66UW1G45G_EnableSTRMemoryMappedMode+0x2e>
34181186:	2d00      	cmp	r5, #0
34181188:	9308      	str	r3, [sp, #32]
3418118a:	bf14      	ite	ne
3418118c:	220c      	movne	r2, #12
3418118e:	220b      	moveq	r2, #11
34181190:	f44f 7380 	mov.w	r3, #256	@ 0x100
34181194:	e7c0      	b.n	34181118 <MX66UW1G45G_EnableSTRMemoryMappedMode+0x3e>
34181196:	f04f 7280 	mov.w	r2, #16777216	@ 0x1000000
3418119a:	2308      	movs	r3, #8
3418119c:	e7ca      	b.n	34181134 <MX66UW1G45G_EnableSTRMemoryMappedMode+0x5a>
3418119e:	f241 23ed 	movw	r3, #4845	@ 0x12ed
341811a2:	e7d7      	b.n	34181154 <MX66UW1G45G_EnableSTRMemoryMappedMode+0x7a>

341811a4 <MX66UW1G45G_EnableDTRMemoryMappedMode>:
341811a4:	b530      	push	{r4, r5, lr}
341811a6:	2510      	movs	r5, #16
341811a8:	b099      	sub	sp, #100	@ 0x64
341811aa:	4604      	mov	r4, r0
341811ac:	223c      	movs	r2, #60	@ 0x3c
341811ae:	2100      	movs	r1, #0
341811b0:	a806      	add	r0, sp, #24
341811b2:	f007 fd26 	bl	34188c02 <memset>
341811b6:	462a      	mov	r2, r5
341811b8:	2100      	movs	r1, #0
341811ba:	a801      	add	r0, sp, #4
341811bc:	f007 fd21 	bl	34188c02 <memset>
341811c0:	2301      	movs	r3, #1
341811c2:	9305      	str	r3, [sp, #20]
341811c4:	2304      	movs	r3, #4
341811c6:	9308      	str	r3, [sp, #32]
341811c8:	2308      	movs	r3, #8
341811ca:	e9cd 5309 	strd	r5, r3, [sp, #36]	@ 0x24
341811ce:	f64e 6311 	movw	r3, #60945	@ 0xee11
341811d2:	9307      	str	r3, [sp, #28]
341811d4:	f44f 6380 	mov.w	r3, #1024	@ 0x400
341811d8:	f44f 6e00 	mov.w	lr, #2048	@ 0x800
341811dc:	930c      	str	r3, [sp, #48]	@ 0x30
341811de:	f44f 5340 	mov.w	r3, #12288	@ 0x3000
341811e2:	e9cd 3e0d 	strd	r3, lr, [sp, #52]	@ 0x34
341811e6:	f04f 6380 	mov.w	r3, #67108864	@ 0x4000000
341811ea:	f04f 6100 	mov.w	r1, #134217728	@ 0x8000000
341811ee:	9313      	str	r3, [sp, #76]	@ 0x4c
341811f0:	2306      	movs	r3, #6
341811f2:	e9cd 1315 	strd	r1, r3, [sp, #84]	@ 0x54
341811f6:	f04f 5300 	mov.w	r3, #536870912	@ 0x20000000
341811fa:	f241 3288 	movw	r2, #5000	@ 0x1388
341811fe:	4620      	mov	r0, r4
34181200:	a905      	add	r1, sp, #20
34181202:	9317      	str	r3, [sp, #92]	@ 0x5c
34181204:	f005 fe28 	bl	34186e58 <HAL_XSPI_Command>
34181208:	b118      	cbz	r0, 34181212 <MX66UW1G45G_EnableDTRMemoryMappedMode+0x6e>
3418120a:	f04f 30ff 	mov.w	r0, #4294967295
3418120e:	b019      	add	sp, #100	@ 0x64
34181210:	bd30      	pop	{r4, r5, pc}
34181212:	2302      	movs	r3, #2
34181214:	9305      	str	r3, [sp, #20]
34181216:	f241 23ed 	movw	r3, #4845	@ 0x12ed
3418121a:	e9cd 0016 	strd	r0, r0, [sp, #88]	@ 0x58
3418121e:	f241 3288 	movw	r2, #5000	@ 0x1388
34181222:	4620      	mov	r0, r4
34181224:	a905      	add	r1, sp, #20
34181226:	9307      	str	r3, [sp, #28]
34181228:	f005 fe16 	bl	34186e58 <HAL_XSPI_Command>
3418122c:	2800      	cmp	r0, #0
3418122e:	d1ec      	bne.n	3418120a <MX66UW1G45G_EnableDTRMemoryMappedMode+0x66>
34181230:	9001      	str	r0, [sp, #4]
34181232:	a901      	add	r1, sp, #4
34181234:	4620      	mov	r0, r4
34181236:	f005 ff56 	bl	341870e6 <HAL_XSPI_MemoryMapped>
3418123a:	3800      	subs	r0, #0
3418123c:	bf18      	it	ne
3418123e:	2001      	movne	r0, #1
34181240:	4240      	negs	r0, r0
34181242:	e7e4      	b.n	3418120e <MX66UW1G45G_EnableDTRMemoryMappedMode+0x6a>

34181244 <MX66UW1G45G_WriteEnable>:
34181244:	b5f0      	push	{r4, r5, r6, r7, lr}
34181246:	460c      	mov	r4, r1
34181248:	b099      	sub	sp, #100	@ 0x64
3418124a:	2100      	movs	r1, #0
3418124c:	4606      	mov	r6, r0
3418124e:	4615      	mov	r5, r2
34181250:	a805      	add	r0, sp, #20
34181252:	224c      	movs	r2, #76	@ 0x4c
34181254:	f007 fcd5 	bl	34188c02 <memset>
34181258:	2214      	movs	r2, #20
3418125a:	2100      	movs	r1, #0
3418125c:	4668      	mov	r0, sp
3418125e:	f007 fcd0 	bl	34188c02 <memset>
34181262:	b92c      	cbnz	r4, 34181270 <MX66UW1G45G_WriteEnable+0x2c>
34181264:	2d01      	cmp	r5, #1
34181266:	d157      	bne.n	34181318 <MX66UW1G45G_WriteEnable+0xd4>
34181268:	f04f 30ff 	mov.w	r0, #4294967295
3418126c:	b019      	add	sp, #100	@ 0x64
3418126e:	bdf0      	pop	{r4, r5, r6, r7, pc}
34181270:	1e6a      	subs	r2, r5, #1
34181272:	4253      	negs	r3, r2
34181274:	4153      	adcs	r3, r2
34181276:	2204      	movs	r2, #4
34181278:	00db      	lsls	r3, r3, #3
3418127a:	9208      	str	r2, [sp, #32]
3418127c:	930a      	str	r3, [sp, #40]	@ 0x28
3418127e:	2c00      	cmp	r4, #0
34181280:	d04d      	beq.n	3418131e <MX66UW1G45G_WriteEnable+0xda>
34181282:	2310      	movs	r3, #16
34181284:	9309      	str	r3, [sp, #36]	@ 0x24
34181286:	f240 63f9 	movw	r3, #1785	@ 0x6f9
3418128a:	f241 3288 	movw	r2, #5000	@ 0x1388
3418128e:	4630      	mov	r0, r6
34181290:	a905      	add	r1, sp, #20
34181292:	9307      	str	r3, [sp, #28]
34181294:	f005 fde0 	bl	34186e58 <HAL_XSPI_Command>
34181298:	2800      	cmp	r0, #0
3418129a:	d1e5      	bne.n	34181268 <MX66UW1G45G_WriteEnable+0x24>
3418129c:	2c00      	cmp	r4, #0
3418129e:	d140      	bne.n	34181322 <MX66UW1G45G_WriteEnable+0xde>
341812a0:	f04f 0e05 	mov.w	lr, #5
341812a4:	46a4      	mov	ip, r4
341812a6:	1e6b      	subs	r3, r5, #1
341812a8:	425f      	negs	r7, r3
341812aa:	415f      	adcs	r7, r3
341812ac:	02ff      	lsls	r7, r7, #11
341812ae:	2c00      	cmp	r4, #0
341812b0:	d03c      	beq.n	3418132c <MX66UW1G45G_WriteEnable+0xe8>
341812b2:	2d01      	cmp	r5, #1
341812b4:	d040      	beq.n	34181338 <MX66UW1G45G_WriteEnable+0xf4>
341812b6:	2300      	movs	r3, #0
341812b8:	f04f 6080 	mov.w	r0, #67108864	@ 0x4000000
341812bc:	2404      	movs	r4, #4
341812be:	2101      	movs	r1, #1
341812c0:	461a      	mov	r2, r3
341812c2:	f44f 5540 	mov.w	r5, #12288	@ 0x3000
341812c6:	950d      	str	r5, [sp, #52]	@ 0x34
341812c8:	2500      	movs	r5, #0
341812ca:	9013      	str	r0, [sp, #76]	@ 0x4c
341812cc:	9114      	str	r1, [sp, #80]	@ 0x50
341812ce:	9217      	str	r2, [sp, #92]	@ 0x5c
341812d0:	4630      	mov	r0, r6
341812d2:	f241 3288 	movw	r2, #5000	@ 0x1388
341812d6:	a905      	add	r1, sp, #20
341812d8:	e9cd 3415 	strd	r3, r4, [sp, #84]	@ 0x54
341812dc:	f8cd e01c 	str.w	lr, [sp, #28]
341812e0:	f8cd c030 	str.w	ip, [sp, #48]	@ 0x30
341812e4:	970e      	str	r7, [sp, #56]	@ 0x38
341812e6:	950b      	str	r5, [sp, #44]	@ 0x2c
341812e8:	f005 fdb6 	bl	34186e58 <HAL_XSPI_Command>
341812ec:	2800      	cmp	r0, #0
341812ee:	d1bb      	bne.n	34181268 <MX66UW1G45G_WriteEnable+0x24>
341812f0:	2302      	movs	r3, #2
341812f2:	2210      	movs	r2, #16
341812f4:	e9cd 3300 	strd	r3, r3, [sp]
341812f8:	f44f 0380 	mov.w	r3, #4194304	@ 0x400000
341812fc:	9002      	str	r0, [sp, #8]
341812fe:	e9cd 3203 	strd	r3, r2, [sp, #12]
34181302:	4669      	mov	r1, sp
34181304:	f241 3288 	movw	r2, #5000	@ 0x1388
34181308:	4630      	mov	r0, r6
3418130a:	f005 fe95 	bl	34187038 <HAL_XSPI_AutoPolling>
3418130e:	1b40      	subs	r0, r0, r5
34181310:	bf18      	it	ne
34181312:	2001      	movne	r0, #1
34181314:	4240      	negs	r0, r0
34181316:	e7a9      	b.n	3418126c <MX66UW1G45G_WriteEnable+0x28>
34181318:	2201      	movs	r2, #1
3418131a:	4623      	mov	r3, r4
3418131c:	e7ad      	b.n	3418127a <MX66UW1G45G_WriteEnable+0x36>
3418131e:	2306      	movs	r3, #6
34181320:	e7b3      	b.n	3418128a <MX66UW1G45G_WriteEnable+0x46>
34181322:	f240 5efa 	movw	lr, #1530	@ 0x5fa
34181326:	f44f 6c80 	mov.w	ip, #1024	@ 0x400
3418132a:	e7bc      	b.n	341812a6 <MX66UW1G45G_WriteEnable+0x62>
3418132c:	2d01      	cmp	r5, #1
3418132e:	d00c      	beq.n	3418134a <MX66UW1G45G_WriteEnable+0x106>
34181330:	4623      	mov	r3, r4
34181332:	f04f 7080 	mov.w	r0, #16777216	@ 0x1000000
34181336:	e7c2      	b.n	341812be <MX66UW1G45G_WriteEnable+0x7a>
34181338:	f04f 6300 	mov.w	r3, #134217728	@ 0x8000000
3418133c:	f04f 6080 	mov.w	r0, #67108864	@ 0x4000000
34181340:	2405      	movs	r4, #5
34181342:	2102      	movs	r1, #2
34181344:	f04f 5200 	mov.w	r2, #536870912	@ 0x20000000
34181348:	e7bb      	b.n	341812c2 <MX66UW1G45G_WriteEnable+0x7e>
3418134a:	f04f 6300 	mov.w	r3, #134217728	@ 0x8000000
3418134e:	f04f 7080 	mov.w	r0, #16777216	@ 0x1000000
34181352:	e7f6      	b.n	34181342 <MX66UW1G45G_WriteEnable+0xfe>

34181354 <MX66UW1G45G_ReadStatusRegister>:
34181354:	b5f0      	push	{r4, r5, r6, r7, lr}
34181356:	460d      	mov	r5, r1
34181358:	b095      	sub	sp, #84	@ 0x54
3418135a:	4606      	mov	r6, r0
3418135c:	4614      	mov	r4, r2
3418135e:	2100      	movs	r1, #0
34181360:	224c      	movs	r2, #76	@ 0x4c
34181362:	a801      	add	r0, sp, #4
34181364:	461f      	mov	r7, r3
34181366:	f007 fc4c 	bl	34188c02 <memset>
3418136a:	b92d      	cbnz	r5, 34181378 <MX66UW1G45G_ReadStatusRegister+0x24>
3418136c:	2c01      	cmp	r4, #1
3418136e:	d143      	bne.n	341813f8 <MX66UW1G45G_ReadStatusRegister+0xa4>
34181370:	f04f 30ff 	mov.w	r0, #4294967295
34181374:	b015      	add	sp, #84	@ 0x54
34181376:	bdf0      	pop	{r4, r5, r6, r7, pc}
34181378:	2304      	movs	r3, #4
3418137a:	1e61      	subs	r1, r4, #1
3418137c:	424a      	negs	r2, r1
3418137e:	414a      	adcs	r2, r1
34181380:	00d2      	lsls	r2, r2, #3
34181382:	9304      	str	r3, [sp, #16]
34181384:	9206      	str	r2, [sp, #24]
34181386:	2d00      	cmp	r5, #0
34181388:	d039      	beq.n	341813fe <MX66UW1G45G_ReadStatusRegister+0xaa>
3418138a:	2310      	movs	r3, #16
3418138c:	f240 52fa 	movw	r2, #1530	@ 0x5fa
34181390:	9305      	str	r3, [sp, #20]
34181392:	f44f 6380 	mov.w	r3, #1024	@ 0x400
34181396:	9308      	str	r3, [sp, #32]
34181398:	1e63      	subs	r3, r4, #1
3418139a:	9203      	str	r2, [sp, #12]
3418139c:	425a      	negs	r2, r3
3418139e:	415a      	adcs	r2, r3
341813a0:	02d3      	lsls	r3, r2, #11
341813a2:	930a      	str	r3, [sp, #40]	@ 0x28
341813a4:	f44f 5340 	mov.w	r3, #12288	@ 0x3000
341813a8:	2d00      	cmp	r5, #0
341813aa:	9309      	str	r3, [sp, #36]	@ 0x24
341813ac:	bf14      	ite	ne
341813ae:	f04f 6380 	movne.w	r3, #67108864	@ 0x4000000
341813b2:	f04f 7380 	moveq.w	r3, #16777216	@ 0x1000000
341813b6:	ea4f 62c2 	mov.w	r2, r2, lsl #27
341813ba:	930f      	str	r3, [sp, #60]	@ 0x3c
341813bc:	9211      	str	r2, [sp, #68]	@ 0x44
341813be:	d026      	beq.n	3418140e <MX66UW1G45G_ReadStatusRegister+0xba>
341813c0:	2c01      	cmp	r4, #1
341813c2:	d11f      	bne.n	34181404 <MX66UW1G45G_ReadStatusRegister+0xb0>
341813c4:	2305      	movs	r3, #5
341813c6:	9312      	str	r3, [sp, #72]	@ 0x48
341813c8:	2202      	movs	r2, #2
341813ca:	f04f 5300 	mov.w	r3, #536870912	@ 0x20000000
341813ce:	9210      	str	r2, [sp, #64]	@ 0x40
341813d0:	4630      	mov	r0, r6
341813d2:	f241 3288 	movw	r2, #5000	@ 0x1388
341813d6:	a901      	add	r1, sp, #4
341813d8:	9313      	str	r3, [sp, #76]	@ 0x4c
341813da:	f005 fd3d 	bl	34186e58 <HAL_XSPI_Command>
341813de:	2800      	cmp	r0, #0
341813e0:	d1c6      	bne.n	34181370 <MX66UW1G45G_ReadStatusRegister+0x1c>
341813e2:	f241 3288 	movw	r2, #5000	@ 0x1388
341813e6:	4639      	mov	r1, r7
341813e8:	4630      	mov	r0, r6
341813ea:	f005 fdcd 	bl	34186f88 <HAL_XSPI_Receive>
341813ee:	3800      	subs	r0, #0
341813f0:	bf18      	it	ne
341813f2:	2001      	movne	r0, #1
341813f4:	4240      	negs	r0, r0
341813f6:	e7bd      	b.n	34181374 <MX66UW1G45G_ReadStatusRegister+0x20>
341813f8:	2301      	movs	r3, #1
341813fa:	462a      	mov	r2, r5
341813fc:	e7c1      	b.n	34181382 <MX66UW1G45G_ReadStatusRegister+0x2e>
341813fe:	2205      	movs	r2, #5
34181400:	462b      	mov	r3, r5
34181402:	e7c8      	b.n	34181396 <MX66UW1G45G_ReadStatusRegister+0x42>
34181404:	2304      	movs	r3, #4
34181406:	9312      	str	r3, [sp, #72]	@ 0x48
34181408:	2201      	movs	r2, #1
3418140a:	2300      	movs	r3, #0
3418140c:	e7df      	b.n	341813ce <MX66UW1G45G_ReadStatusRegister+0x7a>
3418140e:	2c01      	cmp	r4, #1
34181410:	d1fa      	bne.n	34181408 <MX66UW1G45G_ReadStatusRegister+0xb4>
34181412:	e7d9      	b.n	341813c8 <MX66UW1G45G_ReadStatusRegister+0x74>

34181414 <MX66UW1G45G_WriteCfg2Register>:
34181414:	b5f0      	push	{r4, r5, r6, r7, lr}
34181416:	460d      	mov	r5, r1
34181418:	b095      	sub	sp, #84	@ 0x54
3418141a:	4606      	mov	r6, r0
3418141c:	4614      	mov	r4, r2
3418141e:	2100      	movs	r1, #0
34181420:	224c      	movs	r2, #76	@ 0x4c
34181422:	a801      	add	r0, sp, #4
34181424:	461f      	mov	r7, r3
34181426:	f007 fbec 	bl	34188c02 <memset>
3418142a:	b92d      	cbnz	r5, 34181438 <MX66UW1G45G_WriteCfg2Register+0x24>
3418142c:	2c01      	cmp	r4, #1
3418142e:	d140      	bne.n	341814b2 <MX66UW1G45G_WriteCfg2Register+0x9e>
34181430:	f04f 30ff 	mov.w	r0, #4294967295
34181434:	b015      	add	sp, #84	@ 0x54
34181436:	bdf0      	pop	{r4, r5, r6, r7, pc}
34181438:	2304      	movs	r3, #4
3418143a:	1e61      	subs	r1, r4, #1
3418143c:	424a      	negs	r2, r1
3418143e:	414a      	adcs	r2, r1
34181440:	00d2      	lsls	r2, r2, #3
34181442:	9304      	str	r3, [sp, #16]
34181444:	9206      	str	r2, [sp, #24]
34181446:	2d00      	cmp	r5, #0
34181448:	d036      	beq.n	341814b8 <MX66UW1G45G_WriteCfg2Register+0xa4>
3418144a:	2310      	movs	r3, #16
3418144c:	f247 228d 	movw	r2, #29325	@ 0x728d
34181450:	9305      	str	r3, [sp, #20]
34181452:	f44f 6380 	mov.w	r3, #1024	@ 0x400
34181456:	9308      	str	r3, [sp, #32]
34181458:	1e63      	subs	r3, r4, #1
3418145a:	9203      	str	r2, [sp, #12]
3418145c:	425a      	negs	r2, r3
3418145e:	415a      	adcs	r2, r3
34181460:	02d3      	lsls	r3, r2, #11
34181462:	930a      	str	r3, [sp, #40]	@ 0x28
34181464:	f44f 5340 	mov.w	r3, #12288	@ 0x3000
34181468:	2d00      	cmp	r5, #0
3418146a:	9309      	str	r3, [sp, #36]	@ 0x24
3418146c:	bf14      	ite	ne
3418146e:	f04f 6380 	movne.w	r3, #67108864	@ 0x4000000
34181472:	f04f 7380 	moveq.w	r3, #16777216	@ 0x1000000
34181476:	ea4f 62c2 	mov.w	r2, r2, lsl #27
3418147a:	9707      	str	r7, [sp, #28]
3418147c:	930f      	str	r3, [sp, #60]	@ 0x3c
3418147e:	9211      	str	r2, [sp, #68]	@ 0x44
34181480:	d01e      	beq.n	341814c0 <MX66UW1G45G_WriteCfg2Register+0xac>
34181482:	2c01      	cmp	r4, #1
34181484:	bf0c      	ite	eq
34181486:	2302      	moveq	r3, #2
34181488:	2301      	movne	r3, #1
3418148a:	f241 3288 	movw	r2, #5000	@ 0x1388
3418148e:	4630      	mov	r0, r6
34181490:	a901      	add	r1, sp, #4
34181492:	9310      	str	r3, [sp, #64]	@ 0x40
34181494:	f005 fce0 	bl	34186e58 <HAL_XSPI_Command>
34181498:	2800      	cmp	r0, #0
3418149a:	d1c9      	bne.n	34181430 <MX66UW1G45G_WriteCfg2Register+0x1c>
3418149c:	f241 3288 	movw	r2, #5000	@ 0x1388
341814a0:	4630      	mov	r0, r6
341814a2:	a91a      	add	r1, sp, #104	@ 0x68
341814a4:	f005 fd2a 	bl	34186efc <HAL_XSPI_Transmit>
341814a8:	3800      	subs	r0, #0
341814aa:	bf18      	it	ne
341814ac:	2001      	movne	r0, #1
341814ae:	4240      	negs	r0, r0
341814b0:	e7c0      	b.n	34181434 <MX66UW1G45G_WriteCfg2Register+0x20>
341814b2:	2301      	movs	r3, #1
341814b4:	462a      	mov	r2, r5
341814b6:	e7c4      	b.n	34181442 <MX66UW1G45G_WriteCfg2Register+0x2e>
341814b8:	2272      	movs	r2, #114	@ 0x72
341814ba:	f44f 7380 	mov.w	r3, #256	@ 0x100
341814be:	e7ca      	b.n	34181456 <MX66UW1G45G_WriteCfg2Register+0x42>
341814c0:	2301      	movs	r3, #1
341814c2:	e7e2      	b.n	3418148a <MX66UW1G45G_WriteCfg2Register+0x76>

341814c4 <MX66UW1G45G_ReadCfg2Register>:
341814c4:	b5f0      	push	{r4, r5, r6, r7, lr}
341814c6:	460d      	mov	r5, r1
341814c8:	b095      	sub	sp, #84	@ 0x54
341814ca:	4606      	mov	r6, r0
341814cc:	4614      	mov	r4, r2
341814ce:	2100      	movs	r1, #0
341814d0:	224c      	movs	r2, #76	@ 0x4c
341814d2:	a801      	add	r0, sp, #4
341814d4:	461f      	mov	r7, r3
341814d6:	f007 fb94 	bl	34188c02 <memset>
341814da:	b92d      	cbnz	r5, 341814e8 <MX66UW1G45G_ReadCfg2Register+0x24>
341814dc:	2c01      	cmp	r4, #1
341814de:	d144      	bne.n	3418156a <MX66UW1G45G_ReadCfg2Register+0xa6>
341814e0:	f04f 30ff 	mov.w	r0, #4294967295
341814e4:	b015      	add	sp, #84	@ 0x54
341814e6:	bdf0      	pop	{r4, r5, r6, r7, pc}
341814e8:	2304      	movs	r3, #4
341814ea:	1e61      	subs	r1, r4, #1
341814ec:	424a      	negs	r2, r1
341814ee:	414a      	adcs	r2, r1
341814f0:	00d2      	lsls	r2, r2, #3
341814f2:	9304      	str	r3, [sp, #16]
341814f4:	9206      	str	r2, [sp, #24]
341814f6:	2d00      	cmp	r5, #0
341814f8:	d03a      	beq.n	34181570 <MX66UW1G45G_ReadCfg2Register+0xac>
341814fa:	2310      	movs	r3, #16
341814fc:	f247 128e 	movw	r2, #29070	@ 0x718e
34181500:	9305      	str	r3, [sp, #20]
34181502:	f44f 6380 	mov.w	r3, #1024	@ 0x400
34181506:	9308      	str	r3, [sp, #32]
34181508:	1e63      	subs	r3, r4, #1
3418150a:	9203      	str	r2, [sp, #12]
3418150c:	425a      	negs	r2, r3
3418150e:	415a      	adcs	r2, r3
34181510:	02d3      	lsls	r3, r2, #11
34181512:	930a      	str	r3, [sp, #40]	@ 0x28
34181514:	f44f 5340 	mov.w	r3, #12288	@ 0x3000
34181518:	2d00      	cmp	r5, #0
3418151a:	9309      	str	r3, [sp, #36]	@ 0x24
3418151c:	bf14      	ite	ne
3418151e:	f04f 6380 	movne.w	r3, #67108864	@ 0x4000000
34181522:	f04f 7380 	moveq.w	r3, #16777216	@ 0x1000000
34181526:	ea4f 62c2 	mov.w	r2, r2, lsl #27
3418152a:	9707      	str	r7, [sp, #28]
3418152c:	930f      	str	r3, [sp, #60]	@ 0x3c
3418152e:	9211      	str	r2, [sp, #68]	@ 0x44
34181530:	d027      	beq.n	34181582 <MX66UW1G45G_ReadCfg2Register+0xbe>
34181532:	2c01      	cmp	r4, #1
34181534:	d120      	bne.n	34181578 <MX66UW1G45G_ReadCfg2Register+0xb4>
34181536:	2305      	movs	r3, #5
34181538:	9312      	str	r3, [sp, #72]	@ 0x48
3418153a:	2202      	movs	r2, #2
3418153c:	f04f 5300 	mov.w	r3, #536870912	@ 0x20000000
34181540:	9210      	str	r2, [sp, #64]	@ 0x40
34181542:	4630      	mov	r0, r6
34181544:	f241 3288 	movw	r2, #5000	@ 0x1388
34181548:	a901      	add	r1, sp, #4
3418154a:	9313      	str	r3, [sp, #76]	@ 0x4c
3418154c:	f005 fc84 	bl	34186e58 <HAL_XSPI_Command>
34181550:	2800      	cmp	r0, #0
34181552:	d1c5      	bne.n	341814e0 <MX66UW1G45G_ReadCfg2Register+0x1c>
34181554:	f241 3288 	movw	r2, #5000	@ 0x1388
34181558:	4630      	mov	r0, r6
3418155a:	991a      	ldr	r1, [sp, #104]	@ 0x68
3418155c:	f005 fd14 	bl	34186f88 <HAL_XSPI_Receive>
34181560:	3800      	subs	r0, #0
34181562:	bf18      	it	ne
34181564:	2001      	movne	r0, #1
34181566:	4240      	negs	r0, r0
34181568:	e7bc      	b.n	341814e4 <MX66UW1G45G_ReadCfg2Register+0x20>
3418156a:	2301      	movs	r3, #1
3418156c:	462a      	mov	r2, r5
3418156e:	e7c0      	b.n	341814f2 <MX66UW1G45G_ReadCfg2Register+0x2e>
34181570:	2271      	movs	r2, #113	@ 0x71
34181572:	f44f 7380 	mov.w	r3, #256	@ 0x100
34181576:	e7c6      	b.n	34181506 <MX66UW1G45G_ReadCfg2Register+0x42>
34181578:	2304      	movs	r3, #4
3418157a:	9312      	str	r3, [sp, #72]	@ 0x48
3418157c:	2201      	movs	r2, #1
3418157e:	2300      	movs	r3, #0
34181580:	e7de      	b.n	34181540 <MX66UW1G45G_ReadCfg2Register+0x7c>
34181582:	2c01      	cmp	r4, #1
34181584:	d1fa      	bne.n	3418157c <MX66UW1G45G_ReadCfg2Register+0xb8>
34181586:	e7d8      	b.n	3418153a <MX66UW1G45G_ReadCfg2Register+0x76>

34181588 <MX66UW1G45G_ResetEnable>:
34181588:	b570      	push	{r4, r5, r6, lr}
3418158a:	460d      	mov	r5, r1
3418158c:	b094      	sub	sp, #80	@ 0x50
3418158e:	4606      	mov	r6, r0
34181590:	4614      	mov	r4, r2
34181592:	2100      	movs	r1, #0
34181594:	224c      	movs	r2, #76	@ 0x4c
34181596:	a801      	add	r0, sp, #4
34181598:	f007 fb33 	bl	34188c02 <memset>
3418159c:	b9d5      	cbnz	r5, 341815d4 <MX66UW1G45G_ResetEnable+0x4c>
3418159e:	2c01      	cmp	r4, #1
341815a0:	d01c      	beq.n	341815dc <MX66UW1G45G_ResetEnable+0x54>
341815a2:	2301      	movs	r3, #1
341815a4:	9304      	str	r3, [sp, #16]
341815a6:	1e63      	subs	r3, r4, #1
341815a8:	425c      	negs	r4, r3
341815aa:	415c      	adcs	r4, r3
341815ac:	00e4      	lsls	r4, r4, #3
341815ae:	9406      	str	r4, [sp, #24]
341815b0:	b195      	cbz	r5, 341815d8 <MX66UW1G45G_ResetEnable+0x50>
341815b2:	2310      	movs	r3, #16
341815b4:	9305      	str	r3, [sp, #20]
341815b6:	f246 6399 	movw	r3, #26265	@ 0x6699
341815ba:	f241 3288 	movw	r2, #5000	@ 0x1388
341815be:	4630      	mov	r0, r6
341815c0:	a901      	add	r1, sp, #4
341815c2:	9303      	str	r3, [sp, #12]
341815c4:	f005 fc48 	bl	34186e58 <HAL_XSPI_Command>
341815c8:	3800      	subs	r0, #0
341815ca:	bf18      	it	ne
341815cc:	2001      	movne	r0, #1
341815ce:	4240      	negs	r0, r0
341815d0:	b014      	add	sp, #80	@ 0x50
341815d2:	bd70      	pop	{r4, r5, r6, pc}
341815d4:	2304      	movs	r3, #4
341815d6:	e7e5      	b.n	341815a4 <MX66UW1G45G_ResetEnable+0x1c>
341815d8:	2366      	movs	r3, #102	@ 0x66
341815da:	e7ee      	b.n	341815ba <MX66UW1G45G_ResetEnable+0x32>
341815dc:	f04f 30ff 	mov.w	r0, #4294967295
341815e0:	e7f6      	b.n	341815d0 <MX66UW1G45G_ResetEnable+0x48>

341815e2 <MX66UW1G45G_ResetMemory>:
341815e2:	b570      	push	{r4, r5, r6, lr}
341815e4:	460d      	mov	r5, r1
341815e6:	b094      	sub	sp, #80	@ 0x50
341815e8:	4606      	mov	r6, r0
341815ea:	4614      	mov	r4, r2
341815ec:	2100      	movs	r1, #0
341815ee:	224c      	movs	r2, #76	@ 0x4c
341815f0:	a801      	add	r0, sp, #4
341815f2:	f007 fb06 	bl	34188c02 <memset>
341815f6:	b9bd      	cbnz	r5, 34181628 <MX66UW1G45G_ResetMemory+0x46>
341815f8:	2c01      	cmp	r4, #1
341815fa:	d01d      	beq.n	34181638 <MX66UW1G45G_ResetMemory+0x56>
341815fc:	2301      	movs	r3, #1
341815fe:	462c      	mov	r4, r5
34181600:	9304      	str	r3, [sp, #16]
34181602:	9406      	str	r4, [sp, #24]
34181604:	b1b5      	cbz	r5, 34181634 <MX66UW1G45G_ResetMemory+0x52>
34181606:	2310      	movs	r3, #16
34181608:	9305      	str	r3, [sp, #20]
3418160a:	f649 1366 	movw	r3, #39270	@ 0x9966
3418160e:	f241 3288 	movw	r2, #5000	@ 0x1388
34181612:	4630      	mov	r0, r6
34181614:	a901      	add	r1, sp, #4
34181616:	9303      	str	r3, [sp, #12]
34181618:	f005 fc1e 	bl	34186e58 <HAL_XSPI_Command>
3418161c:	3800      	subs	r0, #0
3418161e:	bf18      	it	ne
34181620:	2001      	movne	r0, #1
34181622:	4240      	negs	r0, r0
34181624:	b014      	add	sp, #80	@ 0x50
34181626:	bd70      	pop	{r4, r5, r6, pc}
34181628:	1e63      	subs	r3, r4, #1
3418162a:	425c      	negs	r4, r3
3418162c:	415c      	adcs	r4, r3
3418162e:	00e4      	lsls	r4, r4, #3
34181630:	2304      	movs	r3, #4
34181632:	e7e5      	b.n	34181600 <MX66UW1G45G_ResetMemory+0x1e>
34181634:	2399      	movs	r3, #153	@ 0x99
34181636:	e7ea      	b.n	3418160e <MX66UW1G45G_ResetMemory+0x2c>
34181638:	f04f 30ff 	mov.w	r0, #4294967295
3418163c:	e7f2      	b.n	34181624 <MX66UW1G45G_ResetMemory+0x42>
	...

34181640 <LL_AHB4_GRP1_EnableClock>:
34181640:	4b04      	ldr	r3, [pc, #16]	@ (34181654 <LL_AHB4_GRP1_EnableClock+0x14>)
34181642:	b082      	sub	sp, #8
34181644:	f8c3 0a5c 	str.w	r0, [r3, #2652]	@ 0xa5c
34181648:	f8d3 325c 	ldr.w	r3, [r3, #604]	@ 0x25c
3418164c:	9301      	str	r3, [sp, #4]
3418164e:	9b01      	ldr	r3, [sp, #4]
34181650:	b002      	add	sp, #8
34181652:	4770      	bx	lr
34181654:	56028000 	.word	0x56028000

34181658 <XSPI_NOR_EnterSOPIMode.constprop.0>:
34181658:	b530      	push	{r4, r5, lr}
3418165a:	4c20      	ldr	r4, [pc, #128]	@ (341816dc <XSPI_NOR_EnterSOPIMode.constprop.0+0x84>)
3418165c:	b085      	sub	sp, #20
3418165e:	78a2      	ldrb	r2, [r4, #2]
34181660:	7861      	ldrb	r1, [r4, #1]
34181662:	481f      	ldr	r0, [pc, #124]	@ (341816e0 <XSPI_NOR_EnterSOPIMode.constprop.0+0x88>)
34181664:	f7ff fdee 	bl	34181244 <MX66UW1G45G_WriteEnable>
34181668:	b118      	cbz	r0, 34181672 <XSPI_NOR_EnterSOPIMode.constprop.0+0x1a>
3418166a:	f06f 0004 	mvn.w	r0, #4
3418166e:	b005      	add	sp, #20
34181670:	bd30      	pop	{r4, r5, pc}
34181672:	9000      	str	r0, [sp, #0]
34181674:	f44f 7340 	mov.w	r3, #768	@ 0x300
34181678:	78a2      	ldrb	r2, [r4, #2]
3418167a:	7861      	ldrb	r1, [r4, #1]
3418167c:	4818      	ldr	r0, [pc, #96]	@ (341816e0 <XSPI_NOR_EnterSOPIMode.constprop.0+0x88>)
3418167e:	f7ff fec9 	bl	34181414 <MX66UW1G45G_WriteCfg2Register>
34181682:	2800      	cmp	r0, #0
34181684:	d1f1      	bne.n	3418166a <XSPI_NOR_EnterSOPIMode.constprop.0+0x12>
34181686:	78a2      	ldrb	r2, [r4, #2]
34181688:	7861      	ldrb	r1, [r4, #1]
3418168a:	4815      	ldr	r0, [pc, #84]	@ (341816e0 <XSPI_NOR_EnterSOPIMode.constprop.0+0x88>)
3418168c:	f7ff fdda 	bl	34181244 <MX66UW1G45G_WriteEnable>
34181690:	4603      	mov	r3, r0
34181692:	2800      	cmp	r0, #0
34181694:	d1e9      	bne.n	3418166a <XSPI_NOR_EnterSOPIMode.constprop.0+0x12>
34181696:	2501      	movs	r5, #1
34181698:	9500      	str	r5, [sp, #0]
3418169a:	78a2      	ldrb	r2, [r4, #2]
3418169c:	7861      	ldrb	r1, [r4, #1]
3418169e:	4810      	ldr	r0, [pc, #64]	@ (341816e0 <XSPI_NOR_EnterSOPIMode.constprop.0+0x88>)
341816a0:	f7ff feb8 	bl	34181414 <MX66UW1G45G_WriteCfg2Register>
341816a4:	4604      	mov	r4, r0
341816a6:	2800      	cmp	r0, #0
341816a8:	d1df      	bne.n	3418166a <XSPI_NOR_EnterSOPIMode.constprop.0+0x12>
341816aa:	2028      	movs	r0, #40	@ 0x28
341816ac:	f000 fd80 	bl	341821b0 <HAL_Delay>
341816b0:	4622      	mov	r2, r4
341816b2:	4629      	mov	r1, r5
341816b4:	480a      	ldr	r0, [pc, #40]	@ (341816e0 <XSPI_NOR_EnterSOPIMode.constprop.0+0x88>)
341816b6:	f7ff fca2 	bl	34180ffe <MX66UW1G45G_AutoPollingMemReady>
341816ba:	4603      	mov	r3, r0
341816bc:	2800      	cmp	r0, #0
341816be:	d1d4      	bne.n	3418166a <XSPI_NOR_EnterSOPIMode.constprop.0+0x12>
341816c0:	aa03      	add	r2, sp, #12
341816c2:	9200      	str	r2, [sp, #0]
341816c4:	4629      	mov	r1, r5
341816c6:	4602      	mov	r2, r0
341816c8:	4805      	ldr	r0, [pc, #20]	@ (341816e0 <XSPI_NOR_EnterSOPIMode.constprop.0+0x88>)
341816ca:	f7ff fefb 	bl	341814c4 <MX66UW1G45G_ReadCfg2Register>
341816ce:	2800      	cmp	r0, #0
341816d0:	d1cb      	bne.n	3418166a <XSPI_NOR_EnterSOPIMode.constprop.0+0x12>
341816d2:	f89d 300c 	ldrb.w	r3, [sp, #12]
341816d6:	42ab      	cmp	r3, r5
341816d8:	d0c9      	beq.n	3418166e <XSPI_NOR_EnterSOPIMode.constprop.0+0x16>
341816da:	e7c6      	b.n	3418166a <XSPI_NOR_EnterSOPIMode.constprop.0+0x12>
341816dc:	341c0160 	.word	0x341c0160
341816e0:	341c0164 	.word	0x341c0164

341816e4 <XSPI_NOR_EnterDOPIMode.constprop.0>:
341816e4:	b51f      	push	{r0, r1, r2, r3, r4, lr}
341816e6:	4c1f      	ldr	r4, [pc, #124]	@ (34181764 <XSPI_NOR_EnterDOPIMode.constprop.0+0x80>)
341816e8:	481f      	ldr	r0, [pc, #124]	@ (34181768 <XSPI_NOR_EnterDOPIMode.constprop.0+0x84>)
341816ea:	78a2      	ldrb	r2, [r4, #2]
341816ec:	7861      	ldrb	r1, [r4, #1]
341816ee:	f7ff fda9 	bl	34181244 <MX66UW1G45G_WriteEnable>
341816f2:	b118      	cbz	r0, 341816fc <XSPI_NOR_EnterDOPIMode.constprop.0+0x18>
341816f4:	f06f 0004 	mvn.w	r0, #4
341816f8:	b004      	add	sp, #16
341816fa:	bd10      	pop	{r4, pc}
341816fc:	9000      	str	r0, [sp, #0]
341816fe:	f44f 7340 	mov.w	r3, #768	@ 0x300
34181702:	78a2      	ldrb	r2, [r4, #2]
34181704:	7861      	ldrb	r1, [r4, #1]
34181706:	4818      	ldr	r0, [pc, #96]	@ (34181768 <XSPI_NOR_EnterDOPIMode.constprop.0+0x84>)
34181708:	f7ff fe84 	bl	34181414 <MX66UW1G45G_WriteCfg2Register>
3418170c:	2800      	cmp	r0, #0
3418170e:	d1f1      	bne.n	341816f4 <XSPI_NOR_EnterDOPIMode.constprop.0+0x10>
34181710:	78a2      	ldrb	r2, [r4, #2]
34181712:	7861      	ldrb	r1, [r4, #1]
34181714:	4814      	ldr	r0, [pc, #80]	@ (34181768 <XSPI_NOR_EnterDOPIMode.constprop.0+0x84>)
34181716:	f7ff fd95 	bl	34181244 <MX66UW1G45G_WriteEnable>
3418171a:	4603      	mov	r3, r0
3418171c:	2800      	cmp	r0, #0
3418171e:	d1e9      	bne.n	341816f4 <XSPI_NOR_EnterDOPIMode.constprop.0+0x10>
34181720:	2202      	movs	r2, #2
34181722:	9200      	str	r2, [sp, #0]
34181724:	78a2      	ldrb	r2, [r4, #2]
34181726:	7861      	ldrb	r1, [r4, #1]
34181728:	480f      	ldr	r0, [pc, #60]	@ (34181768 <XSPI_NOR_EnterDOPIMode.constprop.0+0x84>)
3418172a:	f7ff fe73 	bl	34181414 <MX66UW1G45G_WriteCfg2Register>
3418172e:	2800      	cmp	r0, #0
34181730:	d1e0      	bne.n	341816f4 <XSPI_NOR_EnterDOPIMode.constprop.0+0x10>
34181732:	2028      	movs	r0, #40	@ 0x28
34181734:	f000 fd3c 	bl	341821b0 <HAL_Delay>
34181738:	2201      	movs	r2, #1
3418173a:	480b      	ldr	r0, [pc, #44]	@ (34181768 <XSPI_NOR_EnterDOPIMode.constprop.0+0x84>)
3418173c:	4611      	mov	r1, r2
3418173e:	f7ff fc5e 	bl	34180ffe <MX66UW1G45G_AutoPollingMemReady>
34181742:	4603      	mov	r3, r0
34181744:	2800      	cmp	r0, #0
34181746:	d1d5      	bne.n	341816f4 <XSPI_NOR_EnterDOPIMode.constprop.0+0x10>
34181748:	aa03      	add	r2, sp, #12
3418174a:	9200      	str	r2, [sp, #0]
3418174c:	2201      	movs	r2, #1
3418174e:	4806      	ldr	r0, [pc, #24]	@ (34181768 <XSPI_NOR_EnterDOPIMode.constprop.0+0x84>)
34181750:	4611      	mov	r1, r2
34181752:	f7ff feb7 	bl	341814c4 <MX66UW1G45G_ReadCfg2Register>
34181756:	2800      	cmp	r0, #0
34181758:	d1cc      	bne.n	341816f4 <XSPI_NOR_EnterDOPIMode.constprop.0+0x10>
3418175a:	f89d 300c 	ldrb.w	r3, [sp, #12]
3418175e:	2b02      	cmp	r3, #2
34181760:	d0ca      	beq.n	341816f8 <XSPI_NOR_EnterDOPIMode.constprop.0+0x14>
34181762:	e7c7      	b.n	341816f4 <XSPI_NOR_EnterDOPIMode.constprop.0+0x10>
34181764:	341c0160 	.word	0x341c0160
34181768:	341c0164 	.word	0x341c0164

3418176c <MX_XSPI_NOR_Init>:
3418176c:	2301      	movs	r3, #1
3418176e:	4a0f      	ldr	r2, [pc, #60]	@ (341817ac <MX_XSPI_NOR_Init+0x40>)
34181770:	f04f 0c02 	mov.w	ip, #2
34181774:	e9c0 2300 	strd	r2, r3, [r0]
34181778:	680b      	ldr	r3, [r1, #0]
3418177a:	684a      	ldr	r2, [r1, #4]
3418177c:	6103      	str	r3, [r0, #16]
3418177e:	2300      	movs	r3, #0
34181780:	6242      	str	r2, [r0, #36]	@ 0x24
34181782:	62c3      	str	r3, [r0, #44]	@ 0x2c
34181784:	688a      	ldr	r2, [r1, #8]
34181786:	e9c0 c305 	strd	ip, r3, [r0, #20]
3418178a:	61c3      	str	r3, [r0, #28]
3418178c:	6303      	str	r3, [r0, #48]	@ 0x30
3418178e:	6083      	str	r3, [r0, #8]
34181790:	6203      	str	r3, [r0, #32]
34181792:	68cb      	ldr	r3, [r1, #12]
34181794:	6282      	str	r2, [r0, #40]	@ 0x28
34181796:	2b01      	cmp	r3, #1
34181798:	f04f 7380 	mov.w	r3, #16777216	@ 0x1000000
3418179c:	60c3      	str	r3, [r0, #12]
3418179e:	bf04      	itt	eq
341817a0:	f04f 5380 	moveq.w	r3, #268435456	@ 0x10000000
341817a4:	62c3      	streq	r3, [r0, #44]	@ 0x2c
341817a6:	f005 baab 	b.w	34186d00 <HAL_XSPI_Init>
341817aa:	bf00      	nop
341817ac:	5802a000 	.word	0x5802a000

341817b0 <BSP_XSPI_NOR_EnableMemoryMappedMode>:
341817b0:	4601      	mov	r1, r0
341817b2:	b510      	push	{r4, lr}
341817b4:	b9b0      	cbnz	r0, 341817e4 <BSP_XSPI_NOR_EnableMemoryMappedMode+0x34>
341817b6:	4c0d      	ldr	r4, [pc, #52]	@ (341817ec <BSP_XSPI_NOR_EnableMemoryMappedMode+0x3c>)
341817b8:	480d      	ldr	r0, [pc, #52]	@ (341817f0 <BSP_XSPI_NOR_EnableMemoryMappedMode+0x40>)
341817ba:	f005 fd25 	bl	34187208 <HAL_XSPI_SetClockPrescaler>
341817be:	78a3      	ldrb	r3, [r4, #2]
341817c0:	7861      	ldrb	r1, [r4, #1]
341817c2:	b95b      	cbnz	r3, 341817dc <BSP_XSPI_NOR_EnableMemoryMappedMode+0x2c>
341817c4:	2201      	movs	r2, #1
341817c6:	480a      	ldr	r0, [pc, #40]	@ (341817f0 <BSP_XSPI_NOR_EnableMemoryMappedMode+0x40>)
341817c8:	f7ff fc87 	bl	341810da <MX66UW1G45G_EnableSTRMemoryMappedMode>
341817cc:	b110      	cbz	r0, 341817d4 <BSP_XSPI_NOR_EnableMemoryMappedMode+0x24>
341817ce:	f06f 0004 	mvn.w	r0, #4
341817d2:	bd10      	pop	{r4, pc}
341817d4:	2302      	movs	r3, #2
341817d6:	2000      	movs	r0, #0
341817d8:	7023      	strb	r3, [r4, #0]
341817da:	e7fa      	b.n	341817d2 <BSP_XSPI_NOR_EnableMemoryMappedMode+0x22>
341817dc:	4804      	ldr	r0, [pc, #16]	@ (341817f0 <BSP_XSPI_NOR_EnableMemoryMappedMode+0x40>)
341817de:	f7ff fce1 	bl	341811a4 <MX66UW1G45G_EnableDTRMemoryMappedMode>
341817e2:	e7f3      	b.n	341817cc <BSP_XSPI_NOR_EnableMemoryMappedMode+0x1c>
341817e4:	f06f 0001 	mvn.w	r0, #1
341817e8:	e7f3      	b.n	341817d2 <BSP_XSPI_NOR_EnableMemoryMappedMode+0x22>
341817ea:	bf00      	nop
341817ec:	341c0160 	.word	0x341c0160
341817f0:	341c0164 	.word	0x341c0164

341817f4 <BSP_XSPI_NOR_ConfigFlash>:
341817f4:	e92d 41ff 	stmdb	sp!, {r0, r1, r2, r3, r4, r5, r6, r7, r8, lr}
341817f8:	460d      	mov	r5, r1
341817fa:	4616      	mov	r6, r2
341817fc:	2800      	cmp	r0, #0
341817fe:	d15d      	bne.n	341818bc <BSP_XSPI_NOR_ConfigFlash+0xc8>
34181800:	4c31      	ldr	r4, [pc, #196]	@ (341818c8 <BSP_XSPI_NOR_ConfigFlash+0xd4>)
34181802:	7823      	ldrb	r3, [r4, #0]
34181804:	2b02      	cmp	r3, #2
34181806:	d05c      	beq.n	341818c2 <BSP_XSPI_NOR_ConfigFlash+0xce>
34181808:	7863      	ldrb	r3, [r4, #1]
3418180a:	2b01      	cmp	r3, #1
3418180c:	d14d      	bne.n	341818aa <BSP_XSPI_NOR_ConfigFlash+0xb6>
3418180e:	2901      	cmp	r1, #1
34181810:	78a2      	ldrb	r2, [r4, #2]
34181812:	d109      	bne.n	34181828 <BSP_XSPI_NOR_ConfigFlash+0x34>
34181814:	4296      	cmp	r6, r2
34181816:	d107      	bne.n	34181828 <BSP_XSPI_NOR_ConfigFlash+0x34>
34181818:	2301      	movs	r3, #1
3418181a:	2000      	movs	r0, #0
3418181c:	7023      	strb	r3, [r4, #0]
3418181e:	7065      	strb	r5, [r4, #1]
34181820:	70a6      	strb	r6, [r4, #2]
34181822:	b004      	add	sp, #16
34181824:	e8bd 81f0 	ldmia.w	sp!, {r4, r5, r6, r7, r8, pc}
34181828:	4f28      	ldr	r7, [pc, #160]	@ (341818cc <BSP_XSPI_NOR_ConfigFlash+0xd8>)
3418182a:	2101      	movs	r1, #1
3418182c:	4638      	mov	r0, r7
3418182e:	f7ff fd09 	bl	34181244 <MX66UW1G45G_WriteEnable>
34181832:	4603      	mov	r3, r0
34181834:	b9b0      	cbnz	r0, 34181864 <BSP_XSPI_NOR_ConfigFlash+0x70>
34181836:	9000      	str	r0, [sp, #0]
34181838:	f8ad 000c 	strh.w	r0, [sp, #12]
3418183c:	78a2      	ldrb	r2, [r4, #2]
3418183e:	4638      	mov	r0, r7
34181840:	7861      	ldrb	r1, [r4, #1]
34181842:	f7ff fde7 	bl	34181414 <MX66UW1G45G_WriteCfg2Register>
34181846:	4680      	mov	r8, r0
34181848:	b960      	cbnz	r0, 34181864 <BSP_XSPI_NOR_ConfigFlash+0x70>
3418184a:	2028      	movs	r0, #40	@ 0x28
3418184c:	f000 fcb0 	bl	341821b0 <HAL_Delay>
34181850:	78a3      	ldrb	r3, [r4, #2]
34181852:	2b01      	cmp	r3, #1
34181854:	d009      	beq.n	3418186a <BSP_XSPI_NOR_ConfigFlash+0x76>
34181856:	2200      	movs	r2, #0
34181858:	481c      	ldr	r0, [pc, #112]	@ (341818cc <BSP_XSPI_NOR_ConfigFlash+0xd8>)
3418185a:	4611      	mov	r1, r2
3418185c:	f7ff fbcf 	bl	34180ffe <MX66UW1G45G_AutoPollingMemReady>
34181860:	4603      	mov	r3, r0
34181862:	b170      	cbz	r0, 34181882 <BSP_XSPI_NOR_ConfigFlash+0x8e>
34181864:	f06f 0004 	mvn.w	r0, #4
34181868:	e7db      	b.n	34181822 <BSP_XSPI_NOR_ConfigFlash+0x2e>
3418186a:	4638      	mov	r0, r7
3418186c:	f8c7 800c 	str.w	r8, [r7, #12]
34181870:	f8c7 802c 	str.w	r8, [r7, #44]	@ 0x2c
34181874:	f005 fa44 	bl	34186d00 <HAL_XSPI_Init>
34181878:	2800      	cmp	r0, #0
3418187a:	d0ec      	beq.n	34181856 <BSP_XSPI_NOR_ConfigFlash+0x62>
3418187c:	f06f 0003 	mvn.w	r0, #3
34181880:	e7cf      	b.n	34181822 <BSP_XSPI_NOR_ConfigFlash+0x2e>
34181882:	aa03      	add	r2, sp, #12
34181884:	4601      	mov	r1, r0
34181886:	9200      	str	r2, [sp, #0]
34181888:	4602      	mov	r2, r0
3418188a:	4810      	ldr	r0, [pc, #64]	@ (341818cc <BSP_XSPI_NOR_ConfigFlash+0xd8>)
3418188c:	f7ff fe1a 	bl	341814c4 <MX66UW1G45G_ReadCfg2Register>
34181890:	2800      	cmp	r0, #0
34181892:	d1e7      	bne.n	34181864 <BSP_XSPI_NOR_ConfigFlash+0x70>
34181894:	f89d 300c 	ldrb.w	r3, [sp, #12]
34181898:	2b00      	cmp	r3, #0
3418189a:	d1e3      	bne.n	34181864 <BSP_XSPI_NOR_ConfigFlash+0x70>
3418189c:	2d01      	cmp	r5, #1
3418189e:	d1bb      	bne.n	34181818 <BSP_XSPI_NOR_ConfigFlash+0x24>
341818a0:	78a3      	ldrb	r3, [r4, #2]
341818a2:	b933      	cbnz	r3, 341818b2 <BSP_XSPI_NOR_ConfigFlash+0xbe>
341818a4:	f7ff ff1e 	bl	341816e4 <XSPI_NOR_EnterDOPIMode.constprop.0>
341818a8:	e005      	b.n	341818b6 <BSP_XSPI_NOR_ConfigFlash+0xc2>
341818aa:	2901      	cmp	r1, #1
341818ac:	d1b4      	bne.n	34181818 <BSP_XSPI_NOR_ConfigFlash+0x24>
341818ae:	2a00      	cmp	r2, #0
341818b0:	d1f8      	bne.n	341818a4 <BSP_XSPI_NOR_ConfigFlash+0xb0>
341818b2:	f7ff fed1 	bl	34181658 <XSPI_NOR_EnterSOPIMode.constprop.0>
341818b6:	2800      	cmp	r0, #0
341818b8:	d0ae      	beq.n	34181818 <BSP_XSPI_NOR_ConfigFlash+0x24>
341818ba:	e7d3      	b.n	34181864 <BSP_XSPI_NOR_ConfigFlash+0x70>
341818bc:	f06f 0001 	mvn.w	r0, #1
341818c0:	e7af      	b.n	34181822 <BSP_XSPI_NOR_ConfigFlash+0x2e>
341818c2:	f06f 0019 	mvn.w	r0, #25
341818c6:	e7ac      	b.n	34181822 <BSP_XSPI_NOR_ConfigFlash+0x2e>
341818c8:	341c0160 	.word	0x341c0160
341818cc:	341c0164 	.word	0x341c0164

341818d0 <BSP_XSPI_NOR_Init>:
341818d0:	e92d 43f0 	stmdb	sp!, {r4, r5, r6, r7, r8, r9, lr}
341818d4:	4688      	mov	r8, r1
341818d6:	4607      	mov	r7, r0
341818d8:	b091      	sub	sp, #68	@ 0x44
341818da:	2800      	cmp	r0, #0
341818dc:	f040 80fa 	bne.w	34181ad4 <BSP_XSPI_NOR_Init+0x204>
341818e0:	4d7f      	ldr	r5, [pc, #508]	@ (34181ae0 <BSP_XSPI_NOR_Init+0x210>)
341818e2:	782b      	ldrb	r3, [r5, #0]
341818e4:	b15b      	cbz	r3, 341818fe <BSP_XSPI_NOR_Init+0x2e>
341818e6:	2400      	movs	r4, #0
341818e8:	2064      	movs	r0, #100	@ 0x64
341818ea:	4b7e      	ldr	r3, [pc, #504]	@ (34181ae4 <BSP_XSPI_NOR_Init+0x214>)
341818ec:	2100      	movs	r1, #0
341818ee:	fb00 3007 	mla	r0, r0, r7, r3
341818f2:	f005 fc89 	bl	34187208 <HAL_XSPI_SetClockPrescaler>
341818f6:	4620      	mov	r0, r4
341818f8:	b011      	add	sp, #68	@ 0x44
341818fa:	e8bd 83f0 	ldmia.w	sp!, {r4, r5, r6, r7, r8, r9, pc}
341818fe:	f44f 5380 	mov.w	r3, #4096	@ 0x1000
34181902:	4a79      	ldr	r2, [pc, #484]	@ (34181ae8 <BSP_XSPI_NOR_Init+0x218>)
34181904:	f44f 2080 	mov.w	r0, #262144	@ 0x40000
34181908:	f8c2 3a60 	str.w	r3, [r2, #2656]	@ 0xa60
3418190c:	f8d2 1260 	ldr.w	r1, [r2, #608]	@ 0x260
34181910:	2409      	movs	r4, #9
34181912:	9102      	str	r1, [sp, #8]
34181914:	9902      	ldr	r1, [sp, #8]
34181916:	f8c2 3a20 	str.w	r3, [r2, #2592]	@ 0xa20
3418191a:	441a      	add	r2, r3
3418191c:	f8c2 3220 	str.w	r3, [r2, #544]	@ 0x220
34181920:	f7ff fe8e 	bl	34181640 <LL_AHB4_GRP1_EnableClock>
34181924:	f000 fe7a 	bl	3418261c <HAL_PWREx_EnableVddIO3>
34181928:	2101      	movs	r1, #1
3418192a:	2002      	movs	r0, #2
3418192c:	f000 fe3e 	bl	341825ac <HAL_PWREx_ConfigVddIORange>
34181930:	f44f 5000 	mov.w	r0, #8192	@ 0x2000
34181934:	f7ff fe84 	bl	34181640 <LL_AHB4_GRP1_EnableClock>
34181938:	2601      	movs	r6, #1
3418193a:	f7ff fe81 	bl	34181640 <LL_AHB4_GRP1_EnableClock>
3418193e:	f04f 0903 	mov.w	r9, #3
34181942:	f7ff fe7d 	bl	34181640 <LL_AHB4_GRP1_EnableClock>
34181946:	f7ff fe7b 	bl	34181640 <LL_AHB4_GRP1_EnableClock>
3418194a:	f7ff fe79 	bl	34181640 <LL_AHB4_GRP1_EnableClock>
3418194e:	f7ff fe77 	bl	34181640 <LL_AHB4_GRP1_EnableClock>
34181952:	f7ff fe75 	bl	34181640 <LL_AHB4_GRP1_EnableClock>
34181956:	f7ff fe73 	bl	34181640 <LL_AHB4_GRP1_EnableClock>
3418195a:	f7ff fe71 	bl	34181640 <LL_AHB4_GRP1_EnableClock>
3418195e:	f7ff fe6f 	bl	34181640 <LL_AHB4_GRP1_EnableClock>
34181962:	f7ff fe6d 	bl	34181640 <LL_AHB4_GRP1_EnableClock>
34181966:	2302      	movs	r3, #2
34181968:	4860      	ldr	r0, [pc, #384]	@ (34181aec <BSP_XSPI_NOR_Init+0x21c>)
3418196a:	a907      	add	r1, sp, #28
3418196c:	e9cd 3307 	strd	r3, r3, [sp, #28]
34181970:	e9cd 6909 	strd	r6, r9, [sp, #36]	@ 0x24
34181974:	940b      	str	r4, [sp, #44]	@ 0x2c
34181976:	f000 fcfb 	bl	34182370 <HAL_GPIO_Init>
3418197a:	485c      	ldr	r0, [pc, #368]	@ (34181aec <BSP_XSPI_NOR_Init+0x21c>)
3418197c:	a907      	add	r1, sp, #28
3418197e:	9607      	str	r6, [sp, #28]
34181980:	940b      	str	r4, [sp, #44]	@ 0x2c
34181982:	f000 fcf5 	bl	34182370 <HAL_GPIO_Init>
34181986:	2340      	movs	r3, #64	@ 0x40
34181988:	4858      	ldr	r0, [pc, #352]	@ (34181aec <BSP_XSPI_NOR_Init+0x21c>)
3418198a:	a907      	add	r1, sp, #28
3418198c:	9307      	str	r3, [sp, #28]
3418198e:	9709      	str	r7, [sp, #36]	@ 0x24
34181990:	940b      	str	r4, [sp, #44]	@ 0x2c
34181992:	f000 fced 	bl	34182370 <HAL_GPIO_Init>
34181996:	2304      	movs	r3, #4
34181998:	4854      	ldr	r0, [pc, #336]	@ (34181aec <BSP_XSPI_NOR_Init+0x21c>)
3418199a:	a907      	add	r1, sp, #28
3418199c:	9307      	str	r3, [sp, #28]
3418199e:	940b      	str	r4, [sp, #44]	@ 0x2c
341819a0:	f000 fce6 	bl	34182370 <HAL_GPIO_Init>
341819a4:	2308      	movs	r3, #8
341819a6:	4851      	ldr	r0, [pc, #324]	@ (34181aec <BSP_XSPI_NOR_Init+0x21c>)
341819a8:	a907      	add	r1, sp, #28
341819aa:	9307      	str	r3, [sp, #28]
341819ac:	940b      	str	r4, [sp, #44]	@ 0x2c
341819ae:	f000 fcdf 	bl	34182370 <HAL_GPIO_Init>
341819b2:	2310      	movs	r3, #16
341819b4:	2620      	movs	r6, #32
341819b6:	484d      	ldr	r0, [pc, #308]	@ (34181aec <BSP_XSPI_NOR_Init+0x21c>)
341819b8:	a907      	add	r1, sp, #28
341819ba:	9307      	str	r3, [sp, #28]
341819bc:	940b      	str	r4, [sp, #44]	@ 0x2c
341819be:	f000 fcd7 	bl	34182370 <HAL_GPIO_Init>
341819c2:	484a      	ldr	r0, [pc, #296]	@ (34181aec <BSP_XSPI_NOR_Init+0x21c>)
341819c4:	a907      	add	r1, sp, #28
341819c6:	9607      	str	r6, [sp, #28]
341819c8:	940b      	str	r4, [sp, #44]	@ 0x2c
341819ca:	f000 fcd1 	bl	34182370 <HAL_GPIO_Init>
341819ce:	f44f 7380 	mov.w	r3, #256	@ 0x100
341819d2:	4846      	ldr	r0, [pc, #280]	@ (34181aec <BSP_XSPI_NOR_Init+0x21c>)
341819d4:	a907      	add	r1, sp, #28
341819d6:	9307      	str	r3, [sp, #28]
341819d8:	940b      	str	r4, [sp, #44]	@ 0x2c
341819da:	f000 fcc9 	bl	34182370 <HAL_GPIO_Init>
341819de:	f44f 7300 	mov.w	r3, #512	@ 0x200
341819e2:	4842      	ldr	r0, [pc, #264]	@ (34181aec <BSP_XSPI_NOR_Init+0x21c>)
341819e4:	a907      	add	r1, sp, #28
341819e6:	9307      	str	r3, [sp, #28]
341819e8:	940b      	str	r4, [sp, #44]	@ 0x2c
341819ea:	f000 fcc1 	bl	34182370 <HAL_GPIO_Init>
341819ee:	f44f 6380 	mov.w	r3, #1024	@ 0x400
341819f2:	483e      	ldr	r0, [pc, #248]	@ (34181aec <BSP_XSPI_NOR_Init+0x21c>)
341819f4:	a907      	add	r1, sp, #28
341819f6:	9307      	str	r3, [sp, #28]
341819f8:	940b      	str	r4, [sp, #44]	@ 0x2c
341819fa:	f000 fcb9 	bl	34182370 <HAL_GPIO_Init>
341819fe:	f44f 6300 	mov.w	r3, #2048	@ 0x800
34181a02:	483a      	ldr	r0, [pc, #232]	@ (34181aec <BSP_XSPI_NOR_Init+0x21c>)
34181a04:	a907      	add	r1, sp, #28
34181a06:	9307      	str	r3, [sp, #28]
34181a08:	940b      	str	r4, [sp, #44]	@ 0x2c
34181a0a:	f000 fcb1 	bl	34182370 <HAL_GPIO_Init>
34181a0e:	a807      	add	r0, sp, #28
34181a10:	f7ff fadc 	bl	34180fcc <MX66UW1G45G_GetFlashInfo>
34181a14:	9b07      	ldr	r3, [sp, #28]
34181a16:	f8cd 9010 	str.w	r9, [sp, #16]
34181a1a:	fa93 f3a3 	rbit	r3, r3
34181a1e:	b10b      	cbz	r3, 34181a24 <BSP_XSPI_NOR_Init+0x154>
34181a20:	fab3 f683 	clz	r6, r3
34181a24:	2300      	movs	r3, #0
34181a26:	9305      	str	r3, [sp, #20]
34181a28:	f898 3001 	ldrb.w	r3, [r8, #1]
34181a2c:	482d      	ldr	r0, [pc, #180]	@ (34181ae4 <BSP_XSPI_NOR_Init+0x214>)
34181a2e:	3e01      	subs	r6, #1
34181a30:	a903      	add	r1, sp, #12
34181a32:	9603      	str	r6, [sp, #12]
34181a34:	9306      	str	r3, [sp, #24]
34181a36:	f7ff fe99 	bl	3418176c <MX_XSPI_NOR_Init>
34181a3a:	4604      	mov	r4, r0
34181a3c:	2800      	cmp	r0, #0
34181a3e:	d14c      	bne.n	34181ada <BSP_XSPI_NOR_Init+0x20a>
34181a40:	78aa      	ldrb	r2, [r5, #2]
34181a42:	7869      	ldrb	r1, [r5, #1]
34181a44:	4827      	ldr	r0, [pc, #156]	@ (34181ae4 <BSP_XSPI_NOR_Init+0x214>)
34181a46:	ab01      	add	r3, sp, #4
34181a48:	f7ff fc84 	bl	34181354 <MX66UW1G45G_ReadStatusRegister>
34181a4c:	b918      	cbnz	r0, 34181a56 <BSP_XSPI_NOR_Init+0x186>
34181a4e:	f89d 4004 	ldrb.w	r4, [sp, #4]
34181a52:	f004 0401 	and.w	r4, r4, #1
34181a56:	2200      	movs	r2, #0
34181a58:	4822      	ldr	r0, [pc, #136]	@ (34181ae4 <BSP_XSPI_NOR_Init+0x214>)
34181a5a:	4611      	mov	r1, r2
34181a5c:	f7ff fd94 	bl	34181588 <MX66UW1G45G_ResetEnable>
34181a60:	4602      	mov	r2, r0
34181a62:	bba0      	cbnz	r0, 34181ace <BSP_XSPI_NOR_Init+0x1fe>
34181a64:	4601      	mov	r1, r0
34181a66:	481f      	ldr	r0, [pc, #124]	@ (34181ae4 <BSP_XSPI_NOR_Init+0x214>)
34181a68:	f7ff fdbb 	bl	341815e2 <MX66UW1G45G_ResetMemory>
34181a6c:	4602      	mov	r2, r0
34181a6e:	bb70      	cbnz	r0, 34181ace <BSP_XSPI_NOR_Init+0x1fe>
34181a70:	2101      	movs	r1, #1
34181a72:	481c      	ldr	r0, [pc, #112]	@ (34181ae4 <BSP_XSPI_NOR_Init+0x214>)
34181a74:	f7ff fd88 	bl	34181588 <MX66UW1G45G_ResetEnable>
34181a78:	4602      	mov	r2, r0
34181a7a:	bb40      	cbnz	r0, 34181ace <BSP_XSPI_NOR_Init+0x1fe>
34181a7c:	2101      	movs	r1, #1
34181a7e:	4819      	ldr	r0, [pc, #100]	@ (34181ae4 <BSP_XSPI_NOR_Init+0x214>)
34181a80:	f7ff fdaf 	bl	341815e2 <MX66UW1G45G_ResetMemory>
34181a84:	bb18      	cbnz	r0, 34181ace <BSP_XSPI_NOR_Init+0x1fe>
34181a86:	2201      	movs	r2, #1
34181a88:	4816      	ldr	r0, [pc, #88]	@ (34181ae4 <BSP_XSPI_NOR_Init+0x214>)
34181a8a:	4611      	mov	r1, r2
34181a8c:	f7ff fd7c 	bl	34181588 <MX66UW1G45G_ResetEnable>
34181a90:	b9e8      	cbnz	r0, 34181ace <BSP_XSPI_NOR_Init+0x1fe>
34181a92:	2201      	movs	r2, #1
34181a94:	4813      	ldr	r0, [pc, #76]	@ (34181ae4 <BSP_XSPI_NOR_Init+0x214>)
34181a96:	4611      	mov	r1, r2
34181a98:	f7ff fda3 	bl	341815e2 <MX66UW1G45G_ResetMemory>
34181a9c:	b9b8      	cbnz	r0, 34181ace <BSP_XSPI_NOR_Init+0x1fe>
34181a9e:	2301      	movs	r3, #1
34181aa0:	429c      	cmp	r4, r3
34181aa2:	702b      	strb	r3, [r5, #0]
34181aa4:	7068      	strb	r0, [r5, #1]
34181aa6:	70a8      	strb	r0, [r5, #2]
34181aa8:	d102      	bne.n	34181ab0 <BSP_XSPI_NOR_Init+0x1e0>
34181aaa:	2064      	movs	r0, #100	@ 0x64
34181aac:	f000 fb80 	bl	341821b0 <HAL_Delay>
34181ab0:	78aa      	ldrb	r2, [r5, #2]
34181ab2:	7869      	ldrb	r1, [r5, #1]
34181ab4:	480b      	ldr	r0, [pc, #44]	@ (34181ae4 <BSP_XSPI_NOR_Init+0x214>)
34181ab6:	f7ff faa2 	bl	34180ffe <MX66UW1G45G_AutoPollingMemReady>
34181aba:	b940      	cbnz	r0, 34181ace <BSP_XSPI_NOR_Init+0x1fe>
34181abc:	f898 2001 	ldrb.w	r2, [r8, #1]
34181ac0:	f898 1000 	ldrb.w	r1, [r8]
34181ac4:	f7ff fe96 	bl	341817f4 <BSP_XSPI_NOR_ConfigFlash>
34181ac8:	2800      	cmp	r0, #0
34181aca:	f43f af0c 	beq.w	341818e6 <BSP_XSPI_NOR_Init+0x16>
34181ace:	f06f 0404 	mvn.w	r4, #4
34181ad2:	e709      	b.n	341818e8 <BSP_XSPI_NOR_Init+0x18>
34181ad4:	f06f 0401 	mvn.w	r4, #1
34181ad8:	e706      	b.n	341818e8 <BSP_XSPI_NOR_Init+0x18>
34181ada:	f06f 0403 	mvn.w	r4, #3
34181ade:	e703      	b.n	341818e8 <BSP_XSPI_NOR_Init+0x18>
34181ae0:	341c0160 	.word	0x341c0160
34181ae4:	341c0164 	.word	0x341c0164
34181ae8:	56028000 	.word	0x56028000
34181aec:	56023400 	.word	0x56023400

34181af0 <MX_XSPI_RAM_Init>:
34181af0:	b538      	push	{r3, r4, r5, lr}
34181af2:	4604      	mov	r4, r0
34181af4:	460d      	mov	r5, r1
34181af6:	2000      	movs	r0, #0
34181af8:	f44f 0180 	mov.w	r1, #4194304	@ 0x400000
34181afc:	f004 fb3e 	bl	3418617c <HAL_RCCEx_GetPeriphCLKFreq>
34181b00:	2308      	movs	r3, #8
34181b02:	4a13      	ldr	r2, [pc, #76]	@ (34181b50 <MX_XSPI_RAM_Init+0x60>)
34181b04:	68a9      	ldr	r1, [r5, #8]
34181b06:	e9c4 2300 	strd	r2, r3, [r4]
34181b0a:	2200      	movs	r2, #0
34181b0c:	f04f 63c0 	mov.w	r3, #100663296	@ 0x6000000
34181b10:	e9c4 2302 	strd	r2, r3, [r4, #8]
34181b14:	682b      	ldr	r3, [r5, #0]
34181b16:	63e2      	str	r2, [r4, #60]	@ 0x3c
34181b18:	6123      	str	r3, [r4, #16]
34181b1a:	2305      	movs	r3, #5
34181b1c:	6163      	str	r3, [r4, #20]
34181b1e:	686b      	ldr	r3, [r5, #4]
34181b20:	f04f 5580 	mov.w	r5, #268435456	@ 0x10000000
34181b24:	62a1      	str	r1, [r4, #40]	@ 0x28
34181b26:	210b      	movs	r1, #11
34181b28:	6263      	str	r3, [r4, #36]	@ 0x24
34181b2a:	fbb0 f3f3 	udiv	r3, r0, r3
34181b2e:	e9c4 510b 	strd	r5, r1, [r4, #44]	@ 0x2c
34181b32:	4908      	ldr	r1, [pc, #32]	@ (34181b54 <MX_XSPI_RAM_Init+0x64>)
34181b34:	005b      	lsls	r3, r3, #1
34181b36:	fbb3 f3f1 	udiv	r3, r3, r1
34181b3a:	3b04      	subs	r3, #4
34181b3c:	4620      	mov	r0, r4
34181b3e:	61e2      	str	r2, [r4, #28]
34181b40:	61a2      	str	r2, [r4, #24]
34181b42:	63a3      	str	r3, [r4, #56]	@ 0x38
34181b44:	6222      	str	r2, [r4, #32]
34181b46:	e8bd 4038 	ldmia.w	sp!, {r3, r4, r5, lr}
34181b4a:	f005 b8d9 	b.w	34186d00 <HAL_XSPI_Init>
34181b4e:	bf00      	nop
34181b50:	58025000 	.word	0x58025000
34181b54:	000f4240 	.word	0x000f4240

34181b58 <BSP_XSPI_RAM_Init>:
34181b58:	e92d 4ff0 	stmdb	sp!, {r4, r5, r6, r7, r8, r9, sl, fp, lr}
34181b5c:	4604      	mov	r4, r0
34181b5e:	b08b      	sub	sp, #44	@ 0x2c
34181b60:	2800      	cmp	r0, #0
34181b62:	f040 810d 	bne.w	34181d80 <BSP_XSPI_RAM_Init+0x228>
34181b66:	4e88      	ldr	r6, [pc, #544]	@ (34181d88 <BSP_XSPI_RAM_Init+0x230>)
34181b68:	7833      	ldrb	r3, [r6, #0]
34181b6a:	9301      	str	r3, [sp, #4]
34181b6c:	2b00      	cmp	r3, #0
34181b6e:	f040 80f0 	bne.w	34181d52 <BSP_XSPI_RAM_Init+0x1fa>
34181b72:	f44f 2080 	mov.w	r0, #262144	@ 0x40000
34181b76:	f7ff fd63 	bl	34181640 <LL_AHB4_GRP1_EnableClock>
34181b7a:	f000 fd47 	bl	3418260c <HAL_PWREx_EnableVddIO2>
34181b7e:	2101      	movs	r1, #1
34181b80:	f04f 0820 	mov.w	r8, #32
34181b84:	f44f 5700 	mov.w	r7, #8192	@ 0x2000
34181b88:	4608      	mov	r0, r1
34181b8a:	f000 fd0f 	bl	341825ac <HAL_PWREx_ConfigVddIORange>
34181b8e:	4b7f      	ldr	r3, [pc, #508]	@ (34181d8c <BSP_XSPI_RAM_Init+0x234>)
34181b90:	2409      	movs	r4, #9
34181b92:	f8c3 8a60 	str.w	r8, [r3, #2656]	@ 0xa60
34181b96:	f8d3 2260 	ldr.w	r2, [r3, #608]	@ 0x260
34181b9a:	2501      	movs	r5, #1
34181b9c:	9204      	str	r2, [sp, #16]
34181b9e:	9a04      	ldr	r2, [sp, #16]
34181ba0:	4a7b      	ldr	r2, [pc, #492]	@ (34181d90 <BSP_XSPI_RAM_Init+0x238>)
34181ba2:	f8c3 8a20 	str.w	r8, [r3, #2592]	@ 0xa20
34181ba6:	f8c2 8220 	str.w	r8, [r2, #544]	@ 0x220
34181baa:	f8c3 7a60 	str.w	r7, [r3, #2656]	@ 0xa60
34181bae:	f8d3 1260 	ldr.w	r1, [r3, #608]	@ 0x260
34181bb2:	f04f 0903 	mov.w	r9, #3
34181bb6:	9103      	str	r1, [sp, #12]
34181bb8:	9903      	ldr	r1, [sp, #12]
34181bba:	f8c3 7a20 	str.w	r7, [r3, #2592]	@ 0xa20
34181bbe:	f8c2 7220 	str.w	r7, [r2, #544]	@ 0x220
34181bc2:	2202      	movs	r2, #2
34181bc4:	f44f 4080 	mov.w	r0, #16384	@ 0x4000
34181bc8:	f7ff fd3a 	bl	34181640 <LL_AHB4_GRP1_EnableClock>
34181bcc:	f7ff fd38 	bl	34181640 <LL_AHB4_GRP1_EnableClock>
34181bd0:	f7ff fd36 	bl	34181640 <LL_AHB4_GRP1_EnableClock>
34181bd4:	f44f 4000 	mov.w	r0, #32768	@ 0x8000
34181bd8:	f7ff fd32 	bl	34181640 <LL_AHB4_GRP1_EnableClock>
34181bdc:	a905      	add	r1, sp, #20
34181bde:	f7ff fd2f 	bl	34181640 <LL_AHB4_GRP1_EnableClock>
34181be2:	f7ff fd2d 	bl	34181640 <LL_AHB4_GRP1_EnableClock>
34181be6:	f7ff fd2b 	bl	34181640 <LL_AHB4_GRP1_EnableClock>
34181bea:	f7ff fd29 	bl	34181640 <LL_AHB4_GRP1_EnableClock>
34181bee:	f7ff fd27 	bl	34181640 <LL_AHB4_GRP1_EnableClock>
34181bf2:	f7ff fd25 	bl	34181640 <LL_AHB4_GRP1_EnableClock>
34181bf6:	f7ff fd23 	bl	34181640 <LL_AHB4_GRP1_EnableClock>
34181bfa:	4866      	ldr	r0, [pc, #408]	@ (34181d94 <BSP_XSPI_RAM_Init+0x23c>)
34181bfc:	e9cd 5205 	strd	r5, r2, [sp, #20]
34181c00:	e9cd 9408 	strd	r9, r4, [sp, #32]
34181c04:	9507      	str	r5, [sp, #28]
34181c06:	f000 fbb3 	bl	34182370 <HAL_GPIO_Init>
34181c0a:	2304      	movs	r3, #4
34181c0c:	f04f 0b08 	mov.w	fp, #8
34181c10:	f04f 0a10 	mov.w	sl, #16
34181c14:	485f      	ldr	r0, [pc, #380]	@ (34181d94 <BSP_XSPI_RAM_Init+0x23c>)
34181c16:	a905      	add	r1, sp, #20
34181c18:	9305      	str	r3, [sp, #20]
34181c1a:	9409      	str	r4, [sp, #36]	@ 0x24
34181c1c:	9507      	str	r5, [sp, #28]
34181c1e:	f000 fba7 	bl	34182370 <HAL_GPIO_Init>
34181c22:	485c      	ldr	r0, [pc, #368]	@ (34181d94 <BSP_XSPI_RAM_Init+0x23c>)
34181c24:	a905      	add	r1, sp, #20
34181c26:	9409      	str	r4, [sp, #36]	@ 0x24
34181c28:	f8cd b014 	str.w	fp, [sp, #20]
34181c2c:	9507      	str	r5, [sp, #28]
34181c2e:	f000 fb9f 	bl	34182370 <HAL_GPIO_Init>
34181c32:	4858      	ldr	r0, [pc, #352]	@ (34181d94 <BSP_XSPI_RAM_Init+0x23c>)
34181c34:	a905      	add	r1, sp, #20
34181c36:	9409      	str	r4, [sp, #36]	@ 0x24
34181c38:	f8cd a014 	str.w	sl, [sp, #20]
34181c3c:	9507      	str	r5, [sp, #28]
34181c3e:	f000 fb97 	bl	34182370 <HAL_GPIO_Init>
34181c42:	4855      	ldr	r0, [pc, #340]	@ (34181d98 <BSP_XSPI_RAM_Init+0x240>)
34181c44:	a905      	add	r1, sp, #20
34181c46:	9409      	str	r4, [sp, #36]	@ 0x24
34181c48:	9505      	str	r5, [sp, #20]
34181c4a:	9507      	str	r5, [sp, #28]
34181c4c:	f000 fb90 	bl	34182370 <HAL_GPIO_Init>
34181c50:	2202      	movs	r2, #2
34181c52:	4851      	ldr	r0, [pc, #324]	@ (34181d98 <BSP_XSPI_RAM_Init+0x240>)
34181c54:	a905      	add	r1, sp, #20
34181c56:	9205      	str	r2, [sp, #20]
34181c58:	9409      	str	r4, [sp, #36]	@ 0x24
34181c5a:	f000 fb89 	bl	34182370 <HAL_GPIO_Init>
34181c5e:	2304      	movs	r3, #4
34181c60:	484d      	ldr	r0, [pc, #308]	@ (34181d98 <BSP_XSPI_RAM_Init+0x240>)
34181c62:	a905      	add	r1, sp, #20
34181c64:	9305      	str	r3, [sp, #20]
34181c66:	9409      	str	r4, [sp, #36]	@ 0x24
34181c68:	f000 fb82 	bl	34182370 <HAL_GPIO_Init>
34181c6c:	484a      	ldr	r0, [pc, #296]	@ (34181d98 <BSP_XSPI_RAM_Init+0x240>)
34181c6e:	a905      	add	r1, sp, #20
34181c70:	9409      	str	r4, [sp, #36]	@ 0x24
34181c72:	f8cd b014 	str.w	fp, [sp, #20]
34181c76:	f000 fb7b 	bl	34182370 <HAL_GPIO_Init>
34181c7a:	4847      	ldr	r0, [pc, #284]	@ (34181d98 <BSP_XSPI_RAM_Init+0x240>)
34181c7c:	a905      	add	r1, sp, #20
34181c7e:	9409      	str	r4, [sp, #36]	@ 0x24
34181c80:	f8cd a014 	str.w	sl, [sp, #20]
34181c84:	f000 fb74 	bl	34182370 <HAL_GPIO_Init>
34181c88:	4843      	ldr	r0, [pc, #268]	@ (34181d98 <BSP_XSPI_RAM_Init+0x240>)
34181c8a:	a905      	add	r1, sp, #20
34181c8c:	9409      	str	r4, [sp, #36]	@ 0x24
34181c8e:	f8cd 8014 	str.w	r8, [sp, #20]
34181c92:	f000 fb6d 	bl	34182370 <HAL_GPIO_Init>
34181c96:	2340      	movs	r3, #64	@ 0x40
34181c98:	483f      	ldr	r0, [pc, #252]	@ (34181d98 <BSP_XSPI_RAM_Init+0x240>)
34181c9a:	a905      	add	r1, sp, #20
34181c9c:	9409      	str	r4, [sp, #36]	@ 0x24
34181c9e:	9305      	str	r3, [sp, #20]
34181ca0:	f000 fb66 	bl	34182370 <HAL_GPIO_Init>
34181ca4:	2380      	movs	r3, #128	@ 0x80
34181ca6:	483c      	ldr	r0, [pc, #240]	@ (34181d98 <BSP_XSPI_RAM_Init+0x240>)
34181ca8:	a905      	add	r1, sp, #20
34181caa:	9409      	str	r4, [sp, #36]	@ 0x24
34181cac:	9305      	str	r3, [sp, #20]
34181cae:	f000 fb5f 	bl	34182370 <HAL_GPIO_Init>
34181cb2:	f44f 7380 	mov.w	r3, #256	@ 0x100
34181cb6:	4838      	ldr	r0, [pc, #224]	@ (34181d98 <BSP_XSPI_RAM_Init+0x240>)
34181cb8:	a905      	add	r1, sp, #20
34181cba:	9409      	str	r4, [sp, #36]	@ 0x24
34181cbc:	9305      	str	r3, [sp, #20]
34181cbe:	f000 fb57 	bl	34182370 <HAL_GPIO_Init>
34181cc2:	f44f 7300 	mov.w	r3, #512	@ 0x200
34181cc6:	4834      	ldr	r0, [pc, #208]	@ (34181d98 <BSP_XSPI_RAM_Init+0x240>)
34181cc8:	a905      	add	r1, sp, #20
34181cca:	9409      	str	r4, [sp, #36]	@ 0x24
34181ccc:	9305      	str	r3, [sp, #20]
34181cce:	f000 fb4f 	bl	34182370 <HAL_GPIO_Init>
34181cd2:	f44f 6380 	mov.w	r3, #1024	@ 0x400
34181cd6:	4830      	ldr	r0, [pc, #192]	@ (34181d98 <BSP_XSPI_RAM_Init+0x240>)
34181cd8:	a905      	add	r1, sp, #20
34181cda:	9409      	str	r4, [sp, #36]	@ 0x24
34181cdc:	9305      	str	r3, [sp, #20]
34181cde:	f000 fb47 	bl	34182370 <HAL_GPIO_Init>
34181ce2:	f44f 6300 	mov.w	r3, #2048	@ 0x800
34181ce6:	482c      	ldr	r0, [pc, #176]	@ (34181d98 <BSP_XSPI_RAM_Init+0x240>)
34181ce8:	a905      	add	r1, sp, #20
34181cea:	9409      	str	r4, [sp, #36]	@ 0x24
34181cec:	9305      	str	r3, [sp, #20]
34181cee:	f000 fb3f 	bl	34182370 <HAL_GPIO_Init>
34181cf2:	f44f 5380 	mov.w	r3, #4096	@ 0x1000
34181cf6:	4828      	ldr	r0, [pc, #160]	@ (34181d98 <BSP_XSPI_RAM_Init+0x240>)
34181cf8:	a905      	add	r1, sp, #20
34181cfa:	9305      	str	r3, [sp, #20]
34181cfc:	9409      	str	r4, [sp, #36]	@ 0x24
34181cfe:	f000 fb37 	bl	34182370 <HAL_GPIO_Init>
34181d02:	4825      	ldr	r0, [pc, #148]	@ (34181d98 <BSP_XSPI_RAM_Init+0x240>)
34181d04:	a905      	add	r1, sp, #20
34181d06:	9409      	str	r4, [sp, #36]	@ 0x24
34181d08:	9705      	str	r7, [sp, #20]
34181d0a:	f000 fb31 	bl	34182370 <HAL_GPIO_Init>
34181d0e:	f44f 4380 	mov.w	r3, #16384	@ 0x4000
34181d12:	4821      	ldr	r0, [pc, #132]	@ (34181d98 <BSP_XSPI_RAM_Init+0x240>)
34181d14:	a905      	add	r1, sp, #20
34181d16:	9409      	str	r4, [sp, #36]	@ 0x24
34181d18:	9305      	str	r3, [sp, #20]
34181d1a:	f000 fb29 	bl	34182370 <HAL_GPIO_Init>
34181d1e:	f44f 4300 	mov.w	r3, #32768	@ 0x8000
34181d22:	481d      	ldr	r0, [pc, #116]	@ (34181d98 <BSP_XSPI_RAM_Init+0x240>)
34181d24:	a905      	add	r1, sp, #20
34181d26:	9409      	str	r4, [sp, #36]	@ 0x24
34181d28:	9305      	str	r3, [sp, #20]
34181d2a:	f000 fb21 	bl	34182370 <HAL_GPIO_Init>
34181d2e:	2318      	movs	r3, #24
34181d30:	9305      	str	r3, [sp, #20]
34181d32:	9b01      	ldr	r3, [sp, #4]
34181d34:	4819      	ldr	r0, [pc, #100]	@ (34181d9c <BSP_XSPI_RAM_Init+0x244>)
34181d36:	a905      	add	r1, sp, #20
34181d38:	f8cd 9018 	str.w	r9, [sp, #24]
34181d3c:	9307      	str	r3, [sp, #28]
34181d3e:	f7ff fed7 	bl	34181af0 <MX_XSPI_RAM_Init>
34181d42:	2800      	cmp	r0, #0
34181d44:	bf14      	ite	ne
34181d46:	f06f 0403 	mvnne.w	r4, #3
34181d4a:	2400      	moveq	r4, #0
34181d4c:	7035      	strb	r5, [r6, #0]
34181d4e:	7075      	strb	r5, [r6, #1]
34181d50:	70b5      	strb	r5, [r6, #2]
34181d52:	2230      	movs	r2, #48	@ 0x30
34181d54:	2100      	movs	r1, #0
34181d56:	4811      	ldr	r0, [pc, #68]	@ (34181d9c <BSP_XSPI_RAM_Init+0x244>)
34181d58:	f7ff f900 	bl	34180f5c <APS256XX_WriteReg>
34181d5c:	2220      	movs	r2, #32
34181d5e:	2104      	movs	r1, #4
34181d60:	480e      	ldr	r0, [pc, #56]	@ (34181d9c <BSP_XSPI_RAM_Init+0x244>)
34181d62:	f7ff f8fb 	bl	34180f5c <APS256XX_WriteReg>
34181d66:	2108      	movs	r1, #8
34181d68:	2240      	movs	r2, #64	@ 0x40
34181d6a:	480c      	ldr	r0, [pc, #48]	@ (34181d9c <BSP_XSPI_RAM_Init+0x244>)
34181d6c:	f7ff f8f6 	bl	34180f5c <APS256XX_WriteReg>
34181d70:	2100      	movs	r1, #0
34181d72:	480a      	ldr	r0, [pc, #40]	@ (34181d9c <BSP_XSPI_RAM_Init+0x244>)
34181d74:	f005 fa48 	bl	34187208 <HAL_XSPI_SetClockPrescaler>
34181d78:	4620      	mov	r0, r4
34181d7a:	b00b      	add	sp, #44	@ 0x2c
34181d7c:	e8bd 8ff0 	ldmia.w	sp!, {r4, r5, r6, r7, r8, r9, sl, fp, pc}
34181d80:	f06f 0401 	mvn.w	r4, #1
34181d84:	e7f8      	b.n	34181d78 <BSP_XSPI_RAM_Init+0x220>
34181d86:	bf00      	nop
34181d88:	341c00f8 	.word	0x341c00f8
34181d8c:	56028000 	.word	0x56028000
34181d90:	56029000 	.word	0x56029000
34181d94:	56023800 	.word	0x56023800
34181d98:	56023c00 	.word	0x56023c00
34181d9c:	341c00fc 	.word	0x341c00fc

34181da0 <BSP_XSPI_RAM_EnableMemoryMappedMode>:
34181da0:	b507      	push	{r0, r1, r2, lr}
34181da2:	b960      	cbnz	r0, 34181dbe <BSP_XSPI_RAM_EnableMemoryMappedMode+0x1e>
34181da4:	2207      	movs	r2, #7
34181da6:	9000      	str	r0, [sp, #0]
34181da8:	2301      	movs	r3, #1
34181daa:	4611      	mov	r1, r2
34181dac:	4805      	ldr	r0, [pc, #20]	@ (34181dc4 <BSP_XSPI_RAM_EnableMemoryMappedMode+0x24>)
34181dae:	f7ff f87a 	bl	34180ea6 <APS256XX_EnableMemoryMappedMode>
34181db2:	2800      	cmp	r0, #0
34181db4:	bf18      	it	ne
34181db6:	f06f 0003 	mvnne.w	r0, #3
34181dba:	b003      	add	sp, #12
34181dbc:	bd00      	pop	{pc}
34181dbe:	f06f 0001 	mvn.w	r0, #1
34181dc2:	e7fa      	b.n	34181dba <BSP_XSPI_RAM_EnableMemoryMappedMode+0x1a>
34181dc4:	341c00fc 	.word	0x341c00fc

34181dc8 <SystemInit>:
34181dc8:	4b4e      	ldr	r3, [pc, #312]	@ (34181f04 <SystemInit+0x13c>)
34181dca:	4a4f      	ldr	r2, [pc, #316]	@ (34181f08 <SystemInit+0x140>)
34181dcc:	b570      	push	{r4, r5, r6, lr}
34181dce:	2001      	movs	r0, #1
34181dd0:	609a      	str	r2, [r3, #8]
34181dd2:	2502      	movs	r5, #2
34181dd4:	2200      	movs	r2, #0
34181dd6:	494d      	ldr	r1, [pc, #308]	@ (34181f0c <SystemInit+0x144>)
34181dd8:	f501 5480 	add.w	r4, r1, #4096	@ 0x1000
34181ddc:	f8c1 0a18 	str.w	r0, [r1, #2584]	@ 0xa18
34181de0:	f8c4 0218 	str.w	r0, [r4, #536]	@ 0x218
34181de4:	f8c4 0258 	str.w	r0, [r4, #600]	@ 0x258
34181de8:	f8c3 20d8 	str.w	r2, [r3, #216]	@ 0xd8
34181dec:	f8c3 20dc 	str.w	r2, [r3, #220]	@ 0xdc
34181df0:	f8c3 20e0 	str.w	r2, [r3, #224]	@ 0xe0
34181df4:	f8c3 00d8 	str.w	r0, [r3, #216]	@ 0xd8
34181df8:	f8c3 20dc 	str.w	r2, [r3, #220]	@ 0xdc
34181dfc:	f8c3 20e0 	str.w	r2, [r3, #224]	@ 0xe0
34181e00:	f8c3 50d8 	str.w	r5, [r3, #216]	@ 0xd8
34181e04:	2503      	movs	r5, #3
34181e06:	f8c3 20dc 	str.w	r2, [r3, #220]	@ 0xdc
34181e0a:	f8c3 20e0 	str.w	r2, [r3, #224]	@ 0xe0
34181e0e:	f8c3 50d8 	str.w	r5, [r3, #216]	@ 0xd8
34181e12:	2504      	movs	r5, #4
34181e14:	f8c3 20dc 	str.w	r2, [r3, #220]	@ 0xdc
34181e18:	f8c3 20e0 	str.w	r2, [r3, #224]	@ 0xe0
34181e1c:	f8c3 50d8 	str.w	r5, [r3, #216]	@ 0xd8
34181e20:	2505      	movs	r5, #5
34181e22:	f8c3 20dc 	str.w	r2, [r3, #220]	@ 0xdc
34181e26:	f8c3 20e0 	str.w	r2, [r3, #224]	@ 0xe0
34181e2a:	f8c3 50d8 	str.w	r5, [r3, #216]	@ 0xd8
34181e2e:	2506      	movs	r5, #6
34181e30:	f8c3 20dc 	str.w	r2, [r3, #220]	@ 0xdc
34181e34:	f8c3 20e0 	str.w	r2, [r3, #224]	@ 0xe0
34181e38:	f8c3 50d8 	str.w	r5, [r3, #216]	@ 0xd8
34181e3c:	2507      	movs	r5, #7
34181e3e:	f8c3 20dc 	str.w	r2, [r3, #220]	@ 0xdc
34181e42:	f8c3 20e0 	str.w	r2, [r3, #224]	@ 0xe0
34181e46:	f8c3 50d8 	str.w	r5, [r3, #216]	@ 0xd8
34181e4a:	f8c3 20dc 	str.w	r2, [r3, #220]	@ 0xdc
34181e4e:	f8c3 20e0 	str.w	r2, [r3, #224]	@ 0xe0
34181e52:	f8c1 0a78 	str.w	r0, [r1, #2680]	@ 0xa78
34181e56:	4d2e      	ldr	r5, [pc, #184]	@ (34181f10 <SystemInit+0x148>)
34181e58:	f8d1 2278 	ldr.w	r2, [r1, #632]	@ 0x278
34181e5c:	689a      	ldr	r2, [r3, #8]
34181e5e:	612a      	str	r2, [r5, #16]
34181e60:	4a2c      	ldr	r2, [pc, #176]	@ (34181f14 <SystemInit+0x14c>)
34181e62:	6b56      	ldr	r6, [r2, #52]	@ 0x34
34181e64:	f446 7680 	orr.w	r6, r6, #256	@ 0x100
34181e68:	6356      	str	r6, [r2, #52]	@ 0x34
34181e6a:	6b96      	ldr	r6, [r2, #56]	@ 0x38
34181e6c:	f446 7680 	orr.w	r6, r6, #256	@ 0x100
34181e70:	6396      	str	r6, [r2, #56]	@ 0x38
34181e72:	6bd6      	ldr	r6, [r2, #60]	@ 0x3c
34181e74:	f446 7640 	orr.w	r6, r6, #768	@ 0x300
34181e78:	63d6      	str	r6, [r2, #60]	@ 0x3c
34181e7a:	f240 2687 	movw	r6, #647	@ 0x287
34181e7e:	656e      	str	r6, [r5, #84]	@ 0x54
34181e80:	65ee      	str	r6, [r5, #92]	@ 0x5c
34181e82:	646e      	str	r6, [r5, #68]	@ 0x44
34181e84:	64ee      	str	r6, [r5, #76]	@ 0x4c
34181e86:	666e      	str	r6, [r5, #100]	@ 0x64
34181e88:	6bd6      	ldr	r6, [r2, #60]	@ 0x3c
34181e8a:	f446 5680 	orr.w	r6, r6, #4096	@ 0x1000
34181e8e:	63d6      	str	r6, [r2, #60]	@ 0x3c
34181e90:	6bd6      	ldr	r6, [r2, #60]	@ 0x3c
34181e92:	f046 0610 	orr.w	r6, r6, #16
34181e96:	63d6      	str	r6, [r2, #60]	@ 0x3c
34181e98:	6bd2      	ldr	r2, [r2, #60]	@ 0x3c
34181e9a:	f8d1 2274 	ldr.w	r2, [r1, #628]	@ 0x274
34181e9e:	f442 4200 	orr.w	r2, r2, #32768	@ 0x8000
34181ea2:	f8c1 2274 	str.w	r2, [r1, #628]	@ 0x274
34181ea6:	f8d1 2278 	ldr.w	r2, [r1, #632]	@ 0x278
34181eaa:	f042 0210 	orr.w	r2, r2, #16
34181eae:	f8c1 2278 	str.w	r2, [r1, #632]	@ 0x278
34181eb2:	f8d1 2278 	ldr.w	r2, [r1, #632]	@ 0x278
34181eb6:	f8d1 2278 	ldr.w	r2, [r1, #632]	@ 0x278
34181eba:	f022 0210 	bic.w	r2, r2, #16
34181ebe:	f8c1 2278 	str.w	r2, [r1, #632]	@ 0x278
34181ec2:	f44f 5240 	mov.w	r2, #12288	@ 0x3000
34181ec6:	f8c1 2a20 	str.w	r2, [r1, #2592]	@ 0xa20
34181eca:	f8c4 2220 	str.w	r2, [r4, #544]	@ 0x220
34181ece:	2240      	movs	r2, #64	@ 0x40
34181ed0:	f8c1 0a24 	str.w	r0, [r1, #2596]	@ 0xa24
34181ed4:	f8c4 0224 	str.w	r0, [r4, #548]	@ 0x224
34181ed8:	f8c4 0264 	str.w	r0, [r4, #612]	@ 0x264
34181edc:	f8c4 225c 	str.w	r2, [r4, #604]	@ 0x25c
34181ee0:	692a      	ldr	r2, [r5, #16]
34181ee2:	f8c4 0278 	str.w	r0, [r4, #632]	@ 0x278
34181ee6:	f8d3 2088 	ldr.w	r2, [r3, #136]	@ 0x88
34181eea:	f442 0270 	orr.w	r2, r2, #15728640	@ 0xf00000
34181eee:	f8c3 2088 	str.w	r2, [r3, #136]	@ 0x88
34181ef2:	4a09      	ldr	r2, [pc, #36]	@ (34181f18 <SystemInit+0x150>)
34181ef4:	f8d2 3088 	ldr.w	r3, [r2, #136]	@ 0x88
34181ef8:	f443 0370 	orr.w	r3, r3, #15728640	@ 0xf00000
34181efc:	f8c2 3088 	str.w	r3, [r2, #136]	@ 0x88
34181f00:	bd70      	pop	{r4, r5, r6, pc}
34181f02:	bf00      	nop
34181f04:	e000ed00 	.word	0xe000ed00
34181f08:	34180400 	.word	0x34180400
34181f0c:	56028000 	.word	0x56028000
34181f10:	56008000 	.word	0x56008000
34181f14:	56024800 	.word	0x56024800
34181f18:	e002ed00 	.word	0xe002ed00

34181f1c <SystemCoreClockUpdate>:
34181f1c:	4b6e      	ldr	r3, [pc, #440]	@ (341820d8 <SystemCoreClockUpdate+0x1bc>)
34181f1e:	b5f0      	push	{r4, r5, r6, r7, lr}
34181f20:	6a1a      	ldr	r2, [r3, #32]
34181f22:	f402 1240 	and.w	r2, r2, #3145728	@ 0x300000
34181f26:	f5b2 1f00 	cmp.w	r2, #2097152	@ 0x200000
34181f2a:	f000 80b9 	beq.w	341820a0 <SystemCoreClockUpdate+0x184>
34181f2e:	d806      	bhi.n	34181f3e <SystemCoreClockUpdate+0x22>
34181f30:	b962      	cbnz	r2, 34181f4c <SystemCoreClockUpdate+0x30>
34181f32:	6c9a      	ldr	r2, [r3, #72]	@ 0x48
34181f34:	4b69      	ldr	r3, [pc, #420]	@ (341820dc <SystemCoreClockUpdate+0x1c0>)
34181f36:	f3c2 12c1 	ubfx	r2, r2, #7, #2
34181f3a:	40d3      	lsrs	r3, r2
34181f3c:	e003      	b.n	34181f46 <SystemCoreClockUpdate+0x2a>
34181f3e:	f5b2 1f40 	cmp.w	r2, #3145728	@ 0x300000
34181f42:	d009      	beq.n	34181f58 <SystemCoreClockUpdate+0x3c>
34181f44:	2300      	movs	r3, #0
34181f46:	4a66      	ldr	r2, [pc, #408]	@ (341820e0 <SystemCoreClockUpdate+0x1c4>)
34181f48:	6013      	str	r3, [r2, #0]
34181f4a:	bdf0      	pop	{r4, r5, r6, r7, pc}
34181f4c:	6c5b      	ldr	r3, [r3, #68]	@ 0x44
34181f4e:	059f      	lsls	r7, r3, #22
34181f50:	f100 80a8 	bmi.w	341820a4 <SystemCoreClockUpdate+0x188>
34181f54:	4b63      	ldr	r3, [pc, #396]	@ (341820e4 <SystemCoreClockUpdate+0x1c8>)
34181f56:	e7f6      	b.n	34181f46 <SystemCoreClockUpdate+0x2a>
34181f58:	f8d3 20c4 	ldr.w	r2, [r3, #196]	@ 0xc4
34181f5c:	f002 5240 	and.w	r2, r2, #805306368	@ 0x30000000
34181f60:	f1b2 5f80 	cmp.w	r2, #268435456	@ 0x10000000
34181f64:	d029      	beq.n	34181fba <SystemCoreClockUpdate+0x9e>
34181f66:	f1b2 5f00 	cmp.w	r2, #536870912	@ 0x20000000
34181f6a:	d035      	beq.n	34181fd8 <SystemCoreClockUpdate+0xbc>
34181f6c:	2a00      	cmp	r2, #0
34181f6e:	d142      	bne.n	34181ff6 <SystemCoreClockUpdate+0xda>
34181f70:	f8d3 1080 	ldr.w	r1, [r3, #128]	@ 0x80
34181f74:	010e      	lsls	r6, r1, #4
34181f76:	f001 40e0 	and.w	r0, r1, #1879048192	@ 0x70000000
34181f7a:	f100 809a 	bmi.w	341820b2 <SystemCoreClockUpdate+0x196>
34181f7e:	f8d3 4084 	ldr.w	r4, [r3, #132]	@ 0x84
34181f82:	f8d3 2088 	ldr.w	r2, [r3, #136]	@ 0x88
34181f86:	f3c1 250b 	ubfx	r5, r1, #8, #12
34181f8a:	f024 447f 	bic.w	r4, r4, #4278190080	@ 0xff000000
34181f8e:	4607      	mov	r7, r0
34181f90:	f1b7 5f00 	cmp.w	r7, #536870912	@ 0x20000000
34181f94:	f3c2 66c2 	ubfx	r6, r2, #27, #3
34181f98:	f3c1 5005 	ubfx	r0, r1, #20, #6
34181f9c:	f3c2 6202 	ubfx	r2, r2, #24, #3
34181fa0:	d04e      	beq.n	34182040 <SystemCoreClockUpdate+0x124>
34181fa2:	f200 8081 	bhi.w	341820a8 <SystemCoreClockUpdate+0x18c>
34181fa6:	2f00      	cmp	r7, #0
34181fa8:	d03a      	beq.n	34182020 <SystemCoreClockUpdate+0x104>
34181faa:	2700      	movs	r7, #0
34181fac:	4b4a      	ldr	r3, [pc, #296]	@ (341820d8 <SystemCoreClockUpdate+0x1bc>)
34181fae:	6c5b      	ldr	r3, [r3, #68]	@ 0x44
34181fb0:	059b      	lsls	r3, r3, #22
34181fb2:	bf54      	ite	pl
34181fb4:	4b4b      	ldrpl	r3, [pc, #300]	@ (341820e4 <SystemCoreClockUpdate+0x1c8>)
34181fb6:	4b4c      	ldrmi	r3, [pc, #304]	@ (341820e8 <SystemCoreClockUpdate+0x1cc>)
34181fb8:	e038      	b.n	3418202c <SystemCoreClockUpdate+0x110>
34181fba:	f8d3 1090 	ldr.w	r1, [r3, #144]	@ 0x90
34181fbe:	010d      	lsls	r5, r1, #4
34181fc0:	f001 40e0 	and.w	r0, r1, #1879048192	@ 0x70000000
34181fc4:	d475      	bmi.n	341820b2 <SystemCoreClockUpdate+0x196>
34181fc6:	f8d3 4094 	ldr.w	r4, [r3, #148]	@ 0x94
34181fca:	f3c1 250b 	ubfx	r5, r1, #8, #12
34181fce:	f8d3 2098 	ldr.w	r2, [r3, #152]	@ 0x98
34181fd2:	f024 447f 	bic.w	r4, r4, #4278190080	@ 0xff000000
34181fd6:	e7da      	b.n	34181f8e <SystemCoreClockUpdate+0x72>
34181fd8:	f8d3 10a0 	ldr.w	r1, [r3, #160]	@ 0xa0
34181fdc:	010c      	lsls	r4, r1, #4
34181fde:	f001 40e0 	and.w	r0, r1, #1879048192	@ 0x70000000
34181fe2:	d466      	bmi.n	341820b2 <SystemCoreClockUpdate+0x196>
34181fe4:	f8d3 40a4 	ldr.w	r4, [r3, #164]	@ 0xa4
34181fe8:	f3c1 250b 	ubfx	r5, r1, #8, #12
34181fec:	f8d3 20a8 	ldr.w	r2, [r3, #168]	@ 0xa8
34181ff0:	f024 447f 	bic.w	r4, r4, #4278190080	@ 0xff000000
34181ff4:	e7cb      	b.n	34181f8e <SystemCoreClockUpdate+0x72>
34181ff6:	f8d3 10b0 	ldr.w	r1, [r3, #176]	@ 0xb0
34181ffa:	010a      	lsls	r2, r1, #4
34181ffc:	f001 40e0 	and.w	r0, r1, #1879048192	@ 0x70000000
34182000:	d457      	bmi.n	341820b2 <SystemCoreClockUpdate+0x196>
34182002:	f8d3 40b4 	ldr.w	r4, [r3, #180]	@ 0xb4
34182006:	f3c1 250b 	ubfx	r5, r1, #8, #12
3418200a:	f8d3 20b8 	ldr.w	r2, [r3, #184]	@ 0xb8
3418200e:	f024 447f 	bic.w	r4, r4, #4278190080	@ 0xff000000
34182012:	e7bc      	b.n	34181f8e <SystemCoreClockUpdate+0x72>
34182014:	4602      	mov	r2, r0
34182016:	4606      	mov	r6, r0
34182018:	4604      	mov	r4, r0
3418201a:	4605      	mov	r5, r0
3418201c:	f04f 6700 	mov.w	r7, #134217728	@ 0x8000000
34182020:	4b2d      	ldr	r3, [pc, #180]	@ (341820d8 <SystemCoreClockUpdate+0x1bc>)
34182022:	6c99      	ldr	r1, [r3, #72]	@ 0x48
34182024:	4b2d      	ldr	r3, [pc, #180]	@ (341820dc <SystemCoreClockUpdate+0x1c0>)
34182026:	f3c1 11c1 	ubfx	r1, r1, #7, #2
3418202a:	40cb      	lsrs	r3, r1
3418202c:	b14f      	cbz	r7, 34182042 <SystemCoreClockUpdate+0x126>
3418202e:	4a2a      	ldr	r2, [pc, #168]	@ (341820d8 <SystemCoreClockUpdate+0x1bc>)
34182030:	f8d2 20c4 	ldr.w	r2, [r2, #196]	@ 0xc4
34182034:	f3c2 4207 	ubfx	r2, r2, #16, #8
34182038:	3201      	adds	r2, #1
3418203a:	fbb3 f3f2 	udiv	r3, r3, r2
3418203e:	e782      	b.n	34181f46 <SystemCoreClockUpdate+0x2a>
34182040:	4b2a      	ldr	r3, [pc, #168]	@ (341820ec <SystemCoreClockUpdate+0x1d0>)
34182042:	ee07 4a10 	vmov	s14, r4
34182046:	eeb8 6ac7 	vcvt.f32.s32	s12, s14
3418204a:	ee07 5a10 	vmov	s14, r5
3418204e:	ee07 3a90 	vmov	s15, r3
34182052:	eddf 6a27 	vldr	s13, [pc, #156]	@ 341820f0 <SystemCoreClockUpdate+0x1d4>
34182056:	eeb8 7ac7 	vcvt.f32.s32	s14, s14
3418205a:	eef8 7ae7 	vcvt.f32.s32	s15, s15
3418205e:	eea6 7a26 	vfma.f32	s14, s12, s13
34182062:	ee67 7a87 	vmul.f32	s15, s15, s14
34182066:	ee07 0a10 	vmov	s14, r0
3418206a:	eeb8 7ac7 	vcvt.f32.s32	s14, s14
3418206e:	eec7 6a87 	vdiv.f32	s13, s15, s14
34182072:	ee07 6a90 	vmov	s15, r6
34182076:	eeb8 7ae7 	vcvt.f32.s32	s14, s15
3418207a:	ee07 2a90 	vmov	s15, r2
3418207e:	eef8 7ae7 	vcvt.f32.s32	s15, s15
34182082:	ee27 7a27 	vmul.f32	s14, s14, s15
34182086:	eec6 7a87 	vdiv.f32	s15, s13, s14
3418208a:	eefc 7ae7 	vcvt.u32.f32	s15, s15
3418208e:	ee17 3a90 	vmov	r3, s15
34182092:	e7cc      	b.n	3418202e <SystemCoreClockUpdate+0x112>
34182094:	2300      	movs	r3, #0
34182096:	e7d4      	b.n	34182042 <SystemCoreClockUpdate+0x126>
34182098:	4b14      	ldr	r3, [pc, #80]	@ (341820ec <SystemCoreClockUpdate+0x1d0>)
3418209a:	e7c8      	b.n	3418202e <SystemCoreClockUpdate+0x112>
3418209c:	2300      	movs	r3, #0
3418209e:	e7c6      	b.n	3418202e <SystemCoreClockUpdate+0x112>
341820a0:	4b12      	ldr	r3, [pc, #72]	@ (341820ec <SystemCoreClockUpdate+0x1d0>)
341820a2:	e750      	b.n	34181f46 <SystemCoreClockUpdate+0x2a>
341820a4:	4b10      	ldr	r3, [pc, #64]	@ (341820e8 <SystemCoreClockUpdate+0x1cc>)
341820a6:	e74e      	b.n	34181f46 <SystemCoreClockUpdate+0x2a>
341820a8:	f1b7 5f40 	cmp.w	r7, #805306368	@ 0x30000000
341820ac:	d1f2      	bne.n	34182094 <SystemCoreClockUpdate+0x178>
341820ae:	4b11      	ldr	r3, [pc, #68]	@ (341820f4 <SystemCoreClockUpdate+0x1d8>)
341820b0:	e7c7      	b.n	34182042 <SystemCoreClockUpdate+0x126>
341820b2:	f1b0 5f00 	cmp.w	r0, #536870912	@ 0x20000000
341820b6:	d0ef      	beq.n	34182098 <SystemCoreClockUpdate+0x17c>
341820b8:	d809      	bhi.n	341820ce <SystemCoreClockUpdate+0x1b2>
341820ba:	2800      	cmp	r0, #0
341820bc:	d0aa      	beq.n	34182014 <SystemCoreClockUpdate+0xf8>
341820be:	2200      	movs	r2, #0
341820c0:	f04f 6700 	mov.w	r7, #134217728	@ 0x8000000
341820c4:	4616      	mov	r6, r2
341820c6:	4614      	mov	r4, r2
341820c8:	4615      	mov	r5, r2
341820ca:	4610      	mov	r0, r2
341820cc:	e76e      	b.n	34181fac <SystemCoreClockUpdate+0x90>
341820ce:	f1b0 5f40 	cmp.w	r0, #805306368	@ 0x30000000
341820d2:	d1e3      	bne.n	3418209c <SystemCoreClockUpdate+0x180>
341820d4:	4b07      	ldr	r3, [pc, #28]	@ (341820f4 <SystemCoreClockUpdate+0x1d8>)
341820d6:	e7aa      	b.n	3418202e <SystemCoreClockUpdate+0x112>
341820d8:	56028000 	.word	0x56028000
341820dc:	03d09000 	.word	0x03d09000
341820e0:	341c0000 	.word	0x341c0000
341820e4:	003d0900 	.word	0x003d0900
341820e8:	00f42400 	.word	0x00f42400
341820ec:	016e3600 	.word	0x016e3600
341820f0:	33800000 	.word	0x33800000
341820f4:	00bb8000 	.word	0x00bb8000

341820f8 <__acle_se_SECURE_SystemCoreClockUpdate>:
341820f8:	ed6d cf81 	vstr	FPCXTNS, [sp, #-4]!
341820fc:	b500      	push	{lr}
341820fe:	f7ff ff0d 	bl	34181f1c <SystemCoreClockUpdate>
34182102:	4b05      	ldr	r3, [pc, #20]	@ (34182118 <__acle_se_SECURE_SystemCoreClockUpdate+0x20>)
34182104:	f85d eb04 	ldr.w	lr, [sp], #4
34182108:	6818      	ldr	r0, [r3, #0]
3418210a:	ec9f 0a10 	vscclrm	{s0-s15, VPR}
3418210e:	e89f 900e 	clrm	{r1, r2, r3, ip, APSR}
34182112:	ecfd cf81 	vldr	FPCXTNS, [sp], #4
34182116:	4774      	bxns	lr
34182118:	341c0000 	.word	0x341c0000

3418211c <HAL_InitTick>:
3418211c:	b538      	push	{r3, r4, r5, lr}
3418211e:	4b0f      	ldr	r3, [pc, #60]	@ (3418215c <HAL_InitTick+0x40>)
34182120:	4605      	mov	r5, r0
34182122:	781a      	ldrb	r2, [r3, #0]
34182124:	b90a      	cbnz	r2, 3418212a <HAL_InitTick+0xe>
34182126:	2001      	movs	r0, #1
34182128:	bd38      	pop	{r3, r4, r5, pc}
3418212a:	f44f 737a 	mov.w	r3, #1000	@ 0x3e8
3418212e:	fbb3 f3f2 	udiv	r3, r3, r2
34182132:	4a0b      	ldr	r2, [pc, #44]	@ (34182160 <HAL_InitTick+0x44>)
34182134:	6810      	ldr	r0, [r2, #0]
34182136:	fbb0 f0f3 	udiv	r0, r0, r3
3418213a:	f000 f895 	bl	34182268 <HAL_SYSTICK_Config>
3418213e:	4604      	mov	r4, r0
34182140:	2800      	cmp	r0, #0
34182142:	d1f0      	bne.n	34182126 <HAL_InitTick+0xa>
34182144:	2d0f      	cmp	r5, #15
34182146:	d8ee      	bhi.n	34182126 <HAL_InitTick+0xa>
34182148:	4602      	mov	r2, r0
3418214a:	4629      	mov	r1, r5
3418214c:	f04f 30ff 	mov.w	r0, #4294967295
34182150:	f000 f85a 	bl	34182208 <HAL_NVIC_SetPriority>
34182154:	4b03      	ldr	r3, [pc, #12]	@ (34182164 <HAL_InitTick+0x48>)
34182156:	4620      	mov	r0, r4
34182158:	601d      	str	r5, [r3, #0]
3418215a:	e7e5      	b.n	34182128 <HAL_InitTick+0xc>
3418215c:	341c0004 	.word	0x341c0004
34182160:	341c0000 	.word	0x341c0000
34182164:	341c0008 	.word	0x341c0008

34182168 <HAL_Init>:
34182168:	b510      	push	{r4, lr}
3418216a:	2003      	movs	r0, #3
3418216c:	f000 f83a 	bl	341821e4 <HAL_NVIC_SetPriorityGrouping>
34182170:	f7ff fed4 	bl	34181f1c <SystemCoreClockUpdate>
34182174:	200f      	movs	r0, #15
34182176:	f7ff ffd1 	bl	3418211c <HAL_InitTick>
3418217a:	4604      	mov	r4, r0
3418217c:	b918      	cbnz	r0, 34182186 <HAL_Init+0x1e>
3418217e:	f7fe fda7 	bl	34180cd0 <HAL_MspInit>
34182182:	4620      	mov	r0, r4
34182184:	bd10      	pop	{r4, pc}
34182186:	2401      	movs	r4, #1
34182188:	e7fb      	b.n	34182182 <HAL_Init+0x1a>
	...

3418218c <HAL_IncTick>:
3418218c:	4a03      	ldr	r2, [pc, #12]	@ (3418219c <HAL_IncTick+0x10>)
3418218e:	4b04      	ldr	r3, [pc, #16]	@ (341821a0 <HAL_IncTick+0x14>)
34182190:	6811      	ldr	r1, [r2, #0]
34182192:	781b      	ldrb	r3, [r3, #0]
34182194:	440b      	add	r3, r1
34182196:	6013      	str	r3, [r2, #0]
34182198:	4770      	bx	lr
3418219a:	bf00      	nop
3418219c:	341c01c8 	.word	0x341c01c8
341821a0:	341c0004 	.word	0x341c0004

341821a4 <HAL_GetTick>:
341821a4:	4b01      	ldr	r3, [pc, #4]	@ (341821ac <HAL_GetTick+0x8>)
341821a6:	6818      	ldr	r0, [r3, #0]
341821a8:	4770      	bx	lr
341821aa:	bf00      	nop
341821ac:	341c01c8 	.word	0x341c01c8

341821b0 <HAL_Delay>:
341821b0:	b538      	push	{r3, r4, r5, lr}
341821b2:	4604      	mov	r4, r0
341821b4:	f7ff fff6 	bl	341821a4 <HAL_GetTick>
341821b8:	4605      	mov	r5, r0
341821ba:	1c63      	adds	r3, r4, #1
341821bc:	bf1e      	ittt	ne
341821be:	4b04      	ldrne	r3, [pc, #16]	@ (341821d0 <HAL_Delay+0x20>)
341821c0:	781b      	ldrbne	r3, [r3, #0]
341821c2:	18e4      	addne	r4, r4, r3
341821c4:	f7ff ffee 	bl	341821a4 <HAL_GetTick>
341821c8:	1b43      	subs	r3, r0, r5
341821ca:	42a3      	cmp	r3, r4
341821cc:	d3fa      	bcc.n	341821c4 <HAL_Delay+0x14>
341821ce:	bd38      	pop	{r3, r4, r5, pc}
341821d0:	341c0004 	.word	0x341c0004

341821d4 <HAL_SuspendTick>:
341821d4:	f04f 22e0 	mov.w	r2, #3758153728	@ 0xe000e000
341821d8:	6913      	ldr	r3, [r2, #16]
341821da:	f023 0302 	bic.w	r3, r3, #2
341821de:	6113      	str	r3, [r2, #16]
341821e0:	4770      	bx	lr
	...

341821e4 <HAL_NVIC_SetPriorityGrouping>:
341821e4:	4907      	ldr	r1, [pc, #28]	@ (34182204 <HAL_NVIC_SetPriorityGrouping+0x20>)
341821e6:	0203      	lsls	r3, r0, #8
341821e8:	68ca      	ldr	r2, [r1, #12]
341821ea:	f403 63e0 	and.w	r3, r3, #1792	@ 0x700
341821ee:	f422 62e0 	bic.w	r2, r2, #1792	@ 0x700
341821f2:	0412      	lsls	r2, r2, #16
341821f4:	0c12      	lsrs	r2, r2, #16
341821f6:	4313      	orrs	r3, r2
341821f8:	f043 63bf 	orr.w	r3, r3, #100139008	@ 0x5f80000
341821fc:	f443 3300 	orr.w	r3, r3, #131072	@ 0x20000
34182200:	60cb      	str	r3, [r1, #12]
34182202:	4770      	bx	lr
34182204:	e000ed00 	.word	0xe000ed00

34182208 <HAL_NVIC_SetPriority>:
34182208:	4b15      	ldr	r3, [pc, #84]	@ (34182260 <HAL_NVIC_SetPriority+0x58>)
3418220a:	b530      	push	{r4, r5, lr}
3418220c:	68dc      	ldr	r4, [r3, #12]
3418220e:	f3c4 2402 	ubfx	r4, r4, #8, #3
34182212:	f1c4 0307 	rsb	r3, r4, #7
34182216:	1d25      	adds	r5, r4, #4
34182218:	2b04      	cmp	r3, #4
3418221a:	bf28      	it	cs
3418221c:	2304      	movcs	r3, #4
3418221e:	2d06      	cmp	r5, #6
34182220:	f04f 35ff 	mov.w	r5, #4294967295
34182224:	bf94      	ite	ls
34182226:	2400      	movls	r4, #0
34182228:	3c03      	subhi	r4, #3
3418222a:	fa05 f303 	lsl.w	r3, r5, r3
3418222e:	ea21 0303 	bic.w	r3, r1, r3
34182232:	40a5      	lsls	r5, r4
34182234:	ea22 0205 	bic.w	r2, r2, r5
34182238:	40a3      	lsls	r3, r4
3418223a:	2800      	cmp	r0, #0
3418223c:	ea43 0302 	orr.w	r3, r3, r2
34182240:	bfac      	ite	ge
34182242:	f100 4060 	addge.w	r0, r0, #3758096384	@ 0xe0000000
34182246:	4a07      	ldrlt	r2, [pc, #28]	@ (34182264 <HAL_NVIC_SetPriority+0x5c>)
34182248:	ea4f 1303 	mov.w	r3, r3, lsl #4
3418224c:	b2db      	uxtb	r3, r3
3418224e:	bfab      	itete	ge
34182250:	f500 4061 	addge.w	r0, r0, #57600	@ 0xe100
34182254:	f000 000f 	andlt.w	r0, r0, #15
34182258:	f880 3300 	strbge.w	r3, [r0, #768]	@ 0x300
3418225c:	5413      	strblt	r3, [r2, r0]
3418225e:	bd30      	pop	{r4, r5, pc}
34182260:	e000ed00 	.word	0xe000ed00
34182264:	e000ed14 	.word	0xe000ed14

34182268 <HAL_SYSTICK_Config>:
34182268:	3801      	subs	r0, #1
3418226a:	f1b0 7f80 	cmp.w	r0, #16777216	@ 0x1000000
3418226e:	d20b      	bcs.n	34182288 <HAL_SYSTICK_Config+0x20>
34182270:	f04f 23e0 	mov.w	r3, #3758153728	@ 0xe000e000
34182274:	21f0      	movs	r1, #240	@ 0xf0
34182276:	4a05      	ldr	r2, [pc, #20]	@ (3418228c <HAL_SYSTICK_Config+0x24>)
34182278:	6158      	str	r0, [r3, #20]
3418227a:	f882 1023 	strb.w	r1, [r2, #35]	@ 0x23
3418227e:	2000      	movs	r0, #0
34182280:	2207      	movs	r2, #7
34182282:	6198      	str	r0, [r3, #24]
34182284:	611a      	str	r2, [r3, #16]
34182286:	4770      	bx	lr
34182288:	2001      	movs	r0, #1
3418228a:	4770      	bx	lr
3418228c:	e000ed00 	.word	0xe000ed00

34182290 <HAL_DMA_Abort>:
34182290:	b538      	push	{r3, r4, r5, lr}
34182292:	4604      	mov	r4, r0
34182294:	f7ff ff86 	bl	341821a4 <HAL_GetTick>
34182298:	4605      	mov	r5, r0
3418229a:	b144      	cbz	r4, 341822ae <HAL_DMA_Abort+0x1e>
3418229c:	f894 3054 	ldrb.w	r3, [r4, #84]	@ 0x54
341822a0:	2b02      	cmp	r3, #2
341822a2:	d006      	beq.n	341822b2 <HAL_DMA_Abort+0x22>
341822a4:	2320      	movs	r3, #32
341822a6:	65a3      	str	r3, [r4, #88]	@ 0x58
341822a8:	2300      	movs	r3, #0
341822aa:	f884 304c 	strb.w	r3, [r4, #76]	@ 0x4c
341822ae:	2001      	movs	r0, #1
341822b0:	bd38      	pop	{r3, r4, r5, pc}
341822b2:	6822      	ldr	r2, [r4, #0]
341822b4:	6953      	ldr	r3, [r2, #20]
341822b6:	f043 0304 	orr.w	r3, r3, #4
341822ba:	6153      	str	r3, [r2, #20]
341822bc:	2305      	movs	r3, #5
341822be:	f884 3054 	strb.w	r3, [r4, #84]	@ 0x54
341822c2:	6823      	ldr	r3, [r4, #0]
341822c4:	691a      	ldr	r2, [r3, #16]
341822c6:	0490      	lsls	r0, r2, #18
341822c8:	d519      	bpl.n	341822fe <HAL_DMA_Abort+0x6e>
341822ca:	695a      	ldr	r2, [r3, #20]
341822cc:	6d21      	ldr	r1, [r4, #80]	@ 0x50
341822ce:	f042 0202 	orr.w	r2, r2, #2
341822d2:	615a      	str	r2, [r3, #20]
341822d4:	2204      	movs	r2, #4
341822d6:	f884 2054 	strb.w	r2, [r4, #84]	@ 0x54
341822da:	f44f 42fe 	mov.w	r2, #32512	@ 0x7f00
341822de:	60da      	str	r2, [r3, #12]
341822e0:	2201      	movs	r2, #1
341822e2:	0609      	lsls	r1, r1, #24
341822e4:	bf48      	it	mi
341822e6:	6f61      	ldrmi	r1, [r4, #116]	@ 0x74
341822e8:	f884 2054 	strb.w	r2, [r4, #84]	@ 0x54
341822ec:	f04f 0000 	mov.w	r0, #0
341822f0:	bf42      	ittt	mi
341822f2:	730a      	strbmi	r2, [r1, #12]
341822f4:	2200      	movmi	r2, #0
341822f6:	649a      	strmi	r2, [r3, #72]	@ 0x48
341822f8:	f884 004c 	strb.w	r0, [r4, #76]	@ 0x4c
341822fc:	e7d8      	b.n	341822b0 <HAL_DMA_Abort+0x20>
341822fe:	f7ff ff51 	bl	341821a4 <HAL_GetTick>
34182302:	1b40      	subs	r0, r0, r5
34182304:	2805      	cmp	r0, #5
34182306:	d9dc      	bls.n	341822c2 <HAL_DMA_Abort+0x32>
34182308:	6da3      	ldr	r3, [r4, #88]	@ 0x58
3418230a:	f043 0310 	orr.w	r3, r3, #16
3418230e:	65a3      	str	r3, [r4, #88]	@ 0x58
34182310:	2303      	movs	r3, #3
34182312:	f884 3054 	strb.w	r3, [r4, #84]	@ 0x54
34182316:	6d23      	ldr	r3, [r4, #80]	@ 0x50
34182318:	061d      	lsls	r5, r3, #24
3418231a:	d5c5      	bpl.n	341822a8 <HAL_DMA_Abort+0x18>
3418231c:	2201      	movs	r2, #1
3418231e:	6f63      	ldr	r3, [r4, #116]	@ 0x74
34182320:	731a      	strb	r2, [r3, #12]
34182322:	e7c1      	b.n	341822a8 <HAL_DMA_Abort+0x18>

34182324 <HAL_EXTI_ConfigLineAttributes>:
34182324:	b530      	push	{r4, r5, lr}
34182326:	f240 2502 	movw	r5, #514	@ 0x202
3418232a:	2301      	movs	r3, #1
3418232c:	f000 021f 	and.w	r2, r0, #31
34182330:	4c0d      	ldr	r4, [pc, #52]	@ (34182368 <HAL_EXTI_ConfigLineAttributes+0x44>)
34182332:	f3c0 4001 	ubfx	r0, r0, #16, #2
34182336:	0140      	lsls	r0, r0, #5
34182338:	438d      	bics	r5, r1
3418233a:	fa03 f302 	lsl.w	r3, r3, r2
3418233e:	5902      	ldr	r2, [r0, r4]
34182340:	d10a      	bne.n	34182358 <HAL_EXTI_ConfigLineAttributes+0x34>
34182342:	431a      	orrs	r2, r3
34182344:	f240 1501 	movw	r5, #257	@ 0x101
34182348:	5102      	str	r2, [r0, r4]
3418234a:	4c08      	ldr	r4, [pc, #32]	@ (3418236c <HAL_EXTI_ConfigLineAttributes+0x48>)
3418234c:	438d      	bics	r5, r1
3418234e:	5902      	ldr	r2, [r0, r4]
34182350:	d106      	bne.n	34182360 <HAL_EXTI_ConfigLineAttributes+0x3c>
34182352:	431a      	orrs	r2, r3
34182354:	5102      	str	r2, [r0, r4]
34182356:	bd30      	pop	{r4, r5, pc}
34182358:	058d      	lsls	r5, r1, #22
3418235a:	bf48      	it	mi
3418235c:	439a      	bicmi	r2, r3
3418235e:	e7f1      	b.n	34182344 <HAL_EXTI_ConfigLineAttributes+0x20>
34182360:	05c9      	lsls	r1, r1, #23
34182362:	bf48      	it	mi
34182364:	439a      	bicmi	r2, r3
34182366:	e7f5      	b.n	34182354 <HAL_EXTI_ConfigLineAttributes+0x30>
34182368:	56025018 	.word	0x56025018
3418236c:	56025014 	.word	0x56025014

34182370 <HAL_GPIO_Init>:
34182370:	e92d 4ff0 	stmdb	sp!, {r4, r5, r6, r7, r8, r9, sl, fp, lr}
34182374:	2300      	movs	r3, #0
34182376:	f04f 0a0f 	mov.w	sl, #15
3418237a:	4c6d      	ldr	r4, [pc, #436]	@ (34182530 <HAL_GPIO_Init+0x1c0>)
3418237c:	680a      	ldr	r2, [r1, #0]
3418237e:	fa32 f503 	lsrs.w	r5, r2, r3
34182382:	d101      	bne.n	34182388 <HAL_GPIO_Init+0x18>
34182384:	e8bd 8ff0 	ldmia.w	sp!, {r4, r5, r6, r7, r8, r9, sl, fp, pc}
34182388:	2501      	movs	r5, #1
3418238a:	fa05 f903 	lsl.w	r9, r5, r3
3418238e:	ea19 0202 	ands.w	r2, r9, r2
34182392:	f000 80b5 	beq.w	34182500 <HAL_GPIO_Init+0x190>
34182396:	2703      	movs	r7, #3
34182398:	684e      	ldr	r6, [r1, #4]
3418239a:	ea4f 0843 	mov.w	r8, r3, lsl #1
3418239e:	f006 0503 	and.w	r5, r6, #3
341823a2:	fa07 fe08 	lsl.w	lr, r7, r8
341823a6:	1e6f      	subs	r7, r5, #1
341823a8:	2f01      	cmp	r7, #1
341823aa:	ea6f 0e0e 	mvn.w	lr, lr
341823ae:	f8d1 c008 	ldr.w	ip, [r1, #8]
341823b2:	d831      	bhi.n	34182418 <HAL_GPIO_Init+0xa8>
341823b4:	6887      	ldr	r7, [r0, #8]
341823b6:	ea07 0b0e 	and.w	fp, r7, lr
341823ba:	68cf      	ldr	r7, [r1, #12]
341823bc:	fa07 f708 	lsl.w	r7, r7, r8
341823c0:	ea47 070b 	orr.w	r7, r7, fp
341823c4:	6087      	str	r7, [r0, #8]
341823c6:	6847      	ldr	r7, [r0, #4]
341823c8:	ea27 0909 	bic.w	r9, r7, r9
341823cc:	f3c6 1700 	ubfx	r7, r6, #4, #1
341823d0:	409f      	lsls	r7, r3
341823d2:	ea47 0709 	orr.w	r7, r7, r9
341823d6:	6047      	str	r7, [r0, #4]
341823d8:	68c7      	ldr	r7, [r0, #12]
341823da:	fa0c fc08 	lsl.w	ip, ip, r8
341823de:	ea07 070e 	and.w	r7, r7, lr
341823e2:	ea4c 0707 	orr.w	r7, ip, r7
341823e6:	2d02      	cmp	r5, #2
341823e8:	60c7      	str	r7, [r0, #12]
341823ea:	d11a      	bne.n	34182422 <HAL_GPIO_Init+0xb2>
341823ec:	ea4f 0cd3 	mov.w	ip, r3, lsr #3
341823f0:	eb00 0c8c 	add.w	ip, r0, ip, lsl #2
341823f4:	f003 0907 	and.w	r9, r3, #7
341823f8:	f8dc 7020 	ldr.w	r7, [ip, #32]
341823fc:	ea4f 0989 	mov.w	r9, r9, lsl #2
34182400:	fa0a fb09 	lsl.w	fp, sl, r9
34182404:	ea27 0b0b 	bic.w	fp, r7, fp
34182408:	690f      	ldr	r7, [r1, #16]
3418240a:	fa07 f709 	lsl.w	r7, r7, r9
3418240e:	ea47 070b 	orr.w	r7, r7, fp
34182412:	f8cc 7020 	str.w	r7, [ip, #32]
34182416:	e004      	b.n	34182422 <HAL_GPIO_Init+0xb2>
34182418:	2d03      	cmp	r5, #3
3418241a:	d1dd      	bne.n	341823d8 <HAL_GPIO_Init+0x68>
3418241c:	f1bc 0f01 	cmp.w	ip, #1
34182420:	d1da      	bne.n	341823d8 <HAL_GPIO_Init+0x68>
34182422:	6807      	ldr	r7, [r0, #0]
34182424:	fa05 f508 	lsl.w	r5, r5, r8
34182428:	ea07 070e 	and.w	r7, r7, lr
3418242c:	433d      	orrs	r5, r7
3418242e:	f416 3f40 	tst.w	r6, #196608	@ 0x30000
34182432:	6005      	str	r5, [r0, #0]
34182434:	d064      	beq.n	34182500 <HAL_GPIO_Init+0x190>
34182436:	f023 0703 	bic.w	r7, r3, #3
3418243a:	f107 47ac 	add.w	r7, r7, #1442840576	@ 0x56000000
3418243e:	f507 3714 	add.w	r7, r7, #151552	@ 0x25000
34182442:	f003 0c03 	and.w	ip, r3, #3
34182446:	6e3d      	ldr	r5, [r7, #96]	@ 0x60
34182448:	ea4f 0ccc 	mov.w	ip, ip, lsl #3
3418244c:	fa0a fe0c 	lsl.w	lr, sl, ip
34182450:	ea25 0e0e 	bic.w	lr, r5, lr
34182454:	4d37      	ldr	r5, [pc, #220]	@ (34182534 <HAL_GPIO_Init+0x1c4>)
34182456:	42a8      	cmp	r0, r5
34182458:	d054      	beq.n	34182504 <HAL_GPIO_Init+0x194>
3418245a:	f505 6580 	add.w	r5, r5, #1024	@ 0x400
3418245e:	42a8      	cmp	r0, r5
34182460:	d052      	beq.n	34182508 <HAL_GPIO_Init+0x198>
34182462:	f505 6580 	add.w	r5, r5, #1024	@ 0x400
34182466:	42a8      	cmp	r0, r5
34182468:	d050      	beq.n	3418250c <HAL_GPIO_Init+0x19c>
3418246a:	f505 6580 	add.w	r5, r5, #1024	@ 0x400
3418246e:	42a8      	cmp	r0, r5
34182470:	d04e      	beq.n	34182510 <HAL_GPIO_Init+0x1a0>
34182472:	f505 6580 	add.w	r5, r5, #1024	@ 0x400
34182476:	42a8      	cmp	r0, r5
34182478:	d04c      	beq.n	34182514 <HAL_GPIO_Init+0x1a4>
3418247a:	f505 6580 	add.w	r5, r5, #1024	@ 0x400
3418247e:	42a8      	cmp	r0, r5
34182480:	d04a      	beq.n	34182518 <HAL_GPIO_Init+0x1a8>
34182482:	f505 6580 	add.w	r5, r5, #1024	@ 0x400
34182486:	42a8      	cmp	r0, r5
34182488:	d048      	beq.n	3418251c <HAL_GPIO_Init+0x1ac>
3418248a:	f505 6580 	add.w	r5, r5, #1024	@ 0x400
3418248e:	42a8      	cmp	r0, r5
34182490:	d046      	beq.n	34182520 <HAL_GPIO_Init+0x1b0>
34182492:	f505 55c0 	add.w	r5, r5, #6144	@ 0x1800
34182496:	42a8      	cmp	r0, r5
34182498:	d044      	beq.n	34182524 <HAL_GPIO_Init+0x1b4>
3418249a:	f505 6580 	add.w	r5, r5, #1024	@ 0x400
3418249e:	42a8      	cmp	r0, r5
341824a0:	d042      	beq.n	34182528 <HAL_GPIO_Init+0x1b8>
341824a2:	f505 6580 	add.w	r5, r5, #1024	@ 0x400
341824a6:	42a8      	cmp	r0, r5
341824a8:	d040      	beq.n	3418252c <HAL_GPIO_Init+0x1bc>
341824aa:	f505 6580 	add.w	r5, r5, #1024	@ 0x400
341824ae:	42a8      	cmp	r0, r5
341824b0:	bf14      	ite	ne
341824b2:	2510      	movne	r5, #16
341824b4:	250b      	moveq	r5, #11
341824b6:	fa05 f50c 	lsl.w	r5, r5, ip
341824ba:	ea45 050e 	orr.w	r5, r5, lr
341824be:	663d      	str	r5, [r7, #96]	@ 0x60
341824c0:	43d7      	mvns	r7, r2
341824c2:	f8d4 5080 	ldr.w	r5, [r4, #128]	@ 0x80
341824c6:	f416 3f80 	tst.w	r6, #65536	@ 0x10000
341824ca:	bf0c      	ite	eq
341824cc:	403d      	andeq	r5, r7
341824ce:	4315      	orrne	r5, r2
341824d0:	f8c4 5080 	str.w	r5, [r4, #128]	@ 0x80
341824d4:	f8d4 5084 	ldr.w	r5, [r4, #132]	@ 0x84
341824d8:	f416 3f00 	tst.w	r6, #131072	@ 0x20000
341824dc:	bf0c      	ite	eq
341824de:	403d      	andeq	r5, r7
341824e0:	4315      	orrne	r5, r2
341824e2:	f8c4 5084 	str.w	r5, [r4, #132]	@ 0x84
341824e6:	6825      	ldr	r5, [r4, #0]
341824e8:	f416 1f80 	tst.w	r6, #1048576	@ 0x100000
341824ec:	bf0c      	ite	eq
341824ee:	403d      	andeq	r5, r7
341824f0:	4315      	orrne	r5, r2
341824f2:	6025      	str	r5, [r4, #0]
341824f4:	6865      	ldr	r5, [r4, #4]
341824f6:	02b6      	lsls	r6, r6, #10
341824f8:	bf54      	ite	pl
341824fa:	403d      	andpl	r5, r7
341824fc:	4315      	orrmi	r5, r2
341824fe:	6065      	str	r5, [r4, #4]
34182500:	3301      	adds	r3, #1
34182502:	e73b      	b.n	3418237c <HAL_GPIO_Init+0xc>
34182504:	2500      	movs	r5, #0
34182506:	e7d6      	b.n	341824b6 <HAL_GPIO_Init+0x146>
34182508:	2501      	movs	r5, #1
3418250a:	e7d4      	b.n	341824b6 <HAL_GPIO_Init+0x146>
3418250c:	2502      	movs	r5, #2
3418250e:	e7d2      	b.n	341824b6 <HAL_GPIO_Init+0x146>
34182510:	2503      	movs	r5, #3
34182512:	e7d0      	b.n	341824b6 <HAL_GPIO_Init+0x146>
34182514:	2504      	movs	r5, #4
34182516:	e7ce      	b.n	341824b6 <HAL_GPIO_Init+0x146>
34182518:	2505      	movs	r5, #5
3418251a:	e7cc      	b.n	341824b6 <HAL_GPIO_Init+0x146>
3418251c:	2506      	movs	r5, #6
3418251e:	e7ca      	b.n	341824b6 <HAL_GPIO_Init+0x146>
34182520:	2507      	movs	r5, #7
34182522:	e7c8      	b.n	341824b6 <HAL_GPIO_Init+0x146>
34182524:	2508      	movs	r5, #8
34182526:	e7c6      	b.n	341824b6 <HAL_GPIO_Init+0x146>
34182528:	2509      	movs	r5, #9
3418252a:	e7c4      	b.n	341824b6 <HAL_GPIO_Init+0x146>
3418252c:	250a      	movs	r5, #10
3418252e:	e7c2      	b.n	341824b6 <HAL_GPIO_Init+0x146>
34182530:	56025000 	.word	0x56025000
34182534:	56020000 	.word	0x56020000

34182538 <HAL_GPIO_WritePin>:
34182538:	b10a      	cbz	r2, 3418253e <HAL_GPIO_WritePin+0x6>
3418253a:	6181      	str	r1, [r0, #24]
3418253c:	4770      	bx	lr
3418253e:	6281      	str	r1, [r0, #40]	@ 0x28
34182540:	4770      	bx	lr
	...

34182544 <HAL_PWREx_ConfigSupply>:
34182544:	b538      	push	{r3, r4, r5, lr}
34182546:	4c0b      	ldr	r4, [pc, #44]	@ (34182574 <HAL_PWREx_ConfigSupply+0x30>)
34182548:	6823      	ldr	r3, [r4, #0]
3418254a:	f023 0304 	bic.w	r3, r3, #4
3418254e:	4303      	orrs	r3, r0
34182550:	6023      	str	r3, [r4, #0]
34182552:	f7ff fe27 	bl	341821a4 <HAL_GetTick>
34182556:	4605      	mov	r5, r0
34182558:	6a23      	ldr	r3, [r4, #32]
3418255a:	039b      	lsls	r3, r3, #14
3418255c:	d501      	bpl.n	34182562 <HAL_PWREx_ConfigSupply+0x1e>
3418255e:	2000      	movs	r0, #0
34182560:	bd38      	pop	{r3, r4, r5, pc}
34182562:	f7ff fe1f 	bl	341821a4 <HAL_GetTick>
34182566:	1b40      	subs	r0, r0, r5
34182568:	f5b0 7f7a 	cmp.w	r0, #1000	@ 0x3e8
3418256c:	d9f4      	bls.n	34182558 <HAL_PWREx_ConfigSupply+0x14>
3418256e:	2001      	movs	r0, #1
34182570:	e7f6      	b.n	34182560 <HAL_PWREx_ConfigSupply+0x1c>
34182572:	bf00      	nop
34182574:	56024800 	.word	0x56024800

34182578 <HAL_PWREx_ControlVoltageScaling>:
34182578:	b538      	push	{r3, r4, r5, lr}
3418257a:	4c0b      	ldr	r4, [pc, #44]	@ (341825a8 <HAL_PWREx_ControlVoltageScaling+0x30>)
3418257c:	6a23      	ldr	r3, [r4, #32]
3418257e:	f023 0301 	bic.w	r3, r3, #1
34182582:	4303      	orrs	r3, r0
34182584:	6223      	str	r3, [r4, #32]
34182586:	f7ff fe0d 	bl	341821a4 <HAL_GetTick>
3418258a:	4605      	mov	r5, r0
3418258c:	6a23      	ldr	r3, [r4, #32]
3418258e:	079b      	lsls	r3, r3, #30
34182590:	d501      	bpl.n	34182596 <HAL_PWREx_ControlVoltageScaling+0x1e>
34182592:	2000      	movs	r0, #0
34182594:	bd38      	pop	{r3, r4, r5, pc}
34182596:	f7ff fe05 	bl	341821a4 <HAL_GetTick>
3418259a:	1b40      	subs	r0, r0, r5
3418259c:	f5b0 7f7a 	cmp.w	r0, #1000	@ 0x3e8
341825a0:	d9f4      	bls.n	3418258c <HAL_PWREx_ControlVoltageScaling+0x14>
341825a2:	2001      	movs	r0, #1
341825a4:	e7f6      	b.n	34182594 <HAL_PWREx_ControlVoltageScaling+0x1c>
341825a6:	bf00      	nop
341825a8:	56024800 	.word	0x56024800

341825ac <HAL_PWREx_ConfigVddIORange>:
341825ac:	2804      	cmp	r0, #4
341825ae:	d829      	bhi.n	34182604 <HAL_PWREx_ConfigVddIORange+0x58>
341825b0:	e8df f000 	tbb	[pc, r0]
341825b4:	19120b03 	.word	0x19120b03
341825b8:	21          	.byte	0x21
341825b9:	00          	.byte	0x00
341825ba:	4a13      	ldr	r2, [pc, #76]	@ (34182608 <HAL_PWREx_ConfigVddIORange+0x5c>)
341825bc:	6bd3      	ldr	r3, [r2, #60]	@ 0x3c
341825be:	f023 7380 	bic.w	r3, r3, #16777216	@ 0x1000000
341825c2:	ea43 6301 	orr.w	r3, r3, r1, lsl #24
341825c6:	63d3      	str	r3, [r2, #60]	@ 0x3c
341825c8:	4770      	bx	lr
341825ca:	4a0f      	ldr	r2, [pc, #60]	@ (34182608 <HAL_PWREx_ConfigVddIORange+0x5c>)
341825cc:	6bd3      	ldr	r3, [r2, #60]	@ 0x3c
341825ce:	f023 7300 	bic.w	r3, r3, #33554432	@ 0x2000000
341825d2:	ea43 6341 	orr.w	r3, r3, r1, lsl #25
341825d6:	e7f6      	b.n	341825c6 <HAL_PWREx_ConfigVddIORange+0x1a>
341825d8:	4a0b      	ldr	r2, [pc, #44]	@ (34182608 <HAL_PWREx_ConfigVddIORange+0x5c>)
341825da:	6bd3      	ldr	r3, [r2, #60]	@ 0x3c
341825dc:	f023 6380 	bic.w	r3, r3, #67108864	@ 0x4000000
341825e0:	ea43 6381 	orr.w	r3, r3, r1, lsl #26
341825e4:	e7ef      	b.n	341825c6 <HAL_PWREx_ConfigVddIORange+0x1a>
341825e6:	4a08      	ldr	r2, [pc, #32]	@ (34182608 <HAL_PWREx_ConfigVddIORange+0x5c>)
341825e8:	6b53      	ldr	r3, [r2, #52]	@ 0x34
341825ea:	f023 7380 	bic.w	r3, r3, #16777216	@ 0x1000000
341825ee:	ea43 6301 	orr.w	r3, r3, r1, lsl #24
341825f2:	6353      	str	r3, [r2, #52]	@ 0x34
341825f4:	4770      	bx	lr
341825f6:	4a04      	ldr	r2, [pc, #16]	@ (34182608 <HAL_PWREx_ConfigVddIORange+0x5c>)
341825f8:	6b93      	ldr	r3, [r2, #56]	@ 0x38
341825fa:	f023 7380 	bic.w	r3, r3, #16777216	@ 0x1000000
341825fe:	ea43 6301 	orr.w	r3, r3, r1, lsl #24
34182602:	6393      	str	r3, [r2, #56]	@ 0x38
34182604:	4770      	bx	lr
34182606:	bf00      	nop
34182608:	56024800 	.word	0x56024800

3418260c <HAL_PWREx_EnableVddIO2>:
3418260c:	4a02      	ldr	r2, [pc, #8]	@ (34182618 <HAL_PWREx_EnableVddIO2+0xc>)
3418260e:	6bd3      	ldr	r3, [r2, #60]	@ 0x3c
34182610:	f443 7380 	orr.w	r3, r3, #256	@ 0x100
34182614:	63d3      	str	r3, [r2, #60]	@ 0x3c
34182616:	4770      	bx	lr
34182618:	56024800 	.word	0x56024800

3418261c <HAL_PWREx_EnableVddIO3>:
3418261c:	4a02      	ldr	r2, [pc, #8]	@ (34182628 <HAL_PWREx_EnableVddIO3+0xc>)
3418261e:	6bd3      	ldr	r3, [r2, #60]	@ 0x3c
34182620:	f443 7300 	orr.w	r3, r3, #512	@ 0x200
34182624:	63d3      	str	r3, [r2, #60]	@ 0x3c
34182626:	4770      	bx	lr
34182628:	56024800 	.word	0x56024800

3418262c <HAL_PWREx_EnableVddIO4>:
3418262c:	4a02      	ldr	r2, [pc, #8]	@ (34182638 <HAL_PWREx_EnableVddIO4+0xc>)
3418262e:	6b53      	ldr	r3, [r2, #52]	@ 0x34
34182630:	f443 7380 	orr.w	r3, r3, #256	@ 0x100
34182634:	6353      	str	r3, [r2, #52]	@ 0x34
34182636:	4770      	bx	lr
34182638:	56024800 	.word	0x56024800

3418263c <HAL_PWREx_EnableVddIO5>:
3418263c:	4a02      	ldr	r2, [pc, #8]	@ (34182648 <HAL_PWREx_EnableVddIO5+0xc>)
3418263e:	6b93      	ldr	r3, [r2, #56]	@ 0x38
34182640:	f443 7380 	orr.w	r3, r3, #256	@ 0x100
34182644:	6393      	str	r3, [r2, #56]	@ 0x38
34182646:	4770      	bx	lr
34182648:	56024800 	.word	0x56024800

3418264c <LL_RCC_HSI_IsReady>:
3418264c:	4b02      	ldr	r3, [pc, #8]	@ (34182658 <LL_RCC_HSI_IsReady+0xc>)
3418264e:	6858      	ldr	r0, [r3, #4]
34182650:	f3c0 00c0 	ubfx	r0, r0, #3, #1
34182654:	4770      	bx	lr
34182656:	bf00      	nop
34182658:	56028000 	.word	0x56028000

3418265c <LL_RCC_MSI_IsReady>:
3418265c:	4b02      	ldr	r3, [pc, #8]	@ (34182668 <LL_RCC_MSI_IsReady+0xc>)
3418265e:	6858      	ldr	r0, [r3, #4]
34182660:	f3c0 0080 	ubfx	r0, r0, #2, #1
34182664:	4770      	bx	lr
34182666:	bf00      	nop
34182668:	56028000 	.word	0x56028000

3418266c <LL_RCC_PLL1_IsReady>:
3418266c:	4b02      	ldr	r3, [pc, #8]	@ (34182678 <LL_RCC_PLL1_IsReady+0xc>)
3418266e:	6858      	ldr	r0, [r3, #4]
34182670:	f3c0 2000 	ubfx	r0, r0, #8, #1
34182674:	4770      	bx	lr
34182676:	bf00      	nop
34182678:	56028000 	.word	0x56028000

3418267c <RCC_PLL_IsNewConfig>:
3418267c:	b570      	push	{r4, r5, r6, lr}
3418267e:	690b      	ldr	r3, [r1, #16]
34182680:	4d1b      	ldr	r5, [pc, #108]	@ (341826f0 <RCC_PLL_IsNewConfig+0x74>)
34182682:	688e      	ldr	r6, [r1, #8]
34182684:	0104      	lsls	r4, r0, #4
34182686:	5962      	ldr	r2, [r4, r5]
34182688:	021b      	lsls	r3, r3, #8
3418268a:	ea43 5306 	orr.w	r3, r3, r6, lsl #20
3418268e:	684e      	ldr	r6, [r1, #4]
34182690:	f022 420c 	bic.w	r2, r2, #2348810240	@ 0x8c000000
34182694:	f022 02ff 	bic.w	r2, r2, #255	@ 0xff
34182698:	4333      	orrs	r3, r6
3418269a:	429a      	cmp	r2, r3
3418269c:	d126      	bne.n	341826ec <RCC_PLL_IsNewConfig+0x70>
3418269e:	4b15      	ldr	r3, [pc, #84]	@ (341826f4 <RCC_PLL_IsNewConfig+0x78>)
341826a0:	68ca      	ldr	r2, [r1, #12]
341826a2:	58e3      	ldr	r3, [r4, r3]
341826a4:	f023 437f 	bic.w	r3, r3, #4278190080	@ 0xff000000
341826a8:	4293      	cmp	r3, r2
341826aa:	d11f      	bne.n	341826ec <RCC_PLL_IsNewConfig+0x70>
341826ac:	4b12      	ldr	r3, [pc, #72]	@ (341826f8 <RCC_PLL_IsNewConfig+0x7c>)
341826ae:	58e2      	ldr	r2, [r4, r3]
341826b0:	e9d1 6305 	ldrd	r6, r3, [r1, #20]
341826b4:	061b      	lsls	r3, r3, #24
341826b6:	f002 527c 	and.w	r2, r2, #1056964608	@ 0x3f000000
341826ba:	ea43 63c6 	orr.w	r3, r3, r6, lsl #27
341826be:	429a      	cmp	r2, r3
341826c0:	d114      	bne.n	341826ec <RCC_PLL_IsNewConfig+0x70>
341826c2:	4b0e      	ldr	r3, [pc, #56]	@ (341826fc <RCC_PLL_IsNewConfig+0x80>)
341826c4:	685a      	ldr	r2, [r3, #4]
341826c6:	f44f 7380 	mov.w	r3, #256	@ 0x100
341826ca:	fa03 f000 	lsl.w	r0, r3, r0
341826ce:	4390      	bics	r0, r2
341826d0:	d00a      	beq.n	341826e8 <RCC_PLL_IsNewConfig+0x6c>
341826d2:	5963      	ldr	r3, [r4, r5]
341826d4:	f013 6f00 	tst.w	r3, #134217728	@ 0x8000000
341826d8:	bf0c      	ite	eq
341826da:	2301      	moveq	r3, #1
341826dc:	2303      	movne	r3, #3
341826de:	6808      	ldr	r0, [r1, #0]
341826e0:	1ac0      	subs	r0, r0, r3
341826e2:	bf18      	it	ne
341826e4:	2001      	movne	r0, #1
341826e6:	bd70      	pop	{r4, r5, r6, pc}
341826e8:	2302      	movs	r3, #2
341826ea:	e7f8      	b.n	341826de <RCC_PLL_IsNewConfig+0x62>
341826ec:	2001      	movs	r0, #1
341826ee:	e7fa      	b.n	341826e6 <RCC_PLL_IsNewConfig+0x6a>
341826f0:	56028080 	.word	0x56028080
341826f4:	56028084 	.word	0x56028084
341826f8:	56028088 	.word	0x56028088
341826fc:	56028000 	.word	0x56028000

34182700 <RCC_PLL_Config>:
34182700:	680b      	ldr	r3, [r1, #0]
34182702:	e92d 47f0 	stmdb	sp!, {r4, r5, r6, r7, r8, r9, sl, lr}
34182706:	2b02      	cmp	r3, #2
34182708:	4602      	mov	r2, r0
3418270a:	460e      	mov	r6, r1
3418270c:	4f5c      	ldr	r7, [pc, #368]	@ (34182880 <RCC_PLL_Config+0x180>)
3418270e:	4d5d      	ldr	r5, [pc, #372]	@ (34182884 <RCC_PLL_Config+0x184>)
34182710:	ea4f 1400 	mov.w	r4, r0, lsl #4
34182714:	d160      	bne.n	341827d8 <RCC_PLL_Config+0xd8>
34182716:	f44f 7880 	mov.w	r8, #256	@ 0x100
3418271a:	4b5b      	ldr	r3, [pc, #364]	@ (34182888 <RCC_PLL_Config+0x188>)
3418271c:	fa08 f800 	lsl.w	r8, r8, r0
34182720:	f8c3 8000 	str.w	r8, [r3]
34182724:	f7ff fd3e 	bl	341821a4 <HAL_GetTick>
34182728:	4681      	mov	r9, r0
3418272a:	f8df a168 	ldr.w	sl, [pc, #360]	@ 34182894 <RCC_PLL_Config+0x194>
3418272e:	f8da 3004 	ldr.w	r3, [sl, #4]
34182732:	ea38 0303 	bics.w	r3, r8, r3
34182736:	d040      	beq.n	341827ba <RCC_PLL_Config+0xba>
34182738:	5963      	ldr	r3, [r4, r5]
3418273a:	4954      	ldr	r1, [pc, #336]	@ (3418288c <RCC_PLL_Config+0x18c>)
3418273c:	f043 0304 	orr.w	r3, r3, #4
34182740:	5163      	str	r3, [r4, r5]
34182742:	59e3      	ldr	r3, [r4, r7]
34182744:	f023 6300 	bic.w	r3, r3, #134217728	@ 0x8000000
34182748:	51e3      	str	r3, [r4, r7]
3418274a:	6933      	ldr	r3, [r6, #16]
3418274c:	68b2      	ldr	r2, [r6, #8]
3418274e:	021b      	lsls	r3, r3, #8
34182750:	ea43 5302 	orr.w	r3, r3, r2, lsl #20
34182754:	6872      	ldr	r2, [r6, #4]
34182756:	59e0      	ldr	r0, [r4, r7]
34182758:	4313      	orrs	r3, r2
3418275a:	4a4d      	ldr	r2, [pc, #308]	@ (34182890 <RCC_PLL_Config+0x190>)
3418275c:	4002      	ands	r2, r0
3418275e:	4313      	orrs	r3, r2
34182760:	51e3      	str	r3, [r4, r7]
34182762:	5962      	ldr	r2, [r4, r5]
34182764:	e9d6 0305 	ldrd	r0, r3, [r6, #20]
34182768:	061b      	lsls	r3, r3, #24
3418276a:	f022 527c 	bic.w	r2, r2, #1056964608	@ 0x3f000000
3418276e:	ea43 63c0 	orr.w	r3, r3, r0, lsl #27
34182772:	4313      	orrs	r3, r2
34182774:	5163      	str	r3, [r4, r5]
34182776:	5863      	ldr	r3, [r4, r1]
34182778:	68f2      	ldr	r2, [r6, #12]
3418277a:	f003 437f 	and.w	r3, r3, #4278190080	@ 0xff000000
3418277e:	4313      	orrs	r3, r2
34182780:	5063      	str	r3, [r4, r1]
34182782:	5963      	ldr	r3, [r4, r5]
34182784:	f023 0308 	bic.w	r3, r3, #8
34182788:	5163      	str	r3, [r4, r5]
3418278a:	68f3      	ldr	r3, [r6, #12]
3418278c:	b11b      	cbz	r3, 34182796 <RCC_PLL_Config+0x96>
3418278e:	5963      	ldr	r3, [r4, r5]
34182790:	f043 030a 	orr.w	r3, r3, #10
34182794:	5163      	str	r3, [r4, r5]
34182796:	5963      	ldr	r3, [r4, r5]
34182798:	f043 4380 	orr.w	r3, r3, #1073741824	@ 0x40000000
3418279c:	f043 0301 	orr.w	r3, r3, #1
341827a0:	5163      	str	r3, [r4, r5]
341827a2:	4d3c      	ldr	r5, [pc, #240]	@ (34182894 <RCC_PLL_Config+0x194>)
341827a4:	f8c5 8800 	str.w	r8, [r5, #2048]	@ 0x800
341827a8:	f7ff fcfc 	bl	341821a4 <HAL_GetTick>
341827ac:	4604      	mov	r4, r0
341827ae:	686b      	ldr	r3, [r5, #4]
341827b0:	ea18 0f03 	tst.w	r8, r3
341827b4:	d00a      	beq.n	341827cc <RCC_PLL_Config+0xcc>
341827b6:	2000      	movs	r0, #0
341827b8:	e006      	b.n	341827c8 <RCC_PLL_Config+0xc8>
341827ba:	f7ff fcf3 	bl	341821a4 <HAL_GetTick>
341827be:	eba0 0009 	sub.w	r0, r0, r9
341827c2:	2801      	cmp	r0, #1
341827c4:	d9b3      	bls.n	3418272e <RCC_PLL_Config+0x2e>
341827c6:	2003      	movs	r0, #3
341827c8:	e8bd 87f0 	ldmia.w	sp!, {r4, r5, r6, r7, r8, r9, sl, pc}
341827cc:	f7ff fcea 	bl	341821a4 <HAL_GetTick>
341827d0:	1b00      	subs	r0, r0, r4
341827d2:	2801      	cmp	r0, #1
341827d4:	d9eb      	bls.n	341827ae <RCC_PLL_Config+0xae>
341827d6:	e7f6      	b.n	341827c6 <RCC_PLL_Config+0xc6>
341827d8:	2b03      	cmp	r3, #3
341827da:	d132      	bne.n	34182842 <RCC_PLL_Config+0x142>
341827dc:	684b      	ldr	r3, [r1, #4]
341827de:	f1b3 5f80 	cmp.w	r3, #268435456	@ 0x10000000
341827e2:	d008      	beq.n	341827f6 <RCC_PLL_Config+0xf6>
341827e4:	f1b3 5f00 	cmp.w	r3, #536870912	@ 0x20000000
341827e8:	d008      	beq.n	341827fc <RCC_PLL_Config+0xfc>
341827ea:	b95b      	cbnz	r3, 34182804 <RCC_PLL_Config+0x104>
341827ec:	f7ff ff2e 	bl	3418264c <LL_RCC_HSI_IsReady>
341827f0:	b940      	cbnz	r0, 34182804 <RCC_PLL_Config+0x104>
341827f2:	2001      	movs	r0, #1
341827f4:	e7e8      	b.n	341827c8 <RCC_PLL_Config+0xc8>
341827f6:	f7ff ff31 	bl	3418265c <LL_RCC_MSI_IsReady>
341827fa:	e7f9      	b.n	341827f0 <RCC_PLL_Config+0xf0>
341827fc:	4b25      	ldr	r3, [pc, #148]	@ (34182894 <RCC_PLL_Config+0x194>)
341827fe:	685b      	ldr	r3, [r3, #4]
34182800:	06db      	lsls	r3, r3, #27
34182802:	d5f6      	bpl.n	341827f2 <RCC_PLL_Config+0xf2>
34182804:	f44f 7580 	mov.w	r5, #256	@ 0x100
34182808:	4b1f      	ldr	r3, [pc, #124]	@ (34182888 <RCC_PLL_Config+0x188>)
3418280a:	4095      	lsls	r5, r2
3418280c:	601d      	str	r5, [r3, #0]
3418280e:	f7ff fcc9 	bl	341821a4 <HAL_GetTick>
34182812:	4680      	mov	r8, r0
34182814:	f8df 907c 	ldr.w	r9, [pc, #124]	@ 34182894 <RCC_PLL_Config+0x194>
34182818:	f8d9 3004 	ldr.w	r3, [r9, #4]
3418281c:	ea35 0303 	bics.w	r3, r5, r3
34182820:	d008      	beq.n	34182834 <RCC_PLL_Config+0x134>
34182822:	59e3      	ldr	r3, [r4, r7]
34182824:	6872      	ldr	r2, [r6, #4]
34182826:	f023 43f0 	bic.w	r3, r3, #2013265920	@ 0x78000000
3418282a:	4313      	orrs	r3, r2
3418282c:	f043 6300 	orr.w	r3, r3, #134217728	@ 0x8000000
34182830:	51e3      	str	r3, [r4, r7]
34182832:	e7c0      	b.n	341827b6 <RCC_PLL_Config+0xb6>
34182834:	f7ff fcb6 	bl	341821a4 <HAL_GetTick>
34182838:	eba0 0008 	sub.w	r0, r0, r8
3418283c:	2801      	cmp	r0, #1
3418283e:	d9eb      	bls.n	34182818 <RCC_PLL_Config+0x118>
34182840:	e7c1      	b.n	341827c6 <RCC_PLL_Config+0xc6>
34182842:	2b01      	cmp	r3, #1
34182844:	d1b7      	bne.n	341827b6 <RCC_PLL_Config+0xb6>
34182846:	5963      	ldr	r3, [r4, r5]
34182848:	f8df 8048 	ldr.w	r8, [pc, #72]	@ 34182894 <RCC_PLL_Config+0x194>
3418284c:	f023 4380 	bic.w	r3, r3, #1073741824	@ 0x40000000
34182850:	5163      	str	r3, [r4, r5]
34182852:	f44f 7580 	mov.w	r5, #256	@ 0x100
34182856:	4b0c      	ldr	r3, [pc, #48]	@ (34182888 <RCC_PLL_Config+0x188>)
34182858:	4085      	lsls	r5, r0
3418285a:	601d      	str	r5, [r3, #0]
3418285c:	f7ff fca2 	bl	341821a4 <HAL_GetTick>
34182860:	4606      	mov	r6, r0
34182862:	f8d8 3004 	ldr.w	r3, [r8, #4]
34182866:	ea35 0303 	bics.w	r3, r5, r3
3418286a:	d003      	beq.n	34182874 <RCC_PLL_Config+0x174>
3418286c:	59e3      	ldr	r3, [r4, r7]
3418286e:	f023 6300 	bic.w	r3, r3, #134217728	@ 0x8000000
34182872:	e7dd      	b.n	34182830 <RCC_PLL_Config+0x130>
34182874:	f7ff fc96 	bl	341821a4 <HAL_GetTick>
34182878:	1b80      	subs	r0, r0, r6
3418287a:	2801      	cmp	r0, #1
3418287c:	d9f1      	bls.n	34182862 <RCC_PLL_Config+0x162>
3418287e:	e7a2      	b.n	341827c6 <RCC_PLL_Config+0xc6>
34182880:	56028080 	.word	0x56028080
34182884:	56028088 	.word	0x56028088
34182888:	56029000 	.word	0x56029000
3418288c:	56028084 	.word	0x56028084
34182890:	8c0000ff 	.word	0x8c0000ff
34182894:	56028000 	.word	0x56028000

34182898 <RCC_PLL_Enable>:
34182898:	b570      	push	{r4, r5, r6, lr}
3418289a:	f44f 7480 	mov.w	r4, #256	@ 0x100
3418289e:	4e09      	ldr	r6, [pc, #36]	@ (341828c4 <RCC_PLL_Enable+0x2c>)
341828a0:	4084      	lsls	r4, r0
341828a2:	f8c6 4800 	str.w	r4, [r6, #2048]	@ 0x800
341828a6:	f7ff fc7d 	bl	341821a4 <HAL_GetTick>
341828aa:	4605      	mov	r5, r0
341828ac:	6873      	ldr	r3, [r6, #4]
341828ae:	421c      	tst	r4, r3
341828b0:	d001      	beq.n	341828b6 <RCC_PLL_Enable+0x1e>
341828b2:	2000      	movs	r0, #0
341828b4:	bd70      	pop	{r4, r5, r6, pc}
341828b6:	f7ff fc75 	bl	341821a4 <HAL_GetTick>
341828ba:	1b40      	subs	r0, r0, r5
341828bc:	2801      	cmp	r0, #1
341828be:	d9f5      	bls.n	341828ac <RCC_PLL_Enable+0x14>
341828c0:	2003      	movs	r0, #3
341828c2:	e7f7      	b.n	341828b4 <RCC_PLL_Enable+0x1c>
341828c4:	56028000 	.word	0x56028000

341828c8 <RCC_GetSysClockFreq>:
341828c8:	b510      	push	{r4, lr}
341828ca:	460c      	mov	r4, r1
341828cc:	4919      	ldr	r1, [pc, #100]	@ (34182934 <RCC_GetSysClockFreq+0x6c>)
341828ce:	6a0a      	ldr	r2, [r1, #32]
341828d0:	f002 5240 	and.w	r2, r2, #805306368	@ 0x30000000
341828d4:	f1b2 5f00 	cmp.w	r2, #536870912	@ 0x20000000
341828d8:	d027      	beq.n	3418292a <RCC_GetSysClockFreq+0x62>
341828da:	d806      	bhi.n	341828ea <RCC_GetSysClockFreq+0x22>
341828dc:	b952      	cbnz	r2, 341828f4 <RCC_GetSysClockFreq+0x2c>
341828de:	6c8b      	ldr	r3, [r1, #72]	@ 0x48
341828e0:	4815      	ldr	r0, [pc, #84]	@ (34182938 <RCC_GetSysClockFreq+0x70>)
341828e2:	f3c3 13c1 	ubfx	r3, r3, #7, #2
341828e6:	40d8      	lsrs	r0, r3
341828e8:	bd10      	pop	{r4, pc}
341828ea:	f1b2 5f40 	cmp.w	r2, #805306368	@ 0x30000000
341828ee:	d006      	beq.n	341828fe <RCC_GetSysClockFreq+0x36>
341828f0:	2000      	movs	r0, #0
341828f2:	e7f9      	b.n	341828e8 <RCC_GetSysClockFreq+0x20>
341828f4:	6c4b      	ldr	r3, [r1, #68]	@ 0x44
341828f6:	059b      	lsls	r3, r3, #22
341828f8:	d519      	bpl.n	3418292e <RCC_GetSysClockFreq+0x66>
341828fa:	4810      	ldr	r0, [pc, #64]	@ (3418293c <RCC_GetSysClockFreq+0x74>)
341828fc:	e7f4      	b.n	341828e8 <RCC_GetSysClockFreq+0x20>
341828fe:	f1b0 5f00 	cmp.w	r0, #536870912	@ 0x20000000
34182902:	d00f      	beq.n	34182924 <RCC_GetSysClockFreq+0x5c>
34182904:	d805      	bhi.n	34182912 <RCC_GetSysClockFreq+0x4a>
34182906:	b950      	cbnz	r0, 3418291e <RCC_GetSysClockFreq+0x56>
34182908:	f002 fabe 	bl	34184e88 <HAL_RCCEx_GetPLL1CLKFreq>
3418290c:	fbb0 f0f4 	udiv	r0, r0, r4
34182910:	e7ea      	b.n	341828e8 <RCC_GetSysClockFreq+0x20>
34182912:	f1b0 5f40 	cmp.w	r0, #805306368	@ 0x30000000
34182916:	d1eb      	bne.n	341828f0 <RCC_GetSysClockFreq+0x28>
34182918:	f002 fb76 	bl	34185008 <HAL_RCCEx_GetPLL4CLKFreq>
3418291c:	e7f6      	b.n	3418290c <RCC_GetSysClockFreq+0x44>
3418291e:	f002 faf3 	bl	34184f08 <HAL_RCCEx_GetPLL2CLKFreq>
34182922:	e7f3      	b.n	3418290c <RCC_GetSysClockFreq+0x44>
34182924:	f002 fb30 	bl	34184f88 <HAL_RCCEx_GetPLL3CLKFreq>
34182928:	e7f0      	b.n	3418290c <RCC_GetSysClockFreq+0x44>
3418292a:	4805      	ldr	r0, [pc, #20]	@ (34182940 <RCC_GetSysClockFreq+0x78>)
3418292c:	e7dc      	b.n	341828e8 <RCC_GetSysClockFreq+0x20>
3418292e:	4805      	ldr	r0, [pc, #20]	@ (34182944 <RCC_GetSysClockFreq+0x7c>)
34182930:	e7da      	b.n	341828e8 <RCC_GetSysClockFreq+0x20>
34182932:	bf00      	nop
34182934:	56028000 	.word	0x56028000
34182938:	03d09000 	.word	0x03d09000
3418293c:	00f42400 	.word	0x00f42400
34182940:	016e3600 	.word	0x016e3600
34182944:	003d0900 	.word	0x003d0900

34182948 <RCC_IC_CheckPLLSources>:
34182948:	f1b0 5f00 	cmp.w	r0, #536870912	@ 0x20000000
3418294c:	b508      	push	{r3, lr}
3418294e:	d022      	beq.n	34182996 <RCC_IC_CheckPLLSources+0x4e>
34182950:	d805      	bhi.n	3418295e <RCC_IC_CheckPLLSources+0x16>
34182952:	b9c8      	cbnz	r0, 34182988 <RCC_IC_CheckPLLSources+0x40>
34182954:	f7ff fe8a 	bl	3418266c <LL_RCC_PLL1_IsReady>
34182958:	b180      	cbz	r0, 3418297c <RCC_IC_CheckPLLSources+0x34>
3418295a:	2201      	movs	r2, #1
3418295c:	e003      	b.n	34182966 <RCC_IC_CheckPLLSources+0x1e>
3418295e:	f1b0 5f40 	cmp.w	r0, #805306368	@ 0x30000000
34182962:	d01f      	beq.n	341829a4 <RCC_IC_CheckPLLSources+0x5c>
34182964:	2200      	movs	r2, #0
34182966:	f1b1 5f00 	cmp.w	r1, #536870912	@ 0x20000000
3418296a:	d03d      	beq.n	341829e8 <RCC_IC_CheckPLLSources+0xa0>
3418296c:	d821      	bhi.n	341829b2 <RCC_IC_CheckPLLSources+0x6a>
3418296e:	b351      	cbz	r1, 341829c6 <RCC_IC_CheckPLLSources+0x7e>
34182970:	f1b1 5f80 	cmp.w	r1, #268435456	@ 0x10000000
34182974:	d031      	beq.n	341829da <RCC_IC_CheckPLLSources+0x92>
34182976:	2200      	movs	r2, #0
34182978:	4610      	mov	r0, r2
3418297a:	bd08      	pop	{r3, pc}
3418297c:	4b1e      	ldr	r3, [pc, #120]	@ (341829f8 <RCC_IC_CheckPLLSources+0xb0>)
3418297e:	f8d3 2080 	ldr.w	r2, [r3, #128]	@ 0x80
34182982:	f3c2 62c0 	ubfx	r2, r2, #27, #1
34182986:	e7ee      	b.n	34182966 <RCC_IC_CheckPLLSources+0x1e>
34182988:	4b1b      	ldr	r3, [pc, #108]	@ (341829f8 <RCC_IC_CheckPLLSources+0xb0>)
3418298a:	685a      	ldr	r2, [r3, #4]
3418298c:	0590      	lsls	r0, r2, #22
3418298e:	d4e4      	bmi.n	3418295a <RCC_IC_CheckPLLSources+0x12>
34182990:	f8d3 2090 	ldr.w	r2, [r3, #144]	@ 0x90
34182994:	e7f5      	b.n	34182982 <RCC_IC_CheckPLLSources+0x3a>
34182996:	4b18      	ldr	r3, [pc, #96]	@ (341829f8 <RCC_IC_CheckPLLSources+0xb0>)
34182998:	685a      	ldr	r2, [r3, #4]
3418299a:	0552      	lsls	r2, r2, #21
3418299c:	d4dd      	bmi.n	3418295a <RCC_IC_CheckPLLSources+0x12>
3418299e:	f8d3 20a0 	ldr.w	r2, [r3, #160]	@ 0xa0
341829a2:	e7ee      	b.n	34182982 <RCC_IC_CheckPLLSources+0x3a>
341829a4:	4b14      	ldr	r3, [pc, #80]	@ (341829f8 <RCC_IC_CheckPLLSources+0xb0>)
341829a6:	685a      	ldr	r2, [r3, #4]
341829a8:	0510      	lsls	r0, r2, #20
341829aa:	d4d6      	bmi.n	3418295a <RCC_IC_CheckPLLSources+0x12>
341829ac:	f8d3 20b0 	ldr.w	r2, [r3, #176]	@ 0xb0
341829b0:	e7e7      	b.n	34182982 <RCC_IC_CheckPLLSources+0x3a>
341829b2:	f1b1 5f40 	cmp.w	r1, #805306368	@ 0x30000000
341829b6:	d1de      	bne.n	34182976 <RCC_IC_CheckPLLSources+0x2e>
341829b8:	4b0f      	ldr	r3, [pc, #60]	@ (341829f8 <RCC_IC_CheckPLLSources+0xb0>)
341829ba:	6859      	ldr	r1, [r3, #4]
341829bc:	0509      	lsls	r1, r1, #20
341829be:	d4db      	bmi.n	34182978 <RCC_IC_CheckPLLSources+0x30>
341829c0:	f8d3 30b0 	ldr.w	r3, [r3, #176]	@ 0xb0
341829c4:	e006      	b.n	341829d4 <RCC_IC_CheckPLLSources+0x8c>
341829c6:	f7ff fe51 	bl	3418266c <LL_RCC_PLL1_IsReady>
341829ca:	2800      	cmp	r0, #0
341829cc:	d1d4      	bne.n	34182978 <RCC_IC_CheckPLLSources+0x30>
341829ce:	4b0a      	ldr	r3, [pc, #40]	@ (341829f8 <RCC_IC_CheckPLLSources+0xb0>)
341829d0:	f8d3 3080 	ldr.w	r3, [r3, #128]	@ 0x80
341829d4:	ea02 62d3 	and.w	r2, r2, r3, lsr #27
341829d8:	e7ce      	b.n	34182978 <RCC_IC_CheckPLLSources+0x30>
341829da:	4b07      	ldr	r3, [pc, #28]	@ (341829f8 <RCC_IC_CheckPLLSources+0xb0>)
341829dc:	6859      	ldr	r1, [r3, #4]
341829de:	0589      	lsls	r1, r1, #22
341829e0:	d4ca      	bmi.n	34182978 <RCC_IC_CheckPLLSources+0x30>
341829e2:	f8d3 3090 	ldr.w	r3, [r3, #144]	@ 0x90
341829e6:	e7f5      	b.n	341829d4 <RCC_IC_CheckPLLSources+0x8c>
341829e8:	4b03      	ldr	r3, [pc, #12]	@ (341829f8 <RCC_IC_CheckPLLSources+0xb0>)
341829ea:	6859      	ldr	r1, [r3, #4]
341829ec:	0548      	lsls	r0, r1, #21
341829ee:	d4c3      	bmi.n	34182978 <RCC_IC_CheckPLLSources+0x30>
341829f0:	f8d3 30a0 	ldr.w	r3, [r3, #160]	@ 0xa0
341829f4:	e7ee      	b.n	341829d4 <RCC_IC_CheckPLLSources+0x8c>
341829f6:	bf00      	nop
341829f8:	56028000 	.word	0x56028000

341829fc <HAL_RCC_OscConfig>:
341829fc:	e92d 4ff7 	stmdb	sp!, {r0, r1, r2, r4, r5, r6, r7, r8, r9, sl, fp, lr}
34182a00:	4604      	mov	r4, r0
34182a02:	b918      	cbnz	r0, 34182a0c <HAL_RCC_OscConfig+0x10>
34182a04:	2001      	movs	r0, #1
34182a06:	b003      	add	sp, #12
34182a08:	e8bd 8ff0 	ldmia.w	sp!, {r4, r5, r6, r7, r8, r9, sl, fp, pc}
34182a0c:	4bab      	ldr	r3, [pc, #684]	@ (34182cbc <HAL_RCC_OscConfig+0x2c0>)
34182a0e:	6a1f      	ldr	r7, [r3, #32]
34182a10:	6a1e      	ldr	r6, [r3, #32]
34182a12:	f8d3 2080 	ldr.w	r2, [r3, #128]	@ 0x80
34182a16:	f407 1740 	and.w	r7, r7, #3145728	@ 0x300000
34182a1a:	f002 4be0 	and.w	fp, r2, #1879048192	@ 0x70000000
34182a1e:	f8d3 2090 	ldr.w	r2, [r3, #144]	@ 0x90
34182a22:	f006 5640 	and.w	r6, r6, #805306368	@ 0x30000000
34182a26:	f002 4ae0 	and.w	sl, r2, #1879048192	@ 0x70000000
34182a2a:	f8d3 20a0 	ldr.w	r2, [r3, #160]	@ 0xa0
34182a2e:	f002 49e0 	and.w	r9, r2, #1879048192	@ 0x70000000
34182a32:	f8d3 20b0 	ldr.w	r2, [r3, #176]	@ 0xb0
34182a36:	685d      	ldr	r5, [r3, #4]
34182a38:	6803      	ldr	r3, [r0, #0]
34182a3a:	f002 48e0 	and.w	r8, r2, #1879048192	@ 0x70000000
34182a3e:	07db      	lsls	r3, r3, #31
34182a40:	f100 80e5 	bmi.w	34182c0e <HAL_RCC_OscConfig+0x212>
34182a44:	6823      	ldr	r3, [r4, #0]
34182a46:	0798      	lsls	r0, r3, #30
34182a48:	f100 814b 	bmi.w	34182ce2 <HAL_RCC_OscConfig+0x2e6>
34182a4c:	6823      	ldr	r3, [r4, #0]
34182a4e:	06db      	lsls	r3, r3, #27
34182a50:	d526      	bpl.n	34182aa0 <HAL_RCC_OscConfig+0xa4>
34182a52:	f5b7 1f80 	cmp.w	r7, #1048576	@ 0x100000
34182a56:	69e3      	ldr	r3, [r4, #28]
34182a58:	d018      	beq.n	34182a8c <HAL_RCC_OscConfig+0x90>
34182a5a:	f1b6 5f80 	cmp.w	r6, #268435456	@ 0x10000000
34182a5e:	d015      	beq.n	34182a8c <HAL_RCC_OscConfig+0x90>
34182a60:	f1bb 5f80 	cmp.w	fp, #268435456	@ 0x10000000
34182a64:	d101      	bne.n	34182a6a <HAL_RCC_OscConfig+0x6e>
34182a66:	05e8      	lsls	r0, r5, #23
34182a68:	d410      	bmi.n	34182a8c <HAL_RCC_OscConfig+0x90>
34182a6a:	f1ba 5f80 	cmp.w	sl, #268435456	@ 0x10000000
34182a6e:	d101      	bne.n	34182a74 <HAL_RCC_OscConfig+0x78>
34182a70:	05a9      	lsls	r1, r5, #22
34182a72:	d40b      	bmi.n	34182a8c <HAL_RCC_OscConfig+0x90>
34182a74:	f1b9 5f80 	cmp.w	r9, #268435456	@ 0x10000000
34182a78:	d101      	bne.n	34182a7e <HAL_RCC_OscConfig+0x82>
34182a7a:	056a      	lsls	r2, r5, #21
34182a7c:	d406      	bmi.n	34182a8c <HAL_RCC_OscConfig+0x90>
34182a7e:	f1b8 5f80 	cmp.w	r8, #268435456	@ 0x10000000
34182a82:	f040 817b 	bne.w	34182d7c <HAL_RCC_OscConfig+0x380>
34182a86:	052d      	lsls	r5, r5, #20
34182a88:	f140 8178 	bpl.w	34182d7c <HAL_RCC_OscConfig+0x380>
34182a8c:	2b00      	cmp	r3, #0
34182a8e:	d0b9      	beq.n	34182a04 <HAL_RCC_OscConfig+0x8>
34182a90:	4a8a      	ldr	r2, [pc, #552]	@ (34182cbc <HAL_RCC_OscConfig+0x2c0>)
34182a92:	6a61      	ldr	r1, [r4, #36]	@ 0x24
34182a94:	6c53      	ldr	r3, [r2, #68]	@ 0x44
34182a96:	f423 13f8 	bic.w	r3, r3, #2031616	@ 0x1f0000
34182a9a:	ea43 4301 	orr.w	r3, r3, r1, lsl #16
34182a9e:	6453      	str	r3, [r2, #68]	@ 0x44
34182aa0:	6823      	ldr	r3, [r4, #0]
34182aa2:	0718      	lsls	r0, r3, #28
34182aa4:	f100 8194 	bmi.w	34182dd0 <HAL_RCC_OscConfig+0x3d4>
34182aa8:	6823      	ldr	r3, [r4, #0]
34182aaa:	0759      	lsls	r1, r3, #29
34182aac:	f100 81b7 	bmi.w	34182e1e <HAL_RCC_OscConfig+0x422>
34182ab0:	6aa5      	ldr	r5, [r4, #40]	@ 0x28
34182ab2:	2d00      	cmp	r5, #0
34182ab4:	f040 820c 	bne.w	34182ed0 <HAL_RCC_OscConfig+0x4d4>
34182ab8:	6c65      	ldr	r5, [r4, #68]	@ 0x44
34182aba:	b39d      	cbz	r5, 34182b24 <HAL_RCC_OscConfig+0x128>
34182abc:	2001      	movs	r0, #1
34182abe:	f104 0144 	add.w	r1, r4, #68	@ 0x44
34182ac2:	f7ff fddb 	bl	3418267c <RCC_PLL_IsNewConfig>
34182ac6:	4b7d      	ldr	r3, [pc, #500]	@ (34182cbc <HAL_RCC_OscConfig+0x2c0>)
34182ac8:	2801      	cmp	r0, #1
34182aca:	685a      	ldr	r2, [r3, #4]
34182acc:	f040 8239 	bne.w	34182f42 <HAL_RCC_OscConfig+0x546>
34182ad0:	f5b7 1f40 	cmp.w	r7, #3145728	@ 0x300000
34182ad4:	f8d3 50c4 	ldr.w	r5, [r3, #196]	@ 0xc4
34182ad8:	f8d3 00c8 	ldr.w	r0, [r3, #200]	@ 0xc8
34182adc:	f8d3 20d8 	ldr.w	r2, [r3, #216]	@ 0xd8
34182ae0:	f8d3 30ec 	ldr.w	r3, [r3, #236]	@ 0xec
34182ae4:	d104      	bne.n	34182af0 <HAL_RCC_OscConfig+0xf4>
34182ae6:	f005 5540 	and.w	r5, r5, #805306368	@ 0x30000000
34182aea:	f1b5 5f80 	cmp.w	r5, #268435456	@ 0x10000000
34182aee:	d089      	beq.n	34182a04 <HAL_RCC_OscConfig+0x8>
34182af0:	f1b6 5f40 	cmp.w	r6, #805306368	@ 0x30000000
34182af4:	d110      	bne.n	34182b18 <HAL_RCC_OscConfig+0x11c>
34182af6:	f000 5040 	and.w	r0, r0, #805306368	@ 0x30000000
34182afa:	f1b0 5f80 	cmp.w	r0, #268435456	@ 0x10000000
34182afe:	d081      	beq.n	34182a04 <HAL_RCC_OscConfig+0x8>
34182b00:	f002 5240 	and.w	r2, r2, #805306368	@ 0x30000000
34182b04:	f1b2 5f80 	cmp.w	r2, #268435456	@ 0x10000000
34182b08:	f43f af7c 	beq.w	34182a04 <HAL_RCC_OscConfig+0x8>
34182b0c:	f003 5340 	and.w	r3, r3, #805306368	@ 0x30000000
34182b10:	f1b3 5f80 	cmp.w	r3, #268435456	@ 0x10000000
34182b14:	f43f af76 	beq.w	34182a04 <HAL_RCC_OscConfig+0x8>
34182b18:	2001      	movs	r0, #1
34182b1a:	f7ff fdf1 	bl	34182700 <RCC_PLL_Config>
34182b1e:	2800      	cmp	r0, #0
34182b20:	f47f af70 	bne.w	34182a04 <HAL_RCC_OscConfig+0x8>
34182b24:	6e25      	ldr	r5, [r4, #96]	@ 0x60
34182b26:	b3bd      	cbz	r5, 34182b98 <HAL_RCC_OscConfig+0x19c>
34182b28:	2002      	movs	r0, #2
34182b2a:	f104 0160 	add.w	r1, r4, #96	@ 0x60
34182b2e:	f7ff fda5 	bl	3418267c <RCC_PLL_IsNewConfig>
34182b32:	4602      	mov	r2, r0
34182b34:	f7ff fd9a 	bl	3418266c <LL_RCC_PLL1_IsReady>
34182b38:	2a01      	cmp	r2, #1
34182b3a:	f040 820c 	bne.w	34182f56 <HAL_RCC_OscConfig+0x55a>
34182b3e:	4b5f      	ldr	r3, [pc, #380]	@ (34182cbc <HAL_RCC_OscConfig+0x2c0>)
34182b40:	f5b7 1f40 	cmp.w	r7, #3145728	@ 0x300000
34182b44:	f8d3 50c4 	ldr.w	r5, [r3, #196]	@ 0xc4
34182b48:	f8d3 00c8 	ldr.w	r0, [r3, #200]	@ 0xc8
34182b4c:	f8d3 20d8 	ldr.w	r2, [r3, #216]	@ 0xd8
34182b50:	f8d3 30ec 	ldr.w	r3, [r3, #236]	@ 0xec
34182b54:	d105      	bne.n	34182b62 <HAL_RCC_OscConfig+0x166>
34182b56:	f005 5540 	and.w	r5, r5, #805306368	@ 0x30000000
34182b5a:	f1b5 5f00 	cmp.w	r5, #536870912	@ 0x20000000
34182b5e:	f43f af51 	beq.w	34182a04 <HAL_RCC_OscConfig+0x8>
34182b62:	f1b6 5f40 	cmp.w	r6, #805306368	@ 0x30000000
34182b66:	d111      	bne.n	34182b8c <HAL_RCC_OscConfig+0x190>
34182b68:	f000 5040 	and.w	r0, r0, #805306368	@ 0x30000000
34182b6c:	f1b0 5f00 	cmp.w	r0, #536870912	@ 0x20000000
34182b70:	f43f af48 	beq.w	34182a04 <HAL_RCC_OscConfig+0x8>
34182b74:	f002 5240 	and.w	r2, r2, #805306368	@ 0x30000000
34182b78:	f1b2 5f00 	cmp.w	r2, #536870912	@ 0x20000000
34182b7c:	f43f af42 	beq.w	34182a04 <HAL_RCC_OscConfig+0x8>
34182b80:	f003 5340 	and.w	r3, r3, #805306368	@ 0x30000000
34182b84:	f1b3 5f00 	cmp.w	r3, #536870912	@ 0x20000000
34182b88:	f43f af3c 	beq.w	34182a04 <HAL_RCC_OscConfig+0x8>
34182b8c:	2002      	movs	r0, #2
34182b8e:	f7ff fdb7 	bl	34182700 <RCC_PLL_Config>
34182b92:	2800      	cmp	r0, #0
34182b94:	f47f af36 	bne.w	34182a04 <HAL_RCC_OscConfig+0x8>
34182b98:	6fe5      	ldr	r5, [r4, #124]	@ 0x7c
34182b9a:	2d00      	cmp	r5, #0
34182b9c:	f000 81e5 	beq.w	34182f6a <HAL_RCC_OscConfig+0x56e>
34182ba0:	2003      	movs	r0, #3
34182ba2:	f104 017c 	add.w	r1, r4, #124	@ 0x7c
34182ba6:	f7ff fd69 	bl	3418267c <RCC_PLL_IsNewConfig>
34182baa:	4b44      	ldr	r3, [pc, #272]	@ (34182cbc <HAL_RCC_OscConfig+0x2c0>)
34182bac:	2801      	cmp	r0, #1
34182bae:	685a      	ldr	r2, [r3, #4]
34182bb0:	f040 81e4 	bne.w	34182f7c <HAL_RCC_OscConfig+0x580>
34182bb4:	f5b7 1f40 	cmp.w	r7, #3145728	@ 0x300000
34182bb8:	f8d3 50c4 	ldr.w	r5, [r3, #196]	@ 0xc4
34182bbc:	f8d3 00c8 	ldr.w	r0, [r3, #200]	@ 0xc8
34182bc0:	f8d3 20d8 	ldr.w	r2, [r3, #216]	@ 0xd8
34182bc4:	f8d3 30ec 	ldr.w	r3, [r3, #236]	@ 0xec
34182bc8:	d105      	bne.n	34182bd6 <HAL_RCC_OscConfig+0x1da>
34182bca:	f005 5540 	and.w	r5, r5, #805306368	@ 0x30000000
34182bce:	f1b5 5f40 	cmp.w	r5, #805306368	@ 0x30000000
34182bd2:	f43f af17 	beq.w	34182a04 <HAL_RCC_OscConfig+0x8>
34182bd6:	f1b6 5f40 	cmp.w	r6, #805306368	@ 0x30000000
34182bda:	d111      	bne.n	34182c00 <HAL_RCC_OscConfig+0x204>
34182bdc:	f000 5040 	and.w	r0, r0, #805306368	@ 0x30000000
34182be0:	f1b0 5f40 	cmp.w	r0, #805306368	@ 0x30000000
34182be4:	f43f af0e 	beq.w	34182a04 <HAL_RCC_OscConfig+0x8>
34182be8:	f002 5240 	and.w	r2, r2, #805306368	@ 0x30000000
34182bec:	f1b2 5f40 	cmp.w	r2, #805306368	@ 0x30000000
34182bf0:	f43f af08 	beq.w	34182a04 <HAL_RCC_OscConfig+0x8>
34182bf4:	f003 5340 	and.w	r3, r3, #805306368	@ 0x30000000
34182bf8:	f1b3 5f40 	cmp.w	r3, #805306368	@ 0x30000000
34182bfc:	f43f af02 	beq.w	34182a04 <HAL_RCC_OscConfig+0x8>
34182c00:	2003      	movs	r0, #3
34182c02:	f7ff fd7d 	bl	34182700 <RCC_PLL_Config>
34182c06:	3800      	subs	r0, #0
34182c08:	bf18      	it	ne
34182c0a:	2001      	movne	r0, #1
34182c0c:	e6fb      	b.n	34182a06 <HAL_RCC_OscConfig+0xa>
34182c0e:	f5b7 1f00 	cmp.w	r7, #2097152	@ 0x200000
34182c12:	6842      	ldr	r2, [r0, #4]
34182c14:	d016      	beq.n	34182c44 <HAL_RCC_OscConfig+0x248>
34182c16:	f1b6 5f00 	cmp.w	r6, #536870912	@ 0x20000000
34182c1a:	d013      	beq.n	34182c44 <HAL_RCC_OscConfig+0x248>
34182c1c:	f1bb 5f00 	cmp.w	fp, #536870912	@ 0x20000000
34182c20:	d101      	bne.n	34182c26 <HAL_RCC_OscConfig+0x22a>
34182c22:	05e9      	lsls	r1, r5, #23
34182c24:	d40e      	bmi.n	34182c44 <HAL_RCC_OscConfig+0x248>
34182c26:	f1ba 5f00 	cmp.w	sl, #536870912	@ 0x20000000
34182c2a:	d101      	bne.n	34182c30 <HAL_RCC_OscConfig+0x234>
34182c2c:	05ab      	lsls	r3, r5, #22
34182c2e:	d409      	bmi.n	34182c44 <HAL_RCC_OscConfig+0x248>
34182c30:	f1b9 5f00 	cmp.w	r9, #536870912	@ 0x20000000
34182c34:	d101      	bne.n	34182c3a <HAL_RCC_OscConfig+0x23e>
34182c36:	0568      	lsls	r0, r5, #21
34182c38:	d404      	bmi.n	34182c44 <HAL_RCC_OscConfig+0x248>
34182c3a:	f1b8 5f00 	cmp.w	r8, #536870912	@ 0x20000000
34182c3e:	d105      	bne.n	34182c4c <HAL_RCC_OscConfig+0x250>
34182c40:	0529      	lsls	r1, r5, #20
34182c42:	d503      	bpl.n	34182c4c <HAL_RCC_OscConfig+0x250>
34182c44:	2a00      	cmp	r2, #0
34182c46:	f47f aefd 	bne.w	34182a44 <HAL_RCC_OscConfig+0x48>
34182c4a:	e6db      	b.n	34182a04 <HAL_RCC_OscConfig+0x8>
34182c4c:	2a10      	cmp	r2, #16
34182c4e:	4b1b      	ldr	r3, [pc, #108]	@ (34182cbc <HAL_RCC_OscConfig+0x2c0>)
34182c50:	d115      	bne.n	34182c7e <HAL_RCC_OscConfig+0x282>
34182c52:	f8c3 2800 	str.w	r2, [r3, #2048]	@ 0x800
34182c56:	f7ff faa5 	bl	341821a4 <HAL_GetTick>
34182c5a:	6863      	ldr	r3, [r4, #4]
34182c5c:	9001      	str	r0, [sp, #4]
34182c5e:	2b00      	cmp	r3, #0
34182c60:	d032      	beq.n	34182cc8 <HAL_RCC_OscConfig+0x2cc>
34182c62:	4b16      	ldr	r3, [pc, #88]	@ (34182cbc <HAL_RCC_OscConfig+0x2c0>)
34182c64:	685a      	ldr	r2, [r3, #4]
34182c66:	06d3      	lsls	r3, r2, #27
34182c68:	f53f aeec 	bmi.w	34182a44 <HAL_RCC_OscConfig+0x48>
34182c6c:	f7ff fa9a 	bl	341821a4 <HAL_GetTick>
34182c70:	9b01      	ldr	r3, [sp, #4]
34182c72:	1ac0      	subs	r0, r0, r3
34182c74:	2864      	cmp	r0, #100	@ 0x64
34182c76:	4b11      	ldr	r3, [pc, #68]	@ (34182cbc <HAL_RCC_OscConfig+0x2c0>)
34182c78:	d9f4      	bls.n	34182c64 <HAL_RCC_OscConfig+0x268>
34182c7a:	2003      	movs	r0, #3
34182c7c:	e6c3      	b.n	34182a06 <HAL_RCC_OscConfig+0xa>
34182c7e:	b93a      	cbnz	r2, 34182c90 <HAL_RCC_OscConfig+0x294>
34182c80:	2110      	movs	r1, #16
34182c82:	4a0f      	ldr	r2, [pc, #60]	@ (34182cc0 <HAL_RCC_OscConfig+0x2c4>)
34182c84:	6011      	str	r1, [r2, #0]
34182c86:	6d5a      	ldr	r2, [r3, #84]	@ 0x54
34182c88:	f422 32c0 	bic.w	r2, r2, #98304	@ 0x18000
34182c8c:	655a      	str	r2, [r3, #84]	@ 0x54
34182c8e:	e7e2      	b.n	34182c56 <HAL_RCC_OscConfig+0x25a>
34182c90:	f248 0110 	movw	r1, #32784	@ 0x8010
34182c94:	428a      	cmp	r2, r1
34182c96:	d109      	bne.n	34182cac <HAL_RCC_OscConfig+0x2b0>
34182c98:	6d5a      	ldr	r2, [r3, #84]	@ 0x54
34182c9a:	f442 4200 	orr.w	r2, r2, #32768	@ 0x8000
34182c9e:	655a      	str	r2, [r3, #84]	@ 0x54
34182ca0:	6d5a      	ldr	r2, [r3, #84]	@ 0x54
34182ca2:	f422 3280 	bic.w	r2, r2, #65536	@ 0x10000
34182ca6:	655a      	str	r2, [r3, #84]	@ 0x54
34182ca8:	2210      	movs	r2, #16
34182caa:	e7d2      	b.n	34182c52 <HAL_RCC_OscConfig+0x256>
34182cac:	4905      	ldr	r1, [pc, #20]	@ (34182cc4 <HAL_RCC_OscConfig+0x2c8>)
34182cae:	428a      	cmp	r2, r1
34182cb0:	d1e6      	bne.n	34182c80 <HAL_RCC_OscConfig+0x284>
34182cb2:	6d5a      	ldr	r2, [r3, #84]	@ 0x54
34182cb4:	f442 32c0 	orr.w	r2, r2, #98304	@ 0x18000
34182cb8:	e7f5      	b.n	34182ca6 <HAL_RCC_OscConfig+0x2aa>
34182cba:	bf00      	nop
34182cbc:	56028000 	.word	0x56028000
34182cc0:	56029000 	.word	0x56029000
34182cc4:	00018010 	.word	0x00018010
34182cc8:	4ba9      	ldr	r3, [pc, #676]	@ (34182f70 <HAL_RCC_OscConfig+0x574>)
34182cca:	685a      	ldr	r2, [r3, #4]
34182ccc:	06d0      	lsls	r0, r2, #27
34182cce:	f57f aeb9 	bpl.w	34182a44 <HAL_RCC_OscConfig+0x48>
34182cd2:	f7ff fa67 	bl	341821a4 <HAL_GetTick>
34182cd6:	9b01      	ldr	r3, [sp, #4]
34182cd8:	1ac0      	subs	r0, r0, r3
34182cda:	2864      	cmp	r0, #100	@ 0x64
34182cdc:	4ba4      	ldr	r3, [pc, #656]	@ (34182f70 <HAL_RCC_OscConfig+0x574>)
34182cde:	d9f4      	bls.n	34182cca <HAL_RCC_OscConfig+0x2ce>
34182ce0:	e7cb      	b.n	34182c7a <HAL_RCC_OscConfig+0x27e>
34182ce2:	68e2      	ldr	r2, [r4, #12]
34182ce4:	b1a7      	cbz	r7, 34182d10 <HAL_RCC_OscConfig+0x314>
34182ce6:	b19e      	cbz	r6, 34182d10 <HAL_RCC_OscConfig+0x314>
34182ce8:	f1bb 0f00 	cmp.w	fp, #0
34182cec:	d101      	bne.n	34182cf2 <HAL_RCC_OscConfig+0x2f6>
34182cee:	05e9      	lsls	r1, r5, #23
34182cf0:	d40e      	bmi.n	34182d10 <HAL_RCC_OscConfig+0x314>
34182cf2:	f1ba 0f00 	cmp.w	sl, #0
34182cf6:	d101      	bne.n	34182cfc <HAL_RCC_OscConfig+0x300>
34182cf8:	05ab      	lsls	r3, r5, #22
34182cfa:	d409      	bmi.n	34182d10 <HAL_RCC_OscConfig+0x314>
34182cfc:	f1b9 0f00 	cmp.w	r9, #0
34182d00:	d101      	bne.n	34182d06 <HAL_RCC_OscConfig+0x30a>
34182d02:	0568      	lsls	r0, r5, #21
34182d04:	d404      	bmi.n	34182d10 <HAL_RCC_OscConfig+0x314>
34182d06:	f1b8 0f00 	cmp.w	r8, #0
34182d0a:	d113      	bne.n	34182d34 <HAL_RCC_OscConfig+0x338>
34182d0c:	0529      	lsls	r1, r5, #20
34182d0e:	d511      	bpl.n	34182d34 <HAL_RCC_OscConfig+0x338>
34182d10:	2a00      	cmp	r2, #0
34182d12:	f43f ae77 	beq.w	34182a04 <HAL_RCC_OscConfig+0x8>
34182d16:	4a96      	ldr	r2, [pc, #600]	@ (34182f70 <HAL_RCC_OscConfig+0x574>)
34182d18:	6921      	ldr	r1, [r4, #16]
34182d1a:	6c93      	ldr	r3, [r2, #72]	@ 0x48
34182d1c:	f423 73c0 	bic.w	r3, r3, #384	@ 0x180
34182d20:	430b      	orrs	r3, r1
34182d22:	6493      	str	r3, [r2, #72]	@ 0x48
34182d24:	6c93      	ldr	r3, [r2, #72]	@ 0x48
34182d26:	6961      	ldr	r1, [r4, #20]
34182d28:	f423 03fe 	bic.w	r3, r3, #8323072	@ 0x7f0000
34182d2c:	ea43 4301 	orr.w	r3, r3, r1, lsl #16
34182d30:	6493      	str	r3, [r2, #72]	@ 0x48
34182d32:	e68b      	b.n	34182a4c <HAL_RCC_OscConfig+0x50>
34182d34:	2308      	movs	r3, #8
34182d36:	b182      	cbz	r2, 34182d5a <HAL_RCC_OscConfig+0x35e>
34182d38:	4a8d      	ldr	r2, [pc, #564]	@ (34182f70 <HAL_RCC_OscConfig+0x574>)
34182d3a:	f8c2 3800 	str.w	r3, [r2, #2048]	@ 0x800
34182d3e:	f7ff fa31 	bl	341821a4 <HAL_GetTick>
34182d42:	9001      	str	r0, [sp, #4]
34182d44:	f7ff fc82 	bl	3418264c <LL_RCC_HSI_IsReady>
34182d48:	2800      	cmp	r0, #0
34182d4a:	d1e4      	bne.n	34182d16 <HAL_RCC_OscConfig+0x31a>
34182d4c:	f7ff fa2a 	bl	341821a4 <HAL_GetTick>
34182d50:	9b01      	ldr	r3, [sp, #4]
34182d52:	1ac0      	subs	r0, r0, r3
34182d54:	2801      	cmp	r0, #1
34182d56:	d9f5      	bls.n	34182d44 <HAL_RCC_OscConfig+0x348>
34182d58:	e78f      	b.n	34182c7a <HAL_RCC_OscConfig+0x27e>
34182d5a:	4a86      	ldr	r2, [pc, #536]	@ (34182f74 <HAL_RCC_OscConfig+0x578>)
34182d5c:	6013      	str	r3, [r2, #0]
34182d5e:	f7ff fa21 	bl	341821a4 <HAL_GetTick>
34182d62:	9001      	str	r0, [sp, #4]
34182d64:	f7ff fc72 	bl	3418264c <LL_RCC_HSI_IsReady>
34182d68:	2800      	cmp	r0, #0
34182d6a:	f43f ae6f 	beq.w	34182a4c <HAL_RCC_OscConfig+0x50>
34182d6e:	f7ff fa19 	bl	341821a4 <HAL_GetTick>
34182d72:	9b01      	ldr	r3, [sp, #4]
34182d74:	1ac0      	subs	r0, r0, r3
34182d76:	2801      	cmp	r0, #1
34182d78:	d9f4      	bls.n	34182d64 <HAL_RCC_OscConfig+0x368>
34182d7a:	e77e      	b.n	34182c7a <HAL_RCC_OscConfig+0x27e>
34182d7c:	b1bb      	cbz	r3, 34182dae <HAL_RCC_OscConfig+0x3b2>
34182d7e:	4a7c      	ldr	r2, [pc, #496]	@ (34182f70 <HAL_RCC_OscConfig+0x574>)
34182d80:	6a21      	ldr	r1, [r4, #32]
34182d82:	6c53      	ldr	r3, [r2, #68]	@ 0x44
34182d84:	f423 7300 	bic.w	r3, r3, #512	@ 0x200
34182d88:	430b      	orrs	r3, r1
34182d8a:	6453      	str	r3, [r2, #68]	@ 0x44
34182d8c:	2304      	movs	r3, #4
34182d8e:	f8c2 3800 	str.w	r3, [r2, #2048]	@ 0x800
34182d92:	f7ff fa07 	bl	341821a4 <HAL_GetTick>
34182d96:	4605      	mov	r5, r0
34182d98:	f7ff fc60 	bl	3418265c <LL_RCC_MSI_IsReady>
34182d9c:	2800      	cmp	r0, #0
34182d9e:	f47f ae77 	bne.w	34182a90 <HAL_RCC_OscConfig+0x94>
34182da2:	f7ff f9ff 	bl	341821a4 <HAL_GetTick>
34182da6:	1b40      	subs	r0, r0, r5
34182da8:	2801      	cmp	r0, #1
34182daa:	d9f5      	bls.n	34182d98 <HAL_RCC_OscConfig+0x39c>
34182dac:	e765      	b.n	34182c7a <HAL_RCC_OscConfig+0x27e>
34182dae:	2204      	movs	r2, #4
34182db0:	4b70      	ldr	r3, [pc, #448]	@ (34182f74 <HAL_RCC_OscConfig+0x578>)
34182db2:	601a      	str	r2, [r3, #0]
34182db4:	f7ff f9f6 	bl	341821a4 <HAL_GetTick>
34182db8:	4605      	mov	r5, r0
34182dba:	f7ff fc4f 	bl	3418265c <LL_RCC_MSI_IsReady>
34182dbe:	2800      	cmp	r0, #0
34182dc0:	f43f ae6e 	beq.w	34182aa0 <HAL_RCC_OscConfig+0xa4>
34182dc4:	f7ff f9ee 	bl	341821a4 <HAL_GetTick>
34182dc8:	1b40      	subs	r0, r0, r5
34182dca:	2801      	cmp	r0, #1
34182dcc:	d9f5      	bls.n	34182dba <HAL_RCC_OscConfig+0x3be>
34182dce:	e754      	b.n	34182c7a <HAL_RCC_OscConfig+0x27e>
34182dd0:	69a2      	ldr	r2, [r4, #24]
34182dd2:	2301      	movs	r3, #1
34182dd4:	b18a      	cbz	r2, 34182dfa <HAL_RCC_OscConfig+0x3fe>
34182dd6:	f8df 8198 	ldr.w	r8, [pc, #408]	@ 34182f70 <HAL_RCC_OscConfig+0x574>
34182dda:	f8c8 3800 	str.w	r3, [r8, #2048]	@ 0x800
34182dde:	f7ff f9e1 	bl	341821a4 <HAL_GetTick>
34182de2:	4605      	mov	r5, r0
34182de4:	f8d8 3004 	ldr.w	r3, [r8, #4]
34182de8:	07da      	lsls	r2, r3, #31
34182dea:	f53f ae5d 	bmi.w	34182aa8 <HAL_RCC_OscConfig+0xac>
34182dee:	f7ff f9d9 	bl	341821a4 <HAL_GetTick>
34182df2:	1b40      	subs	r0, r0, r5
34182df4:	2801      	cmp	r0, #1
34182df6:	d9f5      	bls.n	34182de4 <HAL_RCC_OscConfig+0x3e8>
34182df8:	e73f      	b.n	34182c7a <HAL_RCC_OscConfig+0x27e>
34182dfa:	4a5e      	ldr	r2, [pc, #376]	@ (34182f74 <HAL_RCC_OscConfig+0x578>)
34182dfc:	f8df 8170 	ldr.w	r8, [pc, #368]	@ 34182f70 <HAL_RCC_OscConfig+0x574>
34182e00:	6013      	str	r3, [r2, #0]
34182e02:	f7ff f9cf 	bl	341821a4 <HAL_GetTick>
34182e06:	4605      	mov	r5, r0
34182e08:	f8d8 3004 	ldr.w	r3, [r8, #4]
34182e0c:	07db      	lsls	r3, r3, #31
34182e0e:	f57f ae4b 	bpl.w	34182aa8 <HAL_RCC_OscConfig+0xac>
34182e12:	f7ff f9c7 	bl	341821a4 <HAL_GetTick>
34182e16:	1b40      	subs	r0, r0, r5
34182e18:	2801      	cmp	r0, #1
34182e1a:	d9f5      	bls.n	34182e08 <HAL_RCC_OscConfig+0x40c>
34182e1c:	e72d      	b.n	34182c7a <HAL_RCC_OscConfig+0x27e>
34182e1e:	68a3      	ldr	r3, [r4, #8]
34182e20:	4d53      	ldr	r5, [pc, #332]	@ (34182f70 <HAL_RCC_OscConfig+0x574>)
34182e22:	2b02      	cmp	r3, #2
34182e24:	d113      	bne.n	34182e4e <HAL_RCC_OscConfig+0x452>
34182e26:	f8c5 3800 	str.w	r3, [r5, #2048]	@ 0x800
34182e2a:	f7ff f9bb 	bl	341821a4 <HAL_GetTick>
34182e2e:	f241 3888 	movw	r8, #5000	@ 0x1388
34182e32:	4605      	mov	r5, r0
34182e34:	f8df 9138 	ldr.w	r9, [pc, #312]	@ 34182f70 <HAL_RCC_OscConfig+0x574>
34182e38:	f8d9 3004 	ldr.w	r3, [r9, #4]
34182e3c:	0798      	lsls	r0, r3, #30
34182e3e:	f53f ae37 	bmi.w	34182ab0 <HAL_RCC_OscConfig+0xb4>
34182e42:	f7ff f9af 	bl	341821a4 <HAL_GetTick>
34182e46:	1b43      	subs	r3, r0, r5
34182e48:	4543      	cmp	r3, r8
34182e4a:	d9f5      	bls.n	34182e38 <HAL_RCC_OscConfig+0x43c>
34182e4c:	e715      	b.n	34182c7a <HAL_RCC_OscConfig+0x27e>
34182e4e:	b9d3      	cbnz	r3, 34182e86 <HAL_RCC_OscConfig+0x48a>
34182e50:	2202      	movs	r2, #2
34182e52:	4b48      	ldr	r3, [pc, #288]	@ (34182f74 <HAL_RCC_OscConfig+0x578>)
34182e54:	f241 3988 	movw	r9, #5000	@ 0x1388
34182e58:	601a      	str	r2, [r3, #0]
34182e5a:	6c2b      	ldr	r3, [r5, #64]	@ 0x40
34182e5c:	f423 3380 	bic.w	r3, r3, #65536	@ 0x10000
34182e60:	642b      	str	r3, [r5, #64]	@ 0x40
34182e62:	6c2b      	ldr	r3, [r5, #64]	@ 0x40
34182e64:	f423 4300 	bic.w	r3, r3, #32768	@ 0x8000
34182e68:	642b      	str	r3, [r5, #64]	@ 0x40
34182e6a:	f7ff f99b 	bl	341821a4 <HAL_GetTick>
34182e6e:	4680      	mov	r8, r0
34182e70:	686b      	ldr	r3, [r5, #4]
34182e72:	0799      	lsls	r1, r3, #30
34182e74:	f57f ae1c 	bpl.w	34182ab0 <HAL_RCC_OscConfig+0xb4>
34182e78:	f7ff f994 	bl	341821a4 <HAL_GetTick>
34182e7c:	eba0 0308 	sub.w	r3, r0, r8
34182e80:	454b      	cmp	r3, r9
34182e82:	d9f5      	bls.n	34182e70 <HAL_RCC_OscConfig+0x474>
34182e84:	e6f9      	b.n	34182c7a <HAL_RCC_OscConfig+0x27e>
34182e86:	f248 0202 	movw	r2, #32770	@ 0x8002
34182e8a:	4293      	cmp	r3, r2
34182e8c:	d109      	bne.n	34182ea2 <HAL_RCC_OscConfig+0x4a6>
34182e8e:	6c2b      	ldr	r3, [r5, #64]	@ 0x40
34182e90:	f443 4300 	orr.w	r3, r3, #32768	@ 0x8000
34182e94:	642b      	str	r3, [r5, #64]	@ 0x40
34182e96:	6c2b      	ldr	r3, [r5, #64]	@ 0x40
34182e98:	f423 3380 	bic.w	r3, r3, #65536	@ 0x10000
34182e9c:	642b      	str	r3, [r5, #64]	@ 0x40
34182e9e:	2302      	movs	r3, #2
34182ea0:	e7c1      	b.n	34182e26 <HAL_RCC_OscConfig+0x42a>
34182ea2:	4a35      	ldr	r2, [pc, #212]	@ (34182f78 <HAL_RCC_OscConfig+0x57c>)
34182ea4:	4293      	cmp	r3, r2
34182ea6:	d107      	bne.n	34182eb8 <HAL_RCC_OscConfig+0x4bc>
34182ea8:	6c2b      	ldr	r3, [r5, #64]	@ 0x40
34182eaa:	f443 4300 	orr.w	r3, r3, #32768	@ 0x8000
34182eae:	642b      	str	r3, [r5, #64]	@ 0x40
34182eb0:	6c2b      	ldr	r3, [r5, #64]	@ 0x40
34182eb2:	f443 3380 	orr.w	r3, r3, #65536	@ 0x10000
34182eb6:	e7f1      	b.n	34182e9c <HAL_RCC_OscConfig+0x4a0>
34182eb8:	2202      	movs	r2, #2
34182eba:	4b2e      	ldr	r3, [pc, #184]	@ (34182f74 <HAL_RCC_OscConfig+0x578>)
34182ebc:	601a      	str	r2, [r3, #0]
34182ebe:	6c2b      	ldr	r3, [r5, #64]	@ 0x40
34182ec0:	f423 4300 	bic.w	r3, r3, #32768	@ 0x8000
34182ec4:	642b      	str	r3, [r5, #64]	@ 0x40
34182ec6:	6c2b      	ldr	r3, [r5, #64]	@ 0x40
34182ec8:	f423 3380 	bic.w	r3, r3, #65536	@ 0x10000
34182ecc:	642b      	str	r3, [r5, #64]	@ 0x40
34182ece:	e7ac      	b.n	34182e2a <HAL_RCC_OscConfig+0x42e>
34182ed0:	2000      	movs	r0, #0
34182ed2:	f104 0128 	add.w	r1, r4, #40	@ 0x28
34182ed6:	f7ff fbd1 	bl	3418267c <RCC_PLL_IsNewConfig>
34182eda:	4602      	mov	r2, r0
34182edc:	f7ff fbc6 	bl	3418266c <LL_RCC_PLL1_IsReady>
34182ee0:	2a01      	cmp	r2, #1
34182ee2:	d125      	bne.n	34182f30 <HAL_RCC_OscConfig+0x534>
34182ee4:	4b22      	ldr	r3, [pc, #136]	@ (34182f70 <HAL_RCC_OscConfig+0x574>)
34182ee6:	f5b7 1f40 	cmp.w	r7, #3145728	@ 0x300000
34182eea:	f8d3 50c4 	ldr.w	r5, [r3, #196]	@ 0xc4
34182eee:	f8d3 00c8 	ldr.w	r0, [r3, #200]	@ 0xc8
34182ef2:	f8d3 20d8 	ldr.w	r2, [r3, #216]	@ 0xd8
34182ef6:	f8d3 30ec 	ldr.w	r3, [r3, #236]	@ 0xec
34182efa:	d103      	bne.n	34182f04 <HAL_RCC_OscConfig+0x508>
34182efc:	f015 5f40 	tst.w	r5, #805306368	@ 0x30000000
34182f00:	f43f ad80 	beq.w	34182a04 <HAL_RCC_OscConfig+0x8>
34182f04:	f1b6 5f40 	cmp.w	r6, #805306368	@ 0x30000000
34182f08:	d10b      	bne.n	34182f22 <HAL_RCC_OscConfig+0x526>
34182f0a:	f010 5f40 	tst.w	r0, #805306368	@ 0x30000000
34182f0e:	f43f ad79 	beq.w	34182a04 <HAL_RCC_OscConfig+0x8>
34182f12:	f012 5f40 	tst.w	r2, #805306368	@ 0x30000000
34182f16:	f43f ad75 	beq.w	34182a04 <HAL_RCC_OscConfig+0x8>
34182f1a:	f013 5f40 	tst.w	r3, #805306368	@ 0x30000000
34182f1e:	f43f ad71 	beq.w	34182a04 <HAL_RCC_OscConfig+0x8>
34182f22:	2000      	movs	r0, #0
34182f24:	f7ff fbec 	bl	34182700 <RCC_PLL_Config>
34182f28:	2800      	cmp	r0, #0
34182f2a:	f43f adc5 	beq.w	34182ab8 <HAL_RCC_OscConfig+0xbc>
34182f2e:	e569      	b.n	34182a04 <HAL_RCC_OscConfig+0x8>
34182f30:	2d02      	cmp	r5, #2
34182f32:	f47f adc1 	bne.w	34182ab8 <HAL_RCC_OscConfig+0xbc>
34182f36:	2800      	cmp	r0, #0
34182f38:	f47f adbe 	bne.w	34182ab8 <HAL_RCC_OscConfig+0xbc>
34182f3c:	f7ff fcac 	bl	34182898 <RCC_PLL_Enable>
34182f40:	e7f2      	b.n	34182f28 <HAL_RCC_OscConfig+0x52c>
34182f42:	2d02      	cmp	r5, #2
34182f44:	f47f adee 	bne.w	34182b24 <HAL_RCC_OscConfig+0x128>
34182f48:	0592      	lsls	r2, r2, #22
34182f4a:	f53f adeb 	bmi.w	34182b24 <HAL_RCC_OscConfig+0x128>
34182f4e:	2001      	movs	r0, #1
34182f50:	f7ff fca2 	bl	34182898 <RCC_PLL_Enable>
34182f54:	e5e3      	b.n	34182b1e <HAL_RCC_OscConfig+0x122>
34182f56:	2d02      	cmp	r5, #2
34182f58:	f47f ae1e 	bne.w	34182b98 <HAL_RCC_OscConfig+0x19c>
34182f5c:	2800      	cmp	r0, #0
34182f5e:	f47f ae1b 	bne.w	34182b98 <HAL_RCC_OscConfig+0x19c>
34182f62:	4628      	mov	r0, r5
34182f64:	f7ff fc98 	bl	34182898 <RCC_PLL_Enable>
34182f68:	e613      	b.n	34182b92 <HAL_RCC_OscConfig+0x196>
34182f6a:	2000      	movs	r0, #0
34182f6c:	e54b      	b.n	34182a06 <HAL_RCC_OscConfig+0xa>
34182f6e:	bf00      	nop
34182f70:	56028000 	.word	0x56028000
34182f74:	56029000 	.word	0x56029000
34182f78:	00018002 	.word	0x00018002
34182f7c:	2d02      	cmp	r5, #2
34182f7e:	d1f4      	bne.n	34182f6a <HAL_RCC_OscConfig+0x56e>
34182f80:	0513      	lsls	r3, r2, #20
34182f82:	d4f2      	bmi.n	34182f6a <HAL_RCC_OscConfig+0x56e>
34182f84:	2003      	movs	r0, #3
34182f86:	f7ff fc87 	bl	34182898 <RCC_PLL_Enable>
34182f8a:	e63c      	b.n	34182c06 <HAL_RCC_OscConfig+0x20a>

34182f8c <HAL_RCC_GetCpuClockFreq>:
34182f8c:	4b1e      	ldr	r3, [pc, #120]	@ (34183008 <HAL_RCC_GetCpuClockFreq+0x7c>)
34182f8e:	b510      	push	{r4, lr}
34182f90:	6a1a      	ldr	r2, [r3, #32]
34182f92:	f402 1240 	and.w	r2, r2, #3145728	@ 0x300000
34182f96:	f5b2 1f00 	cmp.w	r2, #2097152	@ 0x200000
34182f9a:	d031      	beq.n	34183000 <HAL_RCC_GetCpuClockFreq+0x74>
34182f9c:	d806      	bhi.n	34182fac <HAL_RCC_GetCpuClockFreq+0x20>
34182f9e:	b952      	cbnz	r2, 34182fb6 <HAL_RCC_GetCpuClockFreq+0x2a>
34182fa0:	6c9b      	ldr	r3, [r3, #72]	@ 0x48
34182fa2:	481a      	ldr	r0, [pc, #104]	@ (3418300c <HAL_RCC_GetCpuClockFreq+0x80>)
34182fa4:	f3c3 13c1 	ubfx	r3, r3, #7, #2
34182fa8:	40d8      	lsrs	r0, r3
34182faa:	bd10      	pop	{r4, pc}
34182fac:	f5b2 1f40 	cmp.w	r2, #3145728	@ 0x300000
34182fb0:	d006      	beq.n	34182fc0 <HAL_RCC_GetCpuClockFreq+0x34>
34182fb2:	2000      	movs	r0, #0
34182fb4:	e7f9      	b.n	34182faa <HAL_RCC_GetCpuClockFreq+0x1e>
34182fb6:	6c5b      	ldr	r3, [r3, #68]	@ 0x44
34182fb8:	059b      	lsls	r3, r3, #22
34182fba:	d523      	bpl.n	34183004 <HAL_RCC_GetCpuClockFreq+0x78>
34182fbc:	4814      	ldr	r0, [pc, #80]	@ (34183010 <HAL_RCC_GetCpuClockFreq+0x84>)
34182fbe:	e7f4      	b.n	34182faa <HAL_RCC_GetCpuClockFreq+0x1e>
34182fc0:	f8d3 00c4 	ldr.w	r0, [r3, #196]	@ 0xc4
34182fc4:	f8d3 30c4 	ldr.w	r3, [r3, #196]	@ 0xc4
34182fc8:	f3c0 4007 	ubfx	r0, r0, #16, #8
34182fcc:	f003 5340 	and.w	r3, r3, #805306368	@ 0x30000000
34182fd0:	f1b3 5f00 	cmp.w	r3, #536870912	@ 0x20000000
34182fd4:	f100 0401 	add.w	r4, r0, #1
34182fd8:	d00f      	beq.n	34182ffa <HAL_RCC_GetCpuClockFreq+0x6e>
34182fda:	d805      	bhi.n	34182fe8 <HAL_RCC_GetCpuClockFreq+0x5c>
34182fdc:	b953      	cbnz	r3, 34182ff4 <HAL_RCC_GetCpuClockFreq+0x68>
34182fde:	f001 ff53 	bl	34184e88 <HAL_RCCEx_GetPLL1CLKFreq>
34182fe2:	fbb0 f0f4 	udiv	r0, r0, r4
34182fe6:	e7e0      	b.n	34182faa <HAL_RCC_GetCpuClockFreq+0x1e>
34182fe8:	f1b3 5f40 	cmp.w	r3, #805306368	@ 0x30000000
34182fec:	d1e1      	bne.n	34182fb2 <HAL_RCC_GetCpuClockFreq+0x26>
34182fee:	f002 f80b 	bl	34185008 <HAL_RCCEx_GetPLL4CLKFreq>
34182ff2:	e7f6      	b.n	34182fe2 <HAL_RCC_GetCpuClockFreq+0x56>
34182ff4:	f001 ff88 	bl	34184f08 <HAL_RCCEx_GetPLL2CLKFreq>
34182ff8:	e7f3      	b.n	34182fe2 <HAL_RCC_GetCpuClockFreq+0x56>
34182ffa:	f001 ffc5 	bl	34184f88 <HAL_RCCEx_GetPLL3CLKFreq>
34182ffe:	e7f0      	b.n	34182fe2 <HAL_RCC_GetCpuClockFreq+0x56>
34183000:	4804      	ldr	r0, [pc, #16]	@ (34183014 <HAL_RCC_GetCpuClockFreq+0x88>)
34183002:	e7d2      	b.n	34182faa <HAL_RCC_GetCpuClockFreq+0x1e>
34183004:	4804      	ldr	r0, [pc, #16]	@ (34183018 <HAL_RCC_GetCpuClockFreq+0x8c>)
34183006:	e7d0      	b.n	34182faa <HAL_RCC_GetCpuClockFreq+0x1e>
34183008:	56028000 	.word	0x56028000
3418300c:	03d09000 	.word	0x03d09000
34183010:	00f42400 	.word	0x00f42400
34183014:	016e3600 	.word	0x016e3600
34183018:	003d0900 	.word	0x003d0900

3418301c <HAL_RCC_ClockConfig>:
3418301c:	e92d 43f8 	stmdb	sp!, {r3, r4, r5, r6, r7, r8, r9, lr}
34183020:	4604      	mov	r4, r0
34183022:	b910      	cbnz	r0, 3418302a <HAL_RCC_ClockConfig+0xe>
34183024:	2001      	movs	r0, #1
34183026:	e8bd 83f8 	ldmia.w	sp!, {r3, r4, r5, r6, r7, r8, r9, pc}
3418302a:	6803      	ldr	r3, [r0, #0]
3418302c:	071f      	lsls	r7, r3, #28
3418302e:	d50b      	bpl.n	34183048 <HAL_RCC_ClockConfig+0x2c>
34183030:	499d      	ldr	r1, [pc, #628]	@ (341832a8 <HAL_RCC_ClockConfig+0x28c>)
34183032:	6900      	ldr	r0, [r0, #16]
34183034:	6a4a      	ldr	r2, [r1, #36]	@ 0x24
34183036:	f002 0207 	and.w	r2, r2, #7
3418303a:	4290      	cmp	r0, r2
3418303c:	bf81      	itttt	hi
3418303e:	6a4a      	ldrhi	r2, [r1, #36]	@ 0x24
34183040:	f022 0207 	bichi.w	r2, r2, #7
34183044:	4302      	orrhi	r2, r0
34183046:	624a      	strhi	r2, [r1, #36]	@ 0x24
34183048:	06de      	lsls	r6, r3, #27
3418304a:	d50b      	bpl.n	34183064 <HAL_RCC_ClockConfig+0x48>
3418304c:	4996      	ldr	r1, [pc, #600]	@ (341832a8 <HAL_RCC_ClockConfig+0x28c>)
3418304e:	6960      	ldr	r0, [r4, #20]
34183050:	6a4a      	ldr	r2, [r1, #36]	@ 0x24
34183052:	f002 0270 	and.w	r2, r2, #112	@ 0x70
34183056:	4290      	cmp	r0, r2
34183058:	bf81      	itttt	hi
3418305a:	6a4a      	ldrhi	r2, [r1, #36]	@ 0x24
3418305c:	f022 0270 	bichi.w	r2, r2, #112	@ 0x70
34183060:	4302      	orrhi	r2, r0
34183062:	624a      	strhi	r2, [r1, #36]	@ 0x24
34183064:	069d      	lsls	r5, r3, #26
34183066:	d50b      	bpl.n	34183080 <HAL_RCC_ClockConfig+0x64>
34183068:	498f      	ldr	r1, [pc, #572]	@ (341832a8 <HAL_RCC_ClockConfig+0x28c>)
3418306a:	69a0      	ldr	r0, [r4, #24]
3418306c:	6a4a      	ldr	r2, [r1, #36]	@ 0x24
3418306e:	f402 42e0 	and.w	r2, r2, #28672	@ 0x7000
34183072:	4290      	cmp	r0, r2
34183074:	bf81      	itttt	hi
34183076:	6a4a      	ldrhi	r2, [r1, #36]	@ 0x24
34183078:	f422 42e0 	bichi.w	r2, r2, #28672	@ 0x7000
3418307c:	4302      	orrhi	r2, r0
3418307e:	624a      	strhi	r2, [r1, #36]	@ 0x24
34183080:	0658      	lsls	r0, r3, #25
34183082:	d50b      	bpl.n	3418309c <HAL_RCC_ClockConfig+0x80>
34183084:	4988      	ldr	r1, [pc, #544]	@ (341832a8 <HAL_RCC_ClockConfig+0x28c>)
34183086:	69e0      	ldr	r0, [r4, #28]
34183088:	6a4a      	ldr	r2, [r1, #36]	@ 0x24
3418308a:	f402 22e0 	and.w	r2, r2, #458752	@ 0x70000
3418308e:	4290      	cmp	r0, r2
34183090:	bf81      	itttt	hi
34183092:	6a4a      	ldrhi	r2, [r1, #36]	@ 0x24
34183094:	f422 22e0 	bichi.w	r2, r2, #458752	@ 0x70000
34183098:	4302      	orrhi	r2, r0
3418309a:	624a      	strhi	r2, [r1, #36]	@ 0x24
3418309c:	0759      	lsls	r1, r3, #29
3418309e:	d50b      	bpl.n	341830b8 <HAL_RCC_ClockConfig+0x9c>
341830a0:	4981      	ldr	r1, [pc, #516]	@ (341832a8 <HAL_RCC_ClockConfig+0x28c>)
341830a2:	68e0      	ldr	r0, [r4, #12]
341830a4:	6a4a      	ldr	r2, [r1, #36]	@ 0x24
341830a6:	f402 02e0 	and.w	r2, r2, #7340032	@ 0x700000
341830aa:	4290      	cmp	r0, r2
341830ac:	bf81      	itttt	hi
341830ae:	6a4a      	ldrhi	r2, [r1, #36]	@ 0x24
341830b0:	f422 02e0 	bichi.w	r2, r2, #7340032	@ 0x700000
341830b4:	4302      	orrhi	r2, r0
341830b6:	624a      	strhi	r2, [r1, #36]	@ 0x24
341830b8:	07da      	lsls	r2, r3, #31
341830ba:	d51d      	bpl.n	341830f8 <HAL_RCC_ClockConfig+0xdc>
341830bc:	6865      	ldr	r5, [r4, #4]
341830be:	f5b5 3f00 	cmp.w	r5, #131072	@ 0x20000
341830c2:	d15e      	bne.n	34183182 <HAL_RCC_ClockConfig+0x166>
341830c4:	4b78      	ldr	r3, [pc, #480]	@ (341832a8 <HAL_RCC_ClockConfig+0x28c>)
341830c6:	685b      	ldr	r3, [r3, #4]
341830c8:	06db      	lsls	r3, r3, #27
341830ca:	d5ab      	bpl.n	34183024 <HAL_RCC_ClockConfig+0x8>
341830cc:	4e76      	ldr	r6, [pc, #472]	@ (341832a8 <HAL_RCC_ClockConfig+0x28c>)
341830ce:	f241 3788 	movw	r7, #5000	@ 0x1388
341830d2:	6a33      	ldr	r3, [r6, #32]
341830d4:	f423 3340 	bic.w	r3, r3, #196608	@ 0x30000
341830d8:	432b      	orrs	r3, r5
341830da:	6233      	str	r3, [r6, #32]
341830dc:	f7ff f862 	bl	341821a4 <HAL_GetTick>
341830e0:	4605      	mov	r5, r0
341830e2:	6a33      	ldr	r3, [r6, #32]
341830e4:	6862      	ldr	r2, [r4, #4]
341830e6:	f403 1340 	and.w	r3, r3, #3145728	@ 0x300000
341830ea:	ebb3 1f02 	cmp.w	r3, r2, lsl #4
341830ee:	d16b      	bne.n	341831c8 <HAL_RCC_ClockConfig+0x1ac>
341830f0:	f7ff ff4c 	bl	34182f8c <HAL_RCC_GetCpuClockFreq>
341830f4:	4b6d      	ldr	r3, [pc, #436]	@ (341832ac <HAL_RCC_ClockConfig+0x290>)
341830f6:	6018      	str	r0, [r3, #0]
341830f8:	6823      	ldr	r3, [r4, #0]
341830fa:	079f      	lsls	r7, r3, #30
341830fc:	d46b      	bmi.n	341831d6 <HAL_RCC_ClockConfig+0x1ba>
341830fe:	6823      	ldr	r3, [r4, #0]
34183100:	075e      	lsls	r6, r3, #29
34183102:	f100 80d7 	bmi.w	341832b4 <HAL_RCC_ClockConfig+0x298>
34183106:	0718      	lsls	r0, r3, #28
34183108:	d50b      	bpl.n	34183122 <HAL_RCC_ClockConfig+0x106>
3418310a:	4967      	ldr	r1, [pc, #412]	@ (341832a8 <HAL_RCC_ClockConfig+0x28c>)
3418310c:	6920      	ldr	r0, [r4, #16]
3418310e:	6a4a      	ldr	r2, [r1, #36]	@ 0x24
34183110:	f002 0207 	and.w	r2, r2, #7
34183114:	4290      	cmp	r0, r2
34183116:	bf3f      	itttt	cc
34183118:	6a4a      	ldrcc	r2, [r1, #36]	@ 0x24
3418311a:	f022 0207 	biccc.w	r2, r2, #7
3418311e:	4302      	orrcc	r2, r0
34183120:	624a      	strcc	r2, [r1, #36]	@ 0x24
34183122:	06d9      	lsls	r1, r3, #27
34183124:	d50b      	bpl.n	3418313e <HAL_RCC_ClockConfig+0x122>
34183126:	4960      	ldr	r1, [pc, #384]	@ (341832a8 <HAL_RCC_ClockConfig+0x28c>)
34183128:	6960      	ldr	r0, [r4, #20]
3418312a:	6a4a      	ldr	r2, [r1, #36]	@ 0x24
3418312c:	f002 0270 	and.w	r2, r2, #112	@ 0x70
34183130:	4290      	cmp	r0, r2
34183132:	bf3f      	itttt	cc
34183134:	6a4a      	ldrcc	r2, [r1, #36]	@ 0x24
34183136:	f022 0270 	biccc.w	r2, r2, #112	@ 0x70
3418313a:	4302      	orrcc	r2, r0
3418313c:	624a      	strcc	r2, [r1, #36]	@ 0x24
3418313e:	069a      	lsls	r2, r3, #26
34183140:	d50b      	bpl.n	3418315a <HAL_RCC_ClockConfig+0x13e>
34183142:	4959      	ldr	r1, [pc, #356]	@ (341832a8 <HAL_RCC_ClockConfig+0x28c>)
34183144:	69a0      	ldr	r0, [r4, #24]
34183146:	6a4a      	ldr	r2, [r1, #36]	@ 0x24
34183148:	f402 42e0 	and.w	r2, r2, #28672	@ 0x7000
3418314c:	4290      	cmp	r0, r2
3418314e:	bf3f      	itttt	cc
34183150:	6a4a      	ldrcc	r2, [r1, #36]	@ 0x24
34183152:	f422 42e0 	biccc.w	r2, r2, #28672	@ 0x7000
34183156:	4302      	orrcc	r2, r0
34183158:	624a      	strcc	r2, [r1, #36]	@ 0x24
3418315a:	065b      	lsls	r3, r3, #25
3418315c:	d50b      	bpl.n	34183176 <HAL_RCC_ClockConfig+0x15a>
3418315e:	4a52      	ldr	r2, [pc, #328]	@ (341832a8 <HAL_RCC_ClockConfig+0x28c>)
34183160:	69e1      	ldr	r1, [r4, #28]
34183162:	6a53      	ldr	r3, [r2, #36]	@ 0x24
34183164:	f403 23e0 	and.w	r3, r3, #458752	@ 0x70000
34183168:	4299      	cmp	r1, r3
3418316a:	bf3f      	itttt	cc
3418316c:	6a53      	ldrcc	r3, [r2, #36]	@ 0x24
3418316e:	f423 23e0 	biccc.w	r3, r3, #458752	@ 0x70000
34183172:	430b      	orrcc	r3, r1
34183174:	6253      	strcc	r3, [r2, #36]	@ 0x24
34183176:	4b4e      	ldr	r3, [pc, #312]	@ (341832b0 <HAL_RCC_ClockConfig+0x294>)
34183178:	6818      	ldr	r0, [r3, #0]
3418317a:	e8bd 43f8 	ldmia.w	sp!, {r3, r4, r5, r6, r7, r8, r9, lr}
3418317e:	f7fe bfcd 	b.w	3418211c <HAL_InitTick>
34183182:	f5b5 3f40 	cmp.w	r5, #196608	@ 0x30000
34183186:	d114      	bne.n	341831b2 <HAL_RCC_ClockConfig+0x196>
34183188:	4f47      	ldr	r7, [pc, #284]	@ (341832a8 <HAL_RCC_ClockConfig+0x28c>)
3418318a:	6a26      	ldr	r6, [r4, #32]
3418318c:	f8d7 00c4 	ldr.w	r0, [r7, #196]	@ 0xc4
34183190:	4631      	mov	r1, r6
34183192:	f000 5040 	and.w	r0, r0, #805306368	@ 0x30000000
34183196:	f7ff fbd7 	bl	34182948 <RCC_IC_CheckPLLSources>
3418319a:	2801      	cmp	r0, #1
3418319c:	f47f af42 	bne.w	34183024 <HAL_RCC_ClockConfig+0x8>
341831a0:	6a63      	ldr	r3, [r4, #36]	@ 0x24
341831a2:	3b01      	subs	r3, #1
341831a4:	ea46 4603 	orr.w	r6, r6, r3, lsl #16
341831a8:	f8c7 60c4 	str.w	r6, [r7, #196]	@ 0xc4
341831ac:	f8c7 0a40 	str.w	r0, [r7, #2624]	@ 0xa40
341831b0:	e78c      	b.n	341830cc <HAL_RCC_ClockConfig+0xb0>
341831b2:	f5b5 3f80 	cmp.w	r5, #65536	@ 0x10000
341831b6:	d104      	bne.n	341831c2 <HAL_RCC_ClockConfig+0x1a6>
341831b8:	f7ff fa50 	bl	3418265c <LL_RCC_MSI_IsReady>
341831bc:	2800      	cmp	r0, #0
341831be:	d185      	bne.n	341830cc <HAL_RCC_ClockConfig+0xb0>
341831c0:	e730      	b.n	34183024 <HAL_RCC_ClockConfig+0x8>
341831c2:	f7ff fa43 	bl	3418264c <LL_RCC_HSI_IsReady>
341831c6:	e7f9      	b.n	341831bc <HAL_RCC_ClockConfig+0x1a0>
341831c8:	f7fe ffec 	bl	341821a4 <HAL_GetTick>
341831cc:	1b40      	subs	r0, r0, r5
341831ce:	42b8      	cmp	r0, r7
341831d0:	d987      	bls.n	341830e2 <HAL_RCC_ClockConfig+0xc6>
341831d2:	2003      	movs	r0, #3
341831d4:	e727      	b.n	34183026 <HAL_RCC_ClockConfig+0xa>
341831d6:	68a6      	ldr	r6, [r4, #8]
341831d8:	f1b6 7f00 	cmp.w	r6, #33554432	@ 0x2000000
341831dc:	d11d      	bne.n	3418321a <HAL_RCC_ClockConfig+0x1fe>
341831de:	4b32      	ldr	r3, [pc, #200]	@ (341832a8 <HAL_RCC_ClockConfig+0x28c>)
341831e0:	685b      	ldr	r3, [r3, #4]
341831e2:	06dd      	lsls	r5, r3, #27
341831e4:	f57f af1e 	bpl.w	34183024 <HAL_RCC_ClockConfig+0x8>
341831e8:	4d2f      	ldr	r5, [pc, #188]	@ (341832a8 <HAL_RCC_ClockConfig+0x28c>)
341831ea:	f241 3788 	movw	r7, #5000	@ 0x1388
341831ee:	6a2b      	ldr	r3, [r5, #32]
341831f0:	f023 7340 	bic.w	r3, r3, #50331648	@ 0x3000000
341831f4:	4333      	orrs	r3, r6
341831f6:	622b      	str	r3, [r5, #32]
341831f8:	f7fe ffd4 	bl	341821a4 <HAL_GetTick>
341831fc:	4606      	mov	r6, r0
341831fe:	6a2b      	ldr	r3, [r5, #32]
34183200:	68a2      	ldr	r2, [r4, #8]
34183202:	f003 5340 	and.w	r3, r3, #805306368	@ 0x30000000
34183206:	ebb3 1f02 	cmp.w	r3, r2, lsl #4
3418320a:	f43f af78 	beq.w	341830fe <HAL_RCC_ClockConfig+0xe2>
3418320e:	f7fe ffc9 	bl	341821a4 <HAL_GetTick>
34183212:	1b80      	subs	r0, r0, r6
34183214:	42b8      	cmp	r0, r7
34183216:	d9f2      	bls.n	341831fe <HAL_RCC_ClockConfig+0x1e2>
34183218:	e7db      	b.n	341831d2 <HAL_RCC_ClockConfig+0x1b6>
3418321a:	f1b6 7f40 	cmp.w	r6, #50331648	@ 0x3000000
3418321e:	d13a      	bne.n	34183296 <HAL_RCC_ClockConfig+0x27a>
34183220:	4d21      	ldr	r5, [pc, #132]	@ (341832a8 <HAL_RCC_ClockConfig+0x28c>)
34183222:	f8d4 9028 	ldr.w	r9, [r4, #40]	@ 0x28
34183226:	f8d5 00c8 	ldr.w	r0, [r5, #200]	@ 0xc8
3418322a:	4649      	mov	r1, r9
3418322c:	f000 5040 	and.w	r0, r0, #805306368	@ 0x30000000
34183230:	f7ff fb8a 	bl	34182948 <RCC_IC_CheckPLLSources>
34183234:	2801      	cmp	r0, #1
34183236:	f47f aef5 	bne.w	34183024 <HAL_RCC_ClockConfig+0x8>
3418323a:	f8d5 00d8 	ldr.w	r0, [r5, #216]	@ 0xd8
3418323e:	f8d4 8030 	ldr.w	r8, [r4, #48]	@ 0x30
34183242:	f000 5040 	and.w	r0, r0, #805306368	@ 0x30000000
34183246:	4641      	mov	r1, r8
34183248:	f7ff fb7e 	bl	34182948 <RCC_IC_CheckPLLSources>
3418324c:	2801      	cmp	r0, #1
3418324e:	f47f aee9 	bne.w	34183024 <HAL_RCC_ClockConfig+0x8>
34183252:	f8d5 00ec 	ldr.w	r0, [r5, #236]	@ 0xec
34183256:	6ba7      	ldr	r7, [r4, #56]	@ 0x38
34183258:	f000 5040 	and.w	r0, r0, #805306368	@ 0x30000000
3418325c:	4639      	mov	r1, r7
3418325e:	f7ff fb73 	bl	34182948 <RCC_IC_CheckPLLSources>
34183262:	2801      	cmp	r0, #1
34183264:	f47f aede 	bne.w	34183024 <HAL_RCC_ClockConfig+0x8>
34183268:	6ae3      	ldr	r3, [r4, #44]	@ 0x2c
3418326a:	3b01      	subs	r3, #1
3418326c:	ea49 4303 	orr.w	r3, r9, r3, lsl #16
34183270:	f8c5 30c8 	str.w	r3, [r5, #200]	@ 0xc8
34183274:	6b63      	ldr	r3, [r4, #52]	@ 0x34
34183276:	3b01      	subs	r3, #1
34183278:	ea48 4303 	orr.w	r3, r8, r3, lsl #16
3418327c:	f8c5 30d8 	str.w	r3, [r5, #216]	@ 0xd8
34183280:	6be3      	ldr	r3, [r4, #60]	@ 0x3c
34183282:	3b01      	subs	r3, #1
34183284:	ea47 4703 	orr.w	r7, r7, r3, lsl #16
34183288:	f240 4322 	movw	r3, #1058	@ 0x422
3418328c:	f8c5 70ec 	str.w	r7, [r5, #236]	@ 0xec
34183290:	f8c5 3a40 	str.w	r3, [r5, #2624]	@ 0xa40
34183294:	e7a8      	b.n	341831e8 <HAL_RCC_ClockConfig+0x1cc>
34183296:	b926      	cbnz	r6, 341832a2 <HAL_RCC_ClockConfig+0x286>
34183298:	f7ff f9d8 	bl	3418264c <LL_RCC_HSI_IsReady>
3418329c:	2800      	cmp	r0, #0
3418329e:	d1a3      	bne.n	341831e8 <HAL_RCC_ClockConfig+0x1cc>
341832a0:	e6c0      	b.n	34183024 <HAL_RCC_ClockConfig+0x8>
341832a2:	f7ff f9db 	bl	3418265c <LL_RCC_MSI_IsReady>
341832a6:	e7f9      	b.n	3418329c <HAL_RCC_ClockConfig+0x280>
341832a8:	56028000 	.word	0x56028000
341832ac:	341c0000 	.word	0x341c0000
341832b0:	341c0008 	.word	0x341c0008
341832b4:	4906      	ldr	r1, [pc, #24]	@ (341832d0 <HAL_RCC_ClockConfig+0x2b4>)
341832b6:	68e0      	ldr	r0, [r4, #12]
341832b8:	6a4a      	ldr	r2, [r1, #36]	@ 0x24
341832ba:	f402 02e0 	and.w	r2, r2, #7340032	@ 0x700000
341832be:	4290      	cmp	r0, r2
341832c0:	bf3f      	itttt	cc
341832c2:	6a4a      	ldrcc	r2, [r1, #36]	@ 0x24
341832c4:	f422 02e0 	biccc.w	r2, r2, #7340032	@ 0x700000
341832c8:	4302      	orrcc	r2, r0
341832ca:	624a      	strcc	r2, [r1, #36]	@ 0x24
341832cc:	e71b      	b.n	34183106 <HAL_RCC_ClockConfig+0xea>
341832ce:	bf00      	nop
341832d0:	56028000 	.word	0x56028000

341832d4 <HAL_RCC_GetSysClockFreq>:
341832d4:	4b05      	ldr	r3, [pc, #20]	@ (341832ec <HAL_RCC_GetSysClockFreq+0x18>)
341832d6:	f8d3 00c8 	ldr.w	r0, [r3, #200]	@ 0xc8
341832da:	f8d3 10c8 	ldr.w	r1, [r3, #200]	@ 0xc8
341832de:	f000 5040 	and.w	r0, r0, #805306368	@ 0x30000000
341832e2:	f3c1 4107 	ubfx	r1, r1, #16, #8
341832e6:	3101      	adds	r1, #1
341832e8:	f7ff baee 	b.w	341828c8 <RCC_GetSysClockFreq>
341832ec:	56028000 	.word	0x56028000

341832f0 <HAL_RCC_GetClockConfig>:
341832f0:	237f      	movs	r3, #127	@ 0x7f
341832f2:	4a1f      	ldr	r2, [pc, #124]	@ (34183370 <HAL_RCC_GetClockConfig+0x80>)
341832f4:	6003      	str	r3, [r0, #0]
341832f6:	6a13      	ldr	r3, [r2, #32]
341832f8:	091b      	lsrs	r3, r3, #4
341832fa:	f403 3140 	and.w	r1, r3, #196608	@ 0x30000
341832fe:	f003 7340 	and.w	r3, r3, #50331648	@ 0x3000000
34183302:	6041      	str	r1, [r0, #4]
34183304:	6083      	str	r3, [r0, #8]
34183306:	6a53      	ldr	r3, [r2, #36]	@ 0x24
34183308:	f403 01e0 	and.w	r1, r3, #7340032	@ 0x700000
3418330c:	60c1      	str	r1, [r0, #12]
3418330e:	f003 0107 	and.w	r1, r3, #7
34183312:	6101      	str	r1, [r0, #16]
34183314:	f003 0170 	and.w	r1, r3, #112	@ 0x70
34183318:	6141      	str	r1, [r0, #20]
3418331a:	f403 41e0 	and.w	r1, r3, #28672	@ 0x7000
3418331e:	f403 23e0 	and.w	r3, r3, #458752	@ 0x70000
34183322:	6181      	str	r1, [r0, #24]
34183324:	61c3      	str	r3, [r0, #28]
34183326:	f8d2 30c4 	ldr.w	r3, [r2, #196]	@ 0xc4
3418332a:	f003 5140 	and.w	r1, r3, #805306368	@ 0x30000000
3418332e:	f3c3 4307 	ubfx	r3, r3, #16, #8
34183332:	3301      	adds	r3, #1
34183334:	6201      	str	r1, [r0, #32]
34183336:	6243      	str	r3, [r0, #36]	@ 0x24
34183338:	f8d2 30c8 	ldr.w	r3, [r2, #200]	@ 0xc8
3418333c:	f003 5140 	and.w	r1, r3, #805306368	@ 0x30000000
34183340:	f3c3 4307 	ubfx	r3, r3, #16, #8
34183344:	3301      	adds	r3, #1
34183346:	6281      	str	r1, [r0, #40]	@ 0x28
34183348:	62c3      	str	r3, [r0, #44]	@ 0x2c
3418334a:	f8d2 30d8 	ldr.w	r3, [r2, #216]	@ 0xd8
3418334e:	f003 5140 	and.w	r1, r3, #805306368	@ 0x30000000
34183352:	f3c3 4307 	ubfx	r3, r3, #16, #8
34183356:	3301      	adds	r3, #1
34183358:	6301      	str	r1, [r0, #48]	@ 0x30
3418335a:	6343      	str	r3, [r0, #52]	@ 0x34
3418335c:	f8d2 30ec 	ldr.w	r3, [r2, #236]	@ 0xec
34183360:	f003 5240 	and.w	r2, r3, #805306368	@ 0x30000000
34183364:	f3c3 4307 	ubfx	r3, r3, #16, #8
34183368:	3301      	adds	r3, #1
3418336a:	6382      	str	r2, [r0, #56]	@ 0x38
3418336c:	63c3      	str	r3, [r0, #60]	@ 0x3c
3418336e:	4770      	bx	lr
34183370:	56028000 	.word	0x56028000

34183374 <LL_RCC_HSE_SelectHSEAsDiv2Clock>:
34183374:	4a02      	ldr	r2, [pc, #8]	@ (34183380 <LL_RCC_HSE_SelectHSEAsDiv2Clock+0xc>)
34183376:	6d53      	ldr	r3, [r2, #84]	@ 0x54
34183378:	f023 0340 	bic.w	r3, r3, #64	@ 0x40
3418337c:	6553      	str	r3, [r2, #84]	@ 0x54
3418337e:	4770      	bx	lr
34183380:	56028000 	.word	0x56028000

34183384 <LL_RCC_HSE_SelectHSEDiv2AsDiv2Clock>:
34183384:	4a02      	ldr	r2, [pc, #8]	@ (34183390 <LL_RCC_HSE_SelectHSEDiv2AsDiv2Clock+0xc>)
34183386:	6d53      	ldr	r3, [r2, #84]	@ 0x54
34183388:	f043 0340 	orr.w	r3, r3, #64	@ 0x40
3418338c:	6553      	str	r3, [r2, #84]	@ 0x54
3418338e:	4770      	bx	lr
34183390:	56028000 	.word	0x56028000

34183394 <LL_RCC_HSE_IsSelectedHSEDiv2AsDiv2Clock>:
34183394:	4b02      	ldr	r3, [pc, #8]	@ (341833a0 <LL_RCC_HSE_IsSelectedHSEDiv2AsDiv2Clock+0xc>)
34183396:	6d58      	ldr	r0, [r3, #84]	@ 0x54
34183398:	f3c0 1080 	ubfx	r0, r0, #6, #1
3418339c:	4770      	bx	lr
3418339e:	bf00      	nop
341833a0:	56028000 	.word	0x56028000

341833a4 <LL_RCC_HSE_IsReady>:
341833a4:	4b02      	ldr	r3, [pc, #8]	@ (341833b0 <LL_RCC_HSE_IsReady+0xc>)
341833a6:	6858      	ldr	r0, [r3, #4]
341833a8:	f3c0 1000 	ubfx	r0, r0, #4, #1
341833ac:	4770      	bx	lr
341833ae:	bf00      	nop
341833b0:	56028000 	.word	0x56028000

341833b4 <LL_RCC_HSI_IsReady>:
341833b4:	4b02      	ldr	r3, [pc, #8]	@ (341833c0 <LL_RCC_HSI_IsReady+0xc>)
341833b6:	6858      	ldr	r0, [r3, #4]
341833b8:	f3c0 00c0 	ubfx	r0, r0, #3, #1
341833bc:	4770      	bx	lr
341833be:	bf00      	nop
341833c0:	56028000 	.word	0x56028000

341833c4 <LL_RCC_MSI_IsReady>:
341833c4:	4b02      	ldr	r3, [pc, #8]	@ (341833d0 <LL_RCC_MSI_IsReady+0xc>)
341833c6:	6858      	ldr	r0, [r3, #4]
341833c8:	f3c0 0080 	ubfx	r0, r0, #2, #1
341833cc:	4770      	bx	lr
341833ce:	bf00      	nop
341833d0:	56028000 	.word	0x56028000

341833d4 <LL_RCC_LSE_IsReady>:
341833d4:	4b02      	ldr	r3, [pc, #8]	@ (341833e0 <LL_RCC_LSE_IsReady+0xc>)
341833d6:	6858      	ldr	r0, [r3, #4]
341833d8:	f3c0 0040 	ubfx	r0, r0, #1, #1
341833dc:	4770      	bx	lr
341833de:	bf00      	nop
341833e0:	56028000 	.word	0x56028000

341833e4 <LL_RCC_SetClockSource>:
341833e4:	4907      	ldr	r1, [pc, #28]	@ (34183404 <LL_RCC_SetClockSource+0x20>)
341833e6:	b530      	push	{r4, r5, lr}
341833e8:	b2c4      	uxtb	r4, r0
341833ea:	f3c0 2504 	ubfx	r5, r0, #8, #5
341833ee:	5863      	ldr	r3, [r4, r1]
341833f0:	0e02      	lsrs	r2, r0, #24
341833f2:	40aa      	lsls	r2, r5
341833f4:	f3c0 4007 	ubfx	r0, r0, #16, #8
341833f8:	ea23 0302 	bic.w	r3, r3, r2
341833fc:	40a8      	lsls	r0, r5
341833fe:	4303      	orrs	r3, r0
34183400:	5063      	str	r3, [r4, r1]
34183402:	bd30      	pop	{r4, r5, pc}
34183404:	56028144 	.word	0x56028144

34183408 <LL_RCC_GetClockSource>:
34183408:	4b05      	ldr	r3, [pc, #20]	@ (34183420 <LL_RCC_GetClockSource+0x18>)
3418340a:	b2c2      	uxtb	r2, r0
3418340c:	58d1      	ldr	r1, [r2, r3]
3418340e:	f3c0 2204 	ubfx	r2, r0, #8, #5
34183412:	0e03      	lsrs	r3, r0, #24
34183414:	4093      	lsls	r3, r2
34183416:	400b      	ands	r3, r1
34183418:	40d3      	lsrs	r3, r2
3418341a:	ea40 4003 	orr.w	r0, r0, r3, lsl #16
3418341e:	4770      	bx	lr
34183420:	56028144 	.word	0x56028144

34183424 <LL_RCC_IC7_IsEnabled>:
34183424:	4b02      	ldr	r3, [pc, #8]	@ (34183430 <LL_RCC_IC7_IsEnabled+0xc>)
34183426:	f8d3 0240 	ldr.w	r0, [r3, #576]	@ 0x240
3418342a:	f3c0 1080 	ubfx	r0, r0, #6, #1
3418342e:	4770      	bx	lr
34183430:	56028000 	.word	0x56028000

34183434 <LL_RCC_IC7_GetDivider>:
34183434:	4b03      	ldr	r3, [pc, #12]	@ (34183444 <LL_RCC_IC7_GetDivider+0x10>)
34183436:	f8d3 00dc 	ldr.w	r0, [r3, #220]	@ 0xdc
3418343a:	f3c0 4007 	ubfx	r0, r0, #16, #8
3418343e:	3001      	adds	r0, #1
34183440:	4770      	bx	lr
34183442:	bf00      	nop
34183444:	56028000 	.word	0x56028000

34183448 <LL_RCC_IC8_IsEnabled>:
34183448:	4b02      	ldr	r3, [pc, #8]	@ (34183454 <LL_RCC_IC8_IsEnabled+0xc>)
3418344a:	f8d3 0240 	ldr.w	r0, [r3, #576]	@ 0x240
3418344e:	f3c0 10c0 	ubfx	r0, r0, #7, #1
34183452:	4770      	bx	lr
34183454:	56028000 	.word	0x56028000

34183458 <LL_RCC_IC8_GetDivider>:
34183458:	4b03      	ldr	r3, [pc, #12]	@ (34183468 <LL_RCC_IC8_GetDivider+0x10>)
3418345a:	f8d3 00e0 	ldr.w	r0, [r3, #224]	@ 0xe0
3418345e:	f3c0 4007 	ubfx	r0, r0, #16, #8
34183462:	3001      	adds	r0, #1
34183464:	4770      	bx	lr
34183466:	bf00      	nop
34183468:	56028000 	.word	0x56028000

3418346c <LL_RCC_IC9_IsEnabled>:
3418346c:	4b02      	ldr	r3, [pc, #8]	@ (34183478 <LL_RCC_IC9_IsEnabled+0xc>)
3418346e:	f8d3 0240 	ldr.w	r0, [r3, #576]	@ 0x240
34183472:	f3c0 2000 	ubfx	r0, r0, #8, #1
34183476:	4770      	bx	lr
34183478:	56028000 	.word	0x56028000

3418347c <LL_RCC_IC9_GetDivider>:
3418347c:	4b03      	ldr	r3, [pc, #12]	@ (3418348c <LL_RCC_IC9_GetDivider+0x10>)
3418347e:	f8d3 00e4 	ldr.w	r0, [r3, #228]	@ 0xe4
34183482:	f3c0 4007 	ubfx	r0, r0, #16, #8
34183486:	3001      	adds	r0, #1
34183488:	4770      	bx	lr
3418348a:	bf00      	nop
3418348c:	56028000 	.word	0x56028000

34183490 <LL_RCC_IC14_IsEnabled>:
34183490:	4b02      	ldr	r3, [pc, #8]	@ (3418349c <LL_RCC_IC14_IsEnabled+0xc>)
34183492:	f8d3 0240 	ldr.w	r0, [r3, #576]	@ 0x240
34183496:	f3c0 3040 	ubfx	r0, r0, #13, #1
3418349a:	4770      	bx	lr
3418349c:	56028000 	.word	0x56028000

341834a0 <LL_RCC_IC14_GetDivider>:
341834a0:	4b03      	ldr	r3, [pc, #12]	@ (341834b0 <LL_RCC_IC14_GetDivider+0x10>)
341834a2:	f8d3 00f8 	ldr.w	r0, [r3, #248]	@ 0xf8
341834a6:	f3c0 4007 	ubfx	r0, r0, #16, #8
341834aa:	3001      	adds	r0, #1
341834ac:	4770      	bx	lr
341834ae:	bf00      	nop
341834b0:	56028000 	.word	0x56028000

341834b4 <LL_RCC_IC15_IsEnabled>:
341834b4:	4b02      	ldr	r3, [pc, #8]	@ (341834c0 <LL_RCC_IC15_IsEnabled+0xc>)
341834b6:	f8d3 0240 	ldr.w	r0, [r3, #576]	@ 0x240
341834ba:	f3c0 3080 	ubfx	r0, r0, #14, #1
341834be:	4770      	bx	lr
341834c0:	56028000 	.word	0x56028000

341834c4 <LL_RCC_IC15_GetDivider>:
341834c4:	4b03      	ldr	r3, [pc, #12]	@ (341834d4 <LL_RCC_IC15_GetDivider+0x10>)
341834c6:	f8d3 00fc 	ldr.w	r0, [r3, #252]	@ 0xfc
341834ca:	f3c0 4007 	ubfx	r0, r0, #16, #8
341834ce:	3001      	adds	r0, #1
341834d0:	4770      	bx	lr
341834d2:	bf00      	nop
341834d4:	56028000 	.word	0x56028000

341834d8 <RCCEx_GetHCLKFreq>:
341834d8:	4b02      	ldr	r3, [pc, #8]	@ (341834e4 <RCCEx_GetHCLKFreq+0xc>)
341834da:	6a5b      	ldr	r3, [r3, #36]	@ 0x24
341834dc:	f3c3 5302 	ubfx	r3, r3, #20, #3
341834e0:	40d8      	lsrs	r0, r3
341834e2:	4770      	bx	lr
341834e4:	56028000 	.word	0x56028000

341834e8 <RCCEx_GetPLLSourceFreq>:
341834e8:	f1b0 5f00 	cmp.w	r0, #536870912	@ 0x20000000
341834ec:	b508      	push	{r3, lr}
341834ee:	d01a      	beq.n	34183526 <RCCEx_GetPLLSourceFreq+0x3e>
341834f0:	d80a      	bhi.n	34183508 <RCCEx_GetPLLSourceFreq+0x20>
341834f2:	b970      	cbnz	r0, 34183512 <RCCEx_GetPLLSourceFreq+0x2a>
341834f4:	f7ff ff5e 	bl	341833b4 <LL_RCC_HSI_IsReady>
341834f8:	b148      	cbz	r0, 3418350e <RCCEx_GetPLLSourceFreq+0x26>
341834fa:	4b10      	ldr	r3, [pc, #64]	@ (3418353c <RCCEx_GetPLLSourceFreq+0x54>)
341834fc:	4810      	ldr	r0, [pc, #64]	@ (34183540 <RCCEx_GetPLLSourceFreq+0x58>)
341834fe:	6c9b      	ldr	r3, [r3, #72]	@ 0x48
34183500:	f3c3 13c1 	ubfx	r3, r3, #7, #2
34183504:	40d8      	lsrs	r0, r3
34183506:	e003      	b.n	34183510 <RCCEx_GetPLLSourceFreq+0x28>
34183508:	f1b0 5f40 	cmp.w	r0, #805306368	@ 0x30000000
3418350c:	d011      	beq.n	34183532 <RCCEx_GetPLLSourceFreq+0x4a>
3418350e:	2000      	movs	r0, #0
34183510:	bd08      	pop	{r3, pc}
34183512:	f7ff ff57 	bl	341833c4 <LL_RCC_MSI_IsReady>
34183516:	2800      	cmp	r0, #0
34183518:	d0f9      	beq.n	3418350e <RCCEx_GetPLLSourceFreq+0x26>
3418351a:	4b08      	ldr	r3, [pc, #32]	@ (3418353c <RCCEx_GetPLLSourceFreq+0x54>)
3418351c:	6c5b      	ldr	r3, [r3, #68]	@ 0x44
3418351e:	059b      	lsls	r3, r3, #22
34183520:	d409      	bmi.n	34183536 <RCCEx_GetPLLSourceFreq+0x4e>
34183522:	4808      	ldr	r0, [pc, #32]	@ (34183544 <RCCEx_GetPLLSourceFreq+0x5c>)
34183524:	e7f4      	b.n	34183510 <RCCEx_GetPLLSourceFreq+0x28>
34183526:	f7ff ff3d 	bl	341833a4 <LL_RCC_HSE_IsReady>
3418352a:	2800      	cmp	r0, #0
3418352c:	d0ef      	beq.n	3418350e <RCCEx_GetPLLSourceFreq+0x26>
3418352e:	4806      	ldr	r0, [pc, #24]	@ (34183548 <RCCEx_GetPLLSourceFreq+0x60>)
34183530:	e7ee      	b.n	34183510 <RCCEx_GetPLLSourceFreq+0x28>
34183532:	4806      	ldr	r0, [pc, #24]	@ (3418354c <RCCEx_GetPLLSourceFreq+0x64>)
34183534:	e7ec      	b.n	34183510 <RCCEx_GetPLLSourceFreq+0x28>
34183536:	4806      	ldr	r0, [pc, #24]	@ (34183550 <RCCEx_GetPLLSourceFreq+0x68>)
34183538:	e7ea      	b.n	34183510 <RCCEx_GetPLLSourceFreq+0x28>
3418353a:	bf00      	nop
3418353c:	56028000 	.word	0x56028000
34183540:	03d09000 	.word	0x03d09000
34183544:	003d0900 	.word	0x003d0900
34183548:	016e3600 	.word	0x016e3600
3418354c:	00bb8000 	.word	0x00bb8000
34183550:	00f42400 	.word	0x00f42400

34183554 <RCCEx_CalcPLLFreq>:
34183554:	ee07 2a10 	vmov	s14, r2
34183558:	ee06 3a10 	vmov	s12, r3
3418355c:	ee07 0a90 	vmov	s15, r0
34183560:	eeb8 6ac6 	vcvt.f32.s32	s12, s12
34183564:	eddf 5a10 	vldr	s11, [pc, #64]	@ 341835a8 <RCCEx_CalcPLLFreq+0x54>
34183568:	eeb8 7ac7 	vcvt.f32.s32	s14, s14
3418356c:	ee06 1a90 	vmov	s13, r1
34183570:	eea6 7a25 	vfma.f32	s14, s12, s11
34183574:	eef8 7ae7 	vcvt.f32.s32	s15, s15
34183578:	ee67 7a87 	vmul.f32	s15, s15, s14
3418357c:	eeb8 7ae6 	vcvt.f32.s32	s14, s13
34183580:	ee87 6a87 	vdiv.f32	s12, s15, s14
34183584:	eddd 7a00 	vldr	s15, [sp]
34183588:	eef8 7ae7 	vcvt.f32.s32	s15, s15
3418358c:	eec6 6a27 	vdiv.f32	s13, s12, s15
34183590:	eddd 7a01 	vldr	s15, [sp, #4]
34183594:	eef8 7ae7 	vcvt.f32.s32	s15, s15
34183598:	ee86 7aa7 	vdiv.f32	s14, s13, s15
3418359c:	eefc 7ac7 	vcvt.u32.f32	s15, s14
341835a0:	ee17 0a90 	vmov	r0, s15
341835a4:	4770      	bx	lr
341835a6:	bf00      	nop
341835a8:	33800000 	.word	0x33800000

341835ac <HAL_RCCEx_PeriphCLKConfig>:
341835ac:	6803      	ldr	r3, [r0, #0]
341835ae:	e92d 41f0 	stmdb	sp!, {r4, r5, r6, r7, r8, lr}
341835b2:	0119      	lsls	r1, r3, #4
341835b4:	4604      	mov	r4, r0
341835b6:	d52b      	bpl.n	34183610 <HAL_RCCEx_PeriphCLKConfig+0x64>
341835b8:	4b2a      	ldr	r3, [pc, #168]	@ (34183664 <HAL_RCCEx_PeriphCLKConfig+0xb8>)
341835ba:	f8d0 1188 	ldr.w	r1, [r0, #392]	@ 0x188
341835be:	f8d3 315c 	ldr.w	r3, [r3, #348]	@ 0x15c
341835c2:	f413 7340 	ands.w	r3, r3, #768	@ 0x300
341835c6:	d136      	bne.n	34183636 <HAL_RCCEx_PeriphCLKConfig+0x8a>
341835c8:	f5b1 7f80 	cmp.w	r1, #256	@ 0x100
341835cc:	d108      	bne.n	341835e0 <HAL_RCCEx_PeriphCLKConfig+0x34>
341835ce:	f7fe fde9 	bl	341821a4 <HAL_GetTick>
341835d2:	f241 3688 	movw	r6, #5000	@ 0x1388
341835d6:	4605      	mov	r5, r0
341835d8:	f7ff fefc 	bl	341833d4 <LL_RCC_LSE_IsReady>
341835dc:	2800      	cmp	r0, #0
341835de:	d039      	beq.n	34183654 <HAL_RCCEx_PeriphCLKConfig+0xa8>
341835e0:	f8d4 3188 	ldr.w	r3, [r4, #392]	@ 0x188
341835e4:	4a1f      	ldr	r2, [pc, #124]	@ (34183664 <HAL_RCCEx_PeriphCLKConfig+0xb8>)
341835e6:	f403 7040 	and.w	r0, r3, #768	@ 0x300
341835ea:	f5b0 7f40 	cmp.w	r0, #768	@ 0x300
341835ee:	d108      	bne.n	34183602 <HAL_RCCEx_PeriphCLKConfig+0x56>
341835f0:	f8d2 115c 	ldr.w	r1, [r2, #348]	@ 0x15c
341835f4:	f423 7340 	bic.w	r3, r3, #768	@ 0x300
341835f8:	f421 317c 	bic.w	r1, r1, #258048	@ 0x3f000
341835fc:	430b      	orrs	r3, r1
341835fe:	f8c2 315c 	str.w	r3, [r2, #348]	@ 0x15c
34183602:	f8d2 315c 	ldr.w	r3, [r2, #348]	@ 0x15c
34183606:	f423 7340 	bic.w	r3, r3, #768	@ 0x300
3418360a:	4303      	orrs	r3, r0
3418360c:	f8c2 315c 	str.w	r3, [r2, #348]	@ 0x15c
34183610:	f04f 0800 	mov.w	r8, #0
34183614:	e9d4 5600 	ldrd	r5, r6, [r4]
34183618:	076b      	lsls	r3, r5, #29
3418361a:	d540      	bpl.n	3418369e <HAL_RCCEx_PeriphCLKConfig+0xf2>
3418361c:	f8d4 10b8 	ldr.w	r1, [r4, #184]	@ 0xb8
34183620:	4b10      	ldr	r3, [pc, #64]	@ (34183664 <HAL_RCCEx_PeriphCLKConfig+0xb8>)
34183622:	1eca      	subs	r2, r1, #3
34183624:	2a04      	cmp	r2, #4
34183626:	d832      	bhi.n	3418368e <HAL_RCCEx_PeriphCLKConfig+0xe2>
34183628:	e8df f012 	tbh	[pc, r2, lsl #1]
3418362c:	002006cc 	.word	0x002006cc
34183630:	06ba06a8 	.word	0x06ba06a8
34183634:	06f6      	.short	0x06f6
34183636:	f401 7240 	and.w	r2, r1, #768	@ 0x300
3418363a:	429a      	cmp	r2, r3
3418363c:	d0c4      	beq.n	341835c8 <HAL_RCCEx_PeriphCLKConfig+0x1c>
3418363e:	4b0a      	ldr	r3, [pc, #40]	@ (34183668 <HAL_RCCEx_PeriphCLKConfig+0xbc>)
34183640:	6ada      	ldr	r2, [r3, #44]	@ 0x2c
34183642:	f042 0201 	orr.w	r2, r2, #1
34183646:	62da      	str	r2, [r3, #44]	@ 0x2c
34183648:	6adb      	ldr	r3, [r3, #44]	@ 0x2c
3418364a:	07da      	lsls	r2, r3, #31
3418364c:	d4bc      	bmi.n	341835c8 <HAL_RCCEx_PeriphCLKConfig+0x1c>
3418364e:	f04f 0801 	mov.w	r8, #1
34183652:	e7df      	b.n	34183614 <HAL_RCCEx_PeriphCLKConfig+0x68>
34183654:	f7fe fda6 	bl	341821a4 <HAL_GetTick>
34183658:	1b40      	subs	r0, r0, r5
3418365a:	42b0      	cmp	r0, r6
3418365c:	d9bc      	bls.n	341835d8 <HAL_RCCEx_PeriphCLKConfig+0x2c>
3418365e:	f04f 0803 	mov.w	r8, #3
34183662:	e7d7      	b.n	34183614 <HAL_RCCEx_PeriphCLKConfig+0x68>
34183664:	56028000 	.word	0x56028000
34183668:	56024800 	.word	0x56024800
3418366c:	f8d3 20d4 	ldr.w	r2, [r3, #212]	@ 0xd4
34183670:	6ae0      	ldr	r0, [r4, #44]	@ 0x2c
34183672:	6aa7      	ldr	r7, [r4, #40]	@ 0x28
34183674:	f022 5243 	bic.w	r2, r2, #817889280	@ 0x30c00000
34183678:	f422 127c 	bic.w	r2, r2, #4128768	@ 0x3f0000
3418367c:	3801      	subs	r0, #1
3418367e:	433a      	orrs	r2, r7
34183680:	ea42 4200 	orr.w	r2, r2, r0, lsl #16
34183684:	f8c3 20d4 	str.w	r2, [r3, #212]	@ 0xd4
34183688:	2210      	movs	r2, #16
3418368a:	f8c3 2a40 	str.w	r2, [r3, #2624]	@ 0xa40
3418368e:	4ac5      	ldr	r2, [pc, #788]	@ (341839a4 <HAL_RCCEx_PeriphCLKConfig+0x3f8>)
34183690:	f8d2 315c 	ldr.w	r3, [r2, #348]	@ 0x15c
34183694:	f023 0307 	bic.w	r3, r3, #7
34183698:	430b      	orrs	r3, r1
3418369a:	f8c2 315c 	str.w	r3, [r2, #348]	@ 0x15c
3418369e:	0277      	lsls	r7, r6, #9
341836a0:	d519      	bpl.n	341836d6 <HAL_RCCEx_PeriphCLKConfig+0x12a>
341836a2:	f8d4 00ac 	ldr.w	r0, [r4, #172]	@ 0xac
341836a6:	4bc0      	ldr	r3, [pc, #768]	@ (341839a8 <HAL_RCCEx_PeriphCLKConfig+0x3fc>)
341836a8:	4298      	cmp	r0, r3
341836aa:	f040 86c9 	bne.w	34184440 <HAL_RCCEx_PeriphCLKConfig+0xe94>
341836ae:	4abd      	ldr	r2, [pc, #756]	@ (341839a4 <HAL_RCCEx_PeriphCLKConfig+0x3f8>)
341836b0:	69e1      	ldr	r1, [r4, #28]
341836b2:	f8d2 30cc 	ldr.w	r3, [r2, #204]	@ 0xcc
341836b6:	69a7      	ldr	r7, [r4, #24]
341836b8:	f023 5343 	bic.w	r3, r3, #817889280	@ 0x30c00000
341836bc:	f423 137c 	bic.w	r3, r3, #4128768	@ 0x3f0000
341836c0:	3901      	subs	r1, #1
341836c2:	433b      	orrs	r3, r7
341836c4:	ea43 4301 	orr.w	r3, r3, r1, lsl #16
341836c8:	f8c2 30cc 	str.w	r3, [r2, #204]	@ 0xcc
341836cc:	2304      	movs	r3, #4
341836ce:	f8c2 3a40 	str.w	r3, [r2, #2624]	@ 0xa40
341836d2:	f7ff fe87 	bl	341833e4 <LL_RCC_SetClockSource>
341836d6:	0230      	lsls	r0, r6, #8
341836d8:	d519      	bpl.n	3418370e <HAL_RCCEx_PeriphCLKConfig+0x162>
341836da:	f8d4 00b0 	ldr.w	r0, [r4, #176]	@ 0xb0
341836de:	4bb3      	ldr	r3, [pc, #716]	@ (341839ac <HAL_RCCEx_PeriphCLKConfig+0x400>)
341836e0:	4298      	cmp	r0, r3
341836e2:	f040 86cb 	bne.w	3418447c <HAL_RCCEx_PeriphCLKConfig+0xed0>
341836e6:	4aaf      	ldr	r2, [pc, #700]	@ (341839a4 <HAL_RCCEx_PeriphCLKConfig+0x3f8>)
341836e8:	69e1      	ldr	r1, [r4, #28]
341836ea:	f8d2 30cc 	ldr.w	r3, [r2, #204]	@ 0xcc
341836ee:	69a7      	ldr	r7, [r4, #24]
341836f0:	f023 5343 	bic.w	r3, r3, #817889280	@ 0x30c00000
341836f4:	f423 137c 	bic.w	r3, r3, #4128768	@ 0x3f0000
341836f8:	3901      	subs	r1, #1
341836fa:	433b      	orrs	r3, r7
341836fc:	ea43 4301 	orr.w	r3, r3, r1, lsl #16
34183700:	f8c2 30cc 	str.w	r3, [r2, #204]	@ 0xcc
34183704:	2304      	movs	r3, #4
34183706:	f8c2 3a40 	str.w	r3, [r2, #2624]	@ 0xa40
3418370a:	f7ff fe6b 	bl	341833e4 <LL_RCC_SetClockSource>
3418370e:	01f1      	lsls	r1, r6, #7
34183710:	d519      	bpl.n	34183746 <HAL_RCCEx_PeriphCLKConfig+0x19a>
34183712:	f8d4 00b4 	ldr.w	r0, [r4, #180]	@ 0xb4
34183716:	4ba6      	ldr	r3, [pc, #664]	@ (341839b0 <HAL_RCCEx_PeriphCLKConfig+0x404>)
34183718:	4298      	cmp	r0, r3
3418371a:	f040 86cd 	bne.w	341844b8 <HAL_RCCEx_PeriphCLKConfig+0xf0c>
3418371e:	4aa1      	ldr	r2, [pc, #644]	@ (341839a4 <HAL_RCCEx_PeriphCLKConfig+0x3f8>)
34183720:	69e1      	ldr	r1, [r4, #28]
34183722:	f8d2 30cc 	ldr.w	r3, [r2, #204]	@ 0xcc
34183726:	69a7      	ldr	r7, [r4, #24]
34183728:	f023 5343 	bic.w	r3, r3, #817889280	@ 0x30c00000
3418372c:	f423 137c 	bic.w	r3, r3, #4128768	@ 0x3f0000
34183730:	3901      	subs	r1, #1
34183732:	433b      	orrs	r3, r7
34183734:	ea43 4301 	orr.w	r3, r3, r1, lsl #16
34183738:	f8c2 30cc 	str.w	r3, [r2, #204]	@ 0xcc
3418373c:	2304      	movs	r3, #4
3418373e:	f8c2 3a40 	str.w	r3, [r2, #2624]	@ 0xa40
34183742:	f7ff fe4f 	bl	341833e4 <LL_RCC_SetClockSource>
34183746:	052a      	lsls	r2, r5, #20
34183748:	d51e      	bpl.n	34183788 <HAL_RCCEx_PeriphCLKConfig+0x1dc>
3418374a:	f8d4 10a8 	ldr.w	r1, [r4, #168]	@ 0xa8
3418374e:	4a95      	ldr	r2, [pc, #596]	@ (341839a4 <HAL_RCCEx_PeriphCLKConfig+0x3f8>)
34183750:	2920      	cmp	r1, #32
34183752:	f040 86cf 	bne.w	341844f4 <HAL_RCCEx_PeriphCLKConfig+0xf48>
34183756:	f8d2 30cc 	ldr.w	r3, [r2, #204]	@ 0xcc
3418375a:	69e0      	ldr	r0, [r4, #28]
3418375c:	69a7      	ldr	r7, [r4, #24]
3418375e:	f023 5343 	bic.w	r3, r3, #817889280	@ 0x30c00000
34183762:	f423 137c 	bic.w	r3, r3, #4128768	@ 0x3f0000
34183766:	3801      	subs	r0, #1
34183768:	433b      	orrs	r3, r7
3418376a:	ea43 4300 	orr.w	r3, r3, r0, lsl #16
3418376e:	f8c2 30cc 	str.w	r3, [r2, #204]	@ 0xcc
34183772:	2304      	movs	r3, #4
34183774:	f8c2 3a40 	str.w	r3, [r2, #2624]	@ 0xa40
34183778:	4a8a      	ldr	r2, [pc, #552]	@ (341839a4 <HAL_RCCEx_PeriphCLKConfig+0x3f8>)
3418377a:	f8d2 314c 	ldr.w	r3, [r2, #332]	@ 0x14c
3418377e:	f023 0330 	bic.w	r3, r3, #48	@ 0x30
34183782:	430b      	orrs	r3, r1
34183784:	f8c2 314c 	str.w	r3, [r2, #332]	@ 0x14c
34183788:	006b      	lsls	r3, r5, #1
3418378a:	d519      	bpl.n	341837c0 <HAL_RCCEx_PeriphCLKConfig+0x214>
3418378c:	f8d4 012c 	ldr.w	r0, [r4, #300]	@ 0x12c
34183790:	4b88      	ldr	r3, [pc, #544]	@ (341839b4 <HAL_RCCEx_PeriphCLKConfig+0x408>)
34183792:	4298      	cmp	r0, r3
34183794:	f040 86c8 	bne.w	34184528 <HAL_RCCEx_PeriphCLKConfig+0xf7c>
34183798:	4a82      	ldr	r2, [pc, #520]	@ (341839a4 <HAL_RCCEx_PeriphCLKConfig+0x3f8>)
3418379a:	6a61      	ldr	r1, [r4, #36]	@ 0x24
3418379c:	f8d2 30d0 	ldr.w	r3, [r2, #208]	@ 0xd0
341837a0:	6a27      	ldr	r7, [r4, #32]
341837a2:	f023 5343 	bic.w	r3, r3, #817889280	@ 0x30c00000
341837a6:	f423 137c 	bic.w	r3, r3, #4128768	@ 0x3f0000
341837aa:	3901      	subs	r1, #1
341837ac:	433b      	orrs	r3, r7
341837ae:	ea43 4301 	orr.w	r3, r3, r1, lsl #16
341837b2:	f8c2 30d0 	str.w	r3, [r2, #208]	@ 0xd0
341837b6:	2308      	movs	r3, #8
341837b8:	f8c2 3a40 	str.w	r3, [r2, #2624]	@ 0xa40
341837bc:	f7ff fe12 	bl	341833e4 <LL_RCC_SetClockSource>
341837c0:	2d00      	cmp	r5, #0
341837c2:	da19      	bge.n	341837f8 <HAL_RCCEx_PeriphCLKConfig+0x24c>
341837c4:	f8d4 0130 	ldr.w	r0, [r4, #304]	@ 0x130
341837c8:	4b7b      	ldr	r3, [pc, #492]	@ (341839b8 <HAL_RCCEx_PeriphCLKConfig+0x40c>)
341837ca:	4298      	cmp	r0, r3
341837cc:	f040 86ca 	bne.w	34184564 <HAL_RCCEx_PeriphCLKConfig+0xfb8>
341837d0:	4a74      	ldr	r2, [pc, #464]	@ (341839a4 <HAL_RCCEx_PeriphCLKConfig+0x3f8>)
341837d2:	6a61      	ldr	r1, [r4, #36]	@ 0x24
341837d4:	f8d2 30d0 	ldr.w	r3, [r2, #208]	@ 0xd0
341837d8:	6a27      	ldr	r7, [r4, #32]
341837da:	f023 5343 	bic.w	r3, r3, #817889280	@ 0x30c00000
341837de:	f423 137c 	bic.w	r3, r3, #4128768	@ 0x3f0000
341837e2:	3901      	subs	r1, #1
341837e4:	433b      	orrs	r3, r7
341837e6:	ea43 4301 	orr.w	r3, r3, r1, lsl #16
341837ea:	f8c2 30d0 	str.w	r3, [r2, #208]	@ 0xd0
341837ee:	2308      	movs	r3, #8
341837f0:	f8c2 3a40 	str.w	r3, [r2, #2624]	@ 0xa40
341837f4:	f7ff fdf6 	bl	341833e4 <LL_RCC_SetClockSource>
341837f8:	07ef      	lsls	r7, r5, #31
341837fa:	d525      	bpl.n	34183848 <HAL_RCCEx_PeriphCLKConfig+0x29c>
341837fc:	f8d4 20bc 	ldr.w	r2, [r4, #188]	@ 0xbc
34183800:	4968      	ldr	r1, [pc, #416]	@ (341839a4 <HAL_RCCEx_PeriphCLKConfig+0x3f8>)
34183802:	2a20      	cmp	r2, #32
34183804:	f040 86cc 	bne.w	341845a0 <HAL_RCCEx_PeriphCLKConfig+0xff4>
34183808:	f8d1 30dc 	ldr.w	r3, [r1, #220]	@ 0xdc
3418380c:	6be0      	ldr	r0, [r4, #60]	@ 0x3c
3418380e:	6ba7      	ldr	r7, [r4, #56]	@ 0x38
34183810:	f023 5343 	bic.w	r3, r3, #817889280	@ 0x30c00000
34183814:	f423 137c 	bic.w	r3, r3, #4128768	@ 0x3f0000
34183818:	3801      	subs	r0, #1
3418381a:	433b      	orrs	r3, r7
3418381c:	ea43 4300 	orr.w	r3, r3, r0, lsl #16
34183820:	f8c1 30dc 	str.w	r3, [r1, #220]	@ 0xdc
34183824:	2340      	movs	r3, #64	@ 0x40
34183826:	f8c1 3a40 	str.w	r3, [r1, #2624]	@ 0xa40
3418382a:	485e      	ldr	r0, [pc, #376]	@ (341839a4 <HAL_RCCEx_PeriphCLKConfig+0x3f8>)
3418382c:	f8d4 10c0 	ldr.w	r1, [r4, #192]	@ 0xc0
34183830:	f8d0 3144 	ldr.w	r3, [r0, #324]	@ 0x144
34183834:	3901      	subs	r1, #1
34183836:	f423 437f 	bic.w	r3, r3, #65280	@ 0xff00
3418383a:	f023 0370 	bic.w	r3, r3, #112	@ 0x70
3418383e:	4313      	orrs	r3, r2
34183840:	ea43 2301 	orr.w	r3, r3, r1, lsl #8
34183844:	f8c0 3144 	str.w	r3, [r0, #324]	@ 0x144
34183848:	07a8      	lsls	r0, r5, #30
3418384a:	d51e      	bpl.n	3418388a <HAL_RCCEx_PeriphCLKConfig+0x2de>
3418384c:	f8d4 10c4 	ldr.w	r1, [r4, #196]	@ 0xc4
34183850:	4a54      	ldr	r2, [pc, #336]	@ (341839a4 <HAL_RCCEx_PeriphCLKConfig+0x3f8>)
34183852:	2902      	cmp	r1, #2
34183854:	f040 86be 	bne.w	341845d4 <HAL_RCCEx_PeriphCLKConfig+0x1028>
34183858:	f8d2 30dc 	ldr.w	r3, [r2, #220]	@ 0xdc
3418385c:	6be0      	ldr	r0, [r4, #60]	@ 0x3c
3418385e:	6ba7      	ldr	r7, [r4, #56]	@ 0x38
34183860:	f023 5343 	bic.w	r3, r3, #817889280	@ 0x30c00000
34183864:	f423 137c 	bic.w	r3, r3, #4128768	@ 0x3f0000
34183868:	3801      	subs	r0, #1
3418386a:	433b      	orrs	r3, r7
3418386c:	ea43 4300 	orr.w	r3, r3, r0, lsl #16
34183870:	f8c2 30dc 	str.w	r3, [r2, #220]	@ 0xdc
34183874:	2340      	movs	r3, #64	@ 0x40
34183876:	f8c2 3a40 	str.w	r3, [r2, #2624]	@ 0xa40
3418387a:	4a4a      	ldr	r2, [pc, #296]	@ (341839a4 <HAL_RCCEx_PeriphCLKConfig+0x3f8>)
3418387c:	f8d2 3144 	ldr.w	r3, [r2, #324]	@ 0x144
34183880:	f023 0307 	bic.w	r3, r3, #7
34183884:	430b      	orrs	r3, r1
34183886:	f8c2 3144 	str.w	r3, [r2, #324]	@ 0x144
3418388a:	0729      	lsls	r1, r5, #28
3418388c:	d514      	bpl.n	341838b8 <HAL_RCCEx_PeriphCLKConfig+0x30c>
3418388e:	4a45      	ldr	r2, [pc, #276]	@ (341839a4 <HAL_RCCEx_PeriphCLKConfig+0x3f8>)
34183890:	f8d4 1094 	ldr.w	r1, [r4, #148]	@ 0x94
34183894:	f8d2 3108 	ldr.w	r3, [r2, #264]	@ 0x108
34183898:	f8d4 0090 	ldr.w	r0, [r4, #144]	@ 0x90
3418389c:	f023 5343 	bic.w	r3, r3, #817889280	@ 0x30c00000
341838a0:	f423 137c 	bic.w	r3, r3, #4128768	@ 0x3f0000
341838a4:	3901      	subs	r1, #1
341838a6:	4303      	orrs	r3, r0
341838a8:	ea43 4301 	orr.w	r3, r3, r1, lsl #16
341838ac:	f8c2 3108 	str.w	r3, [r2, #264]	@ 0x108
341838b0:	f44f 3300 	mov.w	r3, #131072	@ 0x20000
341838b4:	f8c2 3a40 	str.w	r3, [r2, #2624]	@ 0xa40
341838b8:	06ea      	lsls	r2, r5, #27
341838ba:	d522      	bpl.n	34183902 <HAL_RCCEx_PeriphCLKConfig+0x356>
341838bc:	f8d4 10c8 	ldr.w	r1, [r4, #200]	@ 0xc8
341838c0:	4a38      	ldr	r2, [pc, #224]	@ (341839a4 <HAL_RCCEx_PeriphCLKConfig+0x3f8>)
341838c2:	f5b1 1f00 	cmp.w	r1, #2097152	@ 0x200000
341838c6:	f040 869f 	bne.w	34184608 <HAL_RCCEx_PeriphCLKConfig+0x105c>
341838ca:	f8d2 3104 	ldr.w	r3, [r2, #260]	@ 0x104
341838ce:	f8d4 008c 	ldr.w	r0, [r4, #140]	@ 0x8c
341838d2:	f8d4 7088 	ldr.w	r7, [r4, #136]	@ 0x88
341838d6:	f023 5343 	bic.w	r3, r3, #817889280	@ 0x30c00000
341838da:	f423 137c 	bic.w	r3, r3, #4128768	@ 0x3f0000
341838de:	3801      	subs	r0, #1
341838e0:	433b      	orrs	r3, r7
341838e2:	ea43 4300 	orr.w	r3, r3, r0, lsl #16
341838e6:	f8c2 3104 	str.w	r3, [r2, #260]	@ 0x104
341838ea:	f44f 3380 	mov.w	r3, #65536	@ 0x10000
341838ee:	f8c2 3a40 	str.w	r3, [r2, #2624]	@ 0xa40
341838f2:	4a2c      	ldr	r2, [pc, #176]	@ (341839a4 <HAL_RCCEx_PeriphCLKConfig+0x3f8>)
341838f4:	f8d2 3144 	ldr.w	r3, [r2, #324]	@ 0x144
341838f8:	f423 1340 	bic.w	r3, r3, #3145728	@ 0x300000
341838fc:	430b      	orrs	r3, r1
341838fe:	f8c2 3144 	str.w	r3, [r2, #324]	@ 0x144
34183902:	06ab      	lsls	r3, r5, #26
34183904:	d520      	bpl.n	34183948 <HAL_RCCEx_PeriphCLKConfig+0x39c>
34183906:	f8d4 10cc 	ldr.w	r1, [r4, #204]	@ 0xcc
3418390a:	4a26      	ldr	r2, [pc, #152]	@ (341839a4 <HAL_RCCEx_PeriphCLKConfig+0x3f8>)
3418390c:	f5b1 5f00 	cmp.w	r1, #8192	@ 0x2000
34183910:	f040 8682 	bne.w	34184618 <HAL_RCCEx_PeriphCLKConfig+0x106c>
34183914:	f8d2 30f0 	ldr.w	r3, [r2, #240]	@ 0xf0
34183918:	6e60      	ldr	r0, [r4, #100]	@ 0x64
3418391a:	6e27      	ldr	r7, [r4, #96]	@ 0x60
3418391c:	f023 5343 	bic.w	r3, r3, #817889280	@ 0x30c00000
34183920:	f423 137c 	bic.w	r3, r3, #4128768	@ 0x3f0000
34183924:	3801      	subs	r0, #1
34183926:	433b      	orrs	r3, r7
34183928:	ea43 4300 	orr.w	r3, r3, r0, lsl #16
3418392c:	f8c2 30f0 	str.w	r3, [r2, #240]	@ 0xf0
34183930:	f44f 6300 	mov.w	r3, #2048	@ 0x800
34183934:	f8c2 3a40 	str.w	r3, [r2, #2624]	@ 0xa40
34183938:	4a1a      	ldr	r2, [pc, #104]	@ (341839a4 <HAL_RCCEx_PeriphCLKConfig+0x3f8>)
3418393a:	f8d2 3148 	ldr.w	r3, [r2, #328]	@ 0x148
3418393e:	f423 5340 	bic.w	r3, r3, #12288	@ 0x3000
34183942:	430b      	orrs	r3, r1
34183944:	f8c2 3148 	str.w	r3, [r2, #328]	@ 0x148
34183948:	066f      	lsls	r7, r5, #25
3418394a:	d509      	bpl.n	34183960 <HAL_RCCEx_PeriphCLKConfig+0x3b4>
3418394c:	4a15      	ldr	r2, [pc, #84]	@ (341839a4 <HAL_RCCEx_PeriphCLKConfig+0x3f8>)
3418394e:	f8d4 10d0 	ldr.w	r1, [r4, #208]	@ 0xd0
34183952:	f8d2 3148 	ldr.w	r3, [r2, #328]	@ 0x148
34183956:	f423 23e0 	bic.w	r3, r3, #458752	@ 0x70000
3418395a:	430b      	orrs	r3, r1
3418395c:	f8c2 3148 	str.w	r3, [r2, #328]	@ 0x148
34183960:	0628      	lsls	r0, r5, #24
34183962:	d509      	bpl.n	34183978 <HAL_RCCEx_PeriphCLKConfig+0x3cc>
34183964:	4a0f      	ldr	r2, [pc, #60]	@ (341839a4 <HAL_RCCEx_PeriphCLKConfig+0x3f8>)
34183966:	f8d4 10d4 	ldr.w	r1, [r4, #212]	@ 0xd4
3418396a:	f8d2 3148 	ldr.w	r3, [r2, #328]	@ 0x148
3418396e:	f423 1380 	bic.w	r3, r3, #1048576	@ 0x100000
34183972:	430b      	orrs	r3, r1
34183974:	f8c2 3148 	str.w	r3, [r2, #328]	@ 0x148
34183978:	05e9      	lsls	r1, r5, #23
3418397a:	d509      	bpl.n	34183990 <HAL_RCCEx_PeriphCLKConfig+0x3e4>
3418397c:	4a09      	ldr	r2, [pc, #36]	@ (341839a4 <HAL_RCCEx_PeriphCLKConfig+0x3f8>)
3418397e:	f8d4 10d8 	ldr.w	r1, [r4, #216]	@ 0xd8
34183982:	f8d2 3148 	ldr.w	r3, [r2, #328]	@ 0x148
34183986:	f023 7380 	bic.w	r3, r3, #16777216	@ 0x1000000
3418398a:	430b      	orrs	r3, r1
3418398c:	f8c2 3148 	str.w	r3, [r2, #328]	@ 0x148
34183990:	05aa      	lsls	r2, r5, #22
34183992:	d532      	bpl.n	341839fa <HAL_RCCEx_PeriphCLKConfig+0x44e>
34183994:	f8d4 10dc 	ldr.w	r1, [r4, #220]	@ 0xdc
34183998:	4a02      	ldr	r2, [pc, #8]	@ (341839a4 <HAL_RCCEx_PeriphCLKConfig+0x3f8>)
3418399a:	2902      	cmp	r1, #2
3418399c:	f040 8644 	bne.w	34184628 <HAL_RCCEx_PeriphCLKConfig+0x107c>
341839a0:	e00c      	b.n	341839bc <HAL_RCCEx_PeriphCLKConfig+0x410>
341839a2:	bf00      	nop
341839a4:	56028000 	.word	0x56028000
341839a8:	03020014 	.word	0x03020014
341839ac:	03020414 	.word	0x03020414
341839b0:	03020814 	.word	0x03020814
341839b4:	0302001c 	.word	0x0302001c
341839b8:	0302041c 	.word	0x0302041c
341839bc:	f8d2 30f4 	ldr.w	r3, [r2, #244]	@ 0xf4
341839c0:	6ee0      	ldr	r0, [r4, #108]	@ 0x6c
341839c2:	6ea7      	ldr	r7, [r4, #104]	@ 0x68
341839c4:	f023 5343 	bic.w	r3, r3, #817889280	@ 0x30c00000
341839c8:	f423 137c 	bic.w	r3, r3, #4128768	@ 0x3f0000
341839cc:	3801      	subs	r0, #1
341839ce:	433b      	orrs	r3, r7
341839d0:	ea43 4300 	orr.w	r3, r3, r0, lsl #16
341839d4:	f8c2 30f4 	str.w	r3, [r2, #244]	@ 0xf4
341839d8:	f44f 5380 	mov.w	r3, #4096	@ 0x1000
341839dc:	f8c2 3a40 	str.w	r3, [r2, #2624]	@ 0xa40
341839e0:	48c9      	ldr	r0, [pc, #804]	@ (34183d08 <HAL_RCCEx_PeriphCLKConfig+0x75c>)
341839e2:	f8d4 20e0 	ldr.w	r2, [r4, #224]	@ 0xe0
341839e6:	f8d0 3148 	ldr.w	r3, [r0, #328]	@ 0x148
341839ea:	3a01      	subs	r2, #1
341839ec:	f023 03f3 	bic.w	r3, r3, #243	@ 0xf3
341839f0:	430b      	orrs	r3, r1
341839f2:	ea43 1302 	orr.w	r3, r3, r2, lsl #4
341839f6:	f8c0 3148 	str.w	r3, [r0, #328]	@ 0x148
341839fa:	056b      	lsls	r3, r5, #21
341839fc:	d521      	bpl.n	34183a42 <HAL_RCCEx_PeriphCLKConfig+0x496>
341839fe:	f8d4 10e4 	ldr.w	r1, [r4, #228]	@ 0xe4
34183a02:	4ac1      	ldr	r2, [pc, #772]	@ (34183d08 <HAL_RCCEx_PeriphCLKConfig+0x75c>)
34183a04:	2902      	cmp	r1, #2
34183a06:	f040 8616 	bne.w	34184636 <HAL_RCCEx_PeriphCLKConfig+0x108a>
34183a0a:	f8d2 310c 	ldr.w	r3, [r2, #268]	@ 0x10c
34183a0e:	f8d4 009c 	ldr.w	r0, [r4, #156]	@ 0x9c
34183a12:	f8d4 7098 	ldr.w	r7, [r4, #152]	@ 0x98
34183a16:	f023 5343 	bic.w	r3, r3, #817889280	@ 0x30c00000
34183a1a:	f423 137c 	bic.w	r3, r3, #4128768	@ 0x3f0000
34183a1e:	3801      	subs	r0, #1
34183a20:	433b      	orrs	r3, r7
34183a22:	ea43 4300 	orr.w	r3, r3, r0, lsl #16
34183a26:	f8c2 310c 	str.w	r3, [r2, #268]	@ 0x10c
34183a2a:	f44f 2380 	mov.w	r3, #262144	@ 0x40000
34183a2e:	f8c2 3a40 	str.w	r3, [r2, #2624]	@ 0xa40
34183a32:	4ab5      	ldr	r2, [pc, #724]	@ (34183d08 <HAL_RCCEx_PeriphCLKConfig+0x75c>)
34183a34:	f8d2 314c 	ldr.w	r3, [r2, #332]	@ 0x14c
34183a38:	f023 0303 	bic.w	r3, r3, #3
34183a3c:	430b      	orrs	r3, r1
34183a3e:	f8c2 314c 	str.w	r3, [r2, #332]	@ 0x14c
34183a42:	04ef      	lsls	r7, r5, #19
34183a44:	d51a      	bpl.n	34183a7c <HAL_RCCEx_PeriphCLKConfig+0x4d0>
34183a46:	f8d4 00e8 	ldr.w	r0, [r4, #232]	@ 0xe8
34183a4a:	4bb0      	ldr	r3, [pc, #704]	@ (34183d0c <HAL_RCCEx_PeriphCLKConfig+0x760>)
34183a4c:	4298      	cmp	r0, r3
34183a4e:	f040 85f9 	bne.w	34184644 <HAL_RCCEx_PeriphCLKConfig+0x1098>
34183a52:	4aad      	ldr	r2, [pc, #692]	@ (34183d08 <HAL_RCCEx_PeriphCLKConfig+0x75c>)
34183a54:	6d61      	ldr	r1, [r4, #84]	@ 0x54
34183a56:	f8d2 30e8 	ldr.w	r3, [r2, #232]	@ 0xe8
34183a5a:	6d27      	ldr	r7, [r4, #80]	@ 0x50
34183a5c:	f023 5343 	bic.w	r3, r3, #817889280	@ 0x30c00000
34183a60:	f423 137c 	bic.w	r3, r3, #4128768	@ 0x3f0000
34183a64:	3901      	subs	r1, #1
34183a66:	433b      	orrs	r3, r7
34183a68:	ea43 4301 	orr.w	r3, r3, r1, lsl #16
34183a6c:	f8c2 30e8 	str.w	r3, [r2, #232]	@ 0xe8
34183a70:	f44f 7300 	mov.w	r3, #512	@ 0x200
34183a74:	f8c2 3a40 	str.w	r3, [r2, #2624]	@ 0xa40
34183a78:	f7ff fcb4 	bl	341833e4 <LL_RCC_SetClockSource>
34183a7c:	04a8      	lsls	r0, r5, #18
34183a7e:	d51a      	bpl.n	34183ab6 <HAL_RCCEx_PeriphCLKConfig+0x50a>
34183a80:	f8d4 00ec 	ldr.w	r0, [r4, #236]	@ 0xec
34183a84:	4ba2      	ldr	r3, [pc, #648]	@ (34183d10 <HAL_RCCEx_PeriphCLKConfig+0x764>)
34183a86:	4298      	cmp	r0, r3
34183a88:	f040 85fb 	bne.w	34184682 <HAL_RCCEx_PeriphCLKConfig+0x10d6>
34183a8c:	4a9e      	ldr	r2, [pc, #632]	@ (34183d08 <HAL_RCCEx_PeriphCLKConfig+0x75c>)
34183a8e:	6d61      	ldr	r1, [r4, #84]	@ 0x54
34183a90:	f8d2 30e8 	ldr.w	r3, [r2, #232]	@ 0xe8
34183a94:	6d27      	ldr	r7, [r4, #80]	@ 0x50
34183a96:	f023 5343 	bic.w	r3, r3, #817889280	@ 0x30c00000
34183a9a:	f423 137c 	bic.w	r3, r3, #4128768	@ 0x3f0000
34183a9e:	3901      	subs	r1, #1
34183aa0:	433b      	orrs	r3, r7
34183aa2:	ea43 4301 	orr.w	r3, r3, r1, lsl #16
34183aa6:	f8c2 30e8 	str.w	r3, [r2, #232]	@ 0xe8
34183aaa:	f44f 7300 	mov.w	r3, #512	@ 0x200
34183aae:	f8c2 3a40 	str.w	r3, [r2, #2624]	@ 0xa40
34183ab2:	f7ff fc97 	bl	341833e4 <LL_RCC_SetClockSource>
34183ab6:	0469      	lsls	r1, r5, #17
34183ab8:	d51a      	bpl.n	34183af0 <HAL_RCCEx_PeriphCLKConfig+0x544>
34183aba:	f8d4 00f0 	ldr.w	r0, [r4, #240]	@ 0xf0
34183abe:	4b95      	ldr	r3, [pc, #596]	@ (34183d14 <HAL_RCCEx_PeriphCLKConfig+0x768>)
34183ac0:	4298      	cmp	r0, r3
34183ac2:	f040 85fd 	bne.w	341846c0 <HAL_RCCEx_PeriphCLKConfig+0x1114>
34183ac6:	4a90      	ldr	r2, [pc, #576]	@ (34183d08 <HAL_RCCEx_PeriphCLKConfig+0x75c>)
34183ac8:	6d61      	ldr	r1, [r4, #84]	@ 0x54
34183aca:	f8d2 30e8 	ldr.w	r3, [r2, #232]	@ 0xe8
34183ace:	6d27      	ldr	r7, [r4, #80]	@ 0x50
34183ad0:	f023 5343 	bic.w	r3, r3, #817889280	@ 0x30c00000
34183ad4:	f423 137c 	bic.w	r3, r3, #4128768	@ 0x3f0000
34183ad8:	3901      	subs	r1, #1
34183ada:	433b      	orrs	r3, r7
34183adc:	ea43 4301 	orr.w	r3, r3, r1, lsl #16
34183ae0:	f8c2 30e8 	str.w	r3, [r2, #232]	@ 0xe8
34183ae4:	f44f 7300 	mov.w	r3, #512	@ 0x200
34183ae8:	f8c2 3a40 	str.w	r3, [r2, #2624]	@ 0xa40
34183aec:	f7ff fc7a 	bl	341833e4 <LL_RCC_SetClockSource>
34183af0:	042a      	lsls	r2, r5, #16
34183af2:	d51a      	bpl.n	34183b2a <HAL_RCCEx_PeriphCLKConfig+0x57e>
34183af4:	f8d4 00f4 	ldr.w	r0, [r4, #244]	@ 0xf4
34183af8:	4b87      	ldr	r3, [pc, #540]	@ (34183d18 <HAL_RCCEx_PeriphCLKConfig+0x76c>)
34183afa:	4298      	cmp	r0, r3
34183afc:	f040 85ff 	bne.w	341846fe <HAL_RCCEx_PeriphCLKConfig+0x1152>
34183b00:	4a81      	ldr	r2, [pc, #516]	@ (34183d08 <HAL_RCCEx_PeriphCLKConfig+0x75c>)
34183b02:	6d61      	ldr	r1, [r4, #84]	@ 0x54
34183b04:	f8d2 30e8 	ldr.w	r3, [r2, #232]	@ 0xe8
34183b08:	6d27      	ldr	r7, [r4, #80]	@ 0x50
34183b0a:	f023 5343 	bic.w	r3, r3, #817889280	@ 0x30c00000
34183b0e:	f423 137c 	bic.w	r3, r3, #4128768	@ 0x3f0000
34183b12:	3901      	subs	r1, #1
34183b14:	433b      	orrs	r3, r7
34183b16:	ea43 4301 	orr.w	r3, r3, r1, lsl #16
34183b1a:	f8c2 30e8 	str.w	r3, [r2, #232]	@ 0xe8
34183b1e:	f44f 7300 	mov.w	r3, #512	@ 0x200
34183b22:	f8c2 3a40 	str.w	r3, [r2, #2624]	@ 0xa40
34183b26:	f7ff fc5d 	bl	341833e4 <LL_RCC_SetClockSource>
34183b2a:	03eb      	lsls	r3, r5, #15
34183b2c:	d51a      	bpl.n	34183b64 <HAL_RCCEx_PeriphCLKConfig+0x5b8>
34183b2e:	f8d4 00f8 	ldr.w	r0, [r4, #248]	@ 0xf8
34183b32:	4b7a      	ldr	r3, [pc, #488]	@ (34183d1c <HAL_RCCEx_PeriphCLKConfig+0x770>)
34183b34:	4298      	cmp	r0, r3
34183b36:	f040 8627 	bne.w	34184788 <HAL_RCCEx_PeriphCLKConfig+0x11dc>
34183b3a:	4a73      	ldr	r2, [pc, #460]	@ (34183d08 <HAL_RCCEx_PeriphCLKConfig+0x75c>)
34183b3c:	6d61      	ldr	r1, [r4, #84]	@ 0x54
34183b3e:	f8d2 30e8 	ldr.w	r3, [r2, #232]	@ 0xe8
34183b42:	6d27      	ldr	r7, [r4, #80]	@ 0x50
34183b44:	f023 5343 	bic.w	r3, r3, #817889280	@ 0x30c00000
34183b48:	f423 137c 	bic.w	r3, r3, #4128768	@ 0x3f0000
34183b4c:	3901      	subs	r1, #1
34183b4e:	433b      	orrs	r3, r7
34183b50:	ea43 4301 	orr.w	r3, r3, r1, lsl #16
34183b54:	f8c2 30e8 	str.w	r3, [r2, #232]	@ 0xe8
34183b58:	f44f 7300 	mov.w	r3, #512	@ 0x200
34183b5c:	f8c2 3a40 	str.w	r3, [r2, #2624]	@ 0xa40
34183b60:	f7ff fc40 	bl	341833e4 <LL_RCC_SetClockSource>
34183b64:	03af      	lsls	r7, r5, #14
34183b66:	d51a      	bpl.n	34183b9e <HAL_RCCEx_PeriphCLKConfig+0x5f2>
34183b68:	f8d4 00fc 	ldr.w	r0, [r4, #252]	@ 0xfc
34183b6c:	4b6c      	ldr	r3, [pc, #432]	@ (34183d20 <HAL_RCCEx_PeriphCLKConfig+0x774>)
34183b6e:	4298      	cmp	r0, r3
34183b70:	f040 8629 	bne.w	341847c6 <HAL_RCCEx_PeriphCLKConfig+0x121a>
34183b74:	4a64      	ldr	r2, [pc, #400]	@ (34183d08 <HAL_RCCEx_PeriphCLKConfig+0x75c>)
34183b76:	6d61      	ldr	r1, [r4, #84]	@ 0x54
34183b78:	f8d2 30e8 	ldr.w	r3, [r2, #232]	@ 0xe8
34183b7c:	6d27      	ldr	r7, [r4, #80]	@ 0x50
34183b7e:	f023 5343 	bic.w	r3, r3, #817889280	@ 0x30c00000
34183b82:	f423 137c 	bic.w	r3, r3, #4128768	@ 0x3f0000
34183b86:	3901      	subs	r1, #1
34183b88:	433b      	orrs	r3, r7
34183b8a:	ea43 4301 	orr.w	r3, r3, r1, lsl #16
34183b8e:	f8c2 30e8 	str.w	r3, [r2, #232]	@ 0xe8
34183b92:	f44f 7300 	mov.w	r3, #512	@ 0x200
34183b96:	f8c2 3a40 	str.w	r3, [r2, #2624]	@ 0xa40
34183b9a:	f7ff fc23 	bl	341833e4 <LL_RCC_SetClockSource>
34183b9e:	0368      	lsls	r0, r5, #13
34183ba0:	d51a      	bpl.n	34183bd8 <HAL_RCCEx_PeriphCLKConfig+0x62c>
34183ba2:	f8d4 0100 	ldr.w	r0, [r4, #256]	@ 0x100
34183ba6:	4b5f      	ldr	r3, [pc, #380]	@ (34183d24 <HAL_RCCEx_PeriphCLKConfig+0x778>)
34183ba8:	4298      	cmp	r0, r3
34183baa:	f040 862b 	bne.w	34184804 <HAL_RCCEx_PeriphCLKConfig+0x1258>
34183bae:	4a56      	ldr	r2, [pc, #344]	@ (34183d08 <HAL_RCCEx_PeriphCLKConfig+0x75c>)
34183bb0:	6fe1      	ldr	r1, [r4, #124]	@ 0x7c
34183bb2:	f8d2 30fc 	ldr.w	r3, [r2, #252]	@ 0xfc
34183bb6:	6fa7      	ldr	r7, [r4, #120]	@ 0x78
34183bb8:	f023 5343 	bic.w	r3, r3, #817889280	@ 0x30c00000
34183bbc:	f423 137c 	bic.w	r3, r3, #4128768	@ 0x3f0000
34183bc0:	3901      	subs	r1, #1
34183bc2:	433b      	orrs	r3, r7
34183bc4:	ea43 4301 	orr.w	r3, r3, r1, lsl #16
34183bc8:	f8c2 30fc 	str.w	r3, [r2, #252]	@ 0xfc
34183bcc:	f44f 4380 	mov.w	r3, #16384	@ 0x4000
34183bd0:	f8c2 3a40 	str.w	r3, [r2, #2624]	@ 0xa40
34183bd4:	f7ff fc06 	bl	341833e4 <LL_RCC_SetClockSource>
34183bd8:	0329      	lsls	r1, r5, #12
34183bda:	d51a      	bpl.n	34183c12 <HAL_RCCEx_PeriphCLKConfig+0x666>
34183bdc:	f8d4 0104 	ldr.w	r0, [r4, #260]	@ 0x104
34183be0:	4b51      	ldr	r3, [pc, #324]	@ (34183d28 <HAL_RCCEx_PeriphCLKConfig+0x77c>)
34183be2:	4298      	cmp	r0, r3
34183be4:	f040 8617 	bne.w	34184816 <HAL_RCCEx_PeriphCLKConfig+0x126a>
34183be8:	4a47      	ldr	r2, [pc, #284]	@ (34183d08 <HAL_RCCEx_PeriphCLKConfig+0x75c>)
34183bea:	6fe1      	ldr	r1, [r4, #124]	@ 0x7c
34183bec:	f8d2 30fc 	ldr.w	r3, [r2, #252]	@ 0xfc
34183bf0:	6fa7      	ldr	r7, [r4, #120]	@ 0x78
34183bf2:	f023 5343 	bic.w	r3, r3, #817889280	@ 0x30c00000
34183bf6:	f423 137c 	bic.w	r3, r3, #4128768	@ 0x3f0000
34183bfa:	3901      	subs	r1, #1
34183bfc:	433b      	orrs	r3, r7
34183bfe:	ea43 4301 	orr.w	r3, r3, r1, lsl #16
34183c02:	f8c2 30fc 	str.w	r3, [r2, #252]	@ 0xfc
34183c06:	f44f 4380 	mov.w	r3, #16384	@ 0x4000
34183c0a:	f8c2 3a40 	str.w	r3, [r2, #2624]	@ 0xa40
34183c0e:	f7ff fbe9 	bl	341833e4 <LL_RCC_SetClockSource>
34183c12:	02ea      	lsls	r2, r5, #11
34183c14:	d51a      	bpl.n	34183c4c <HAL_RCCEx_PeriphCLKConfig+0x6a0>
34183c16:	f8d4 0108 	ldr.w	r0, [r4, #264]	@ 0x108
34183c1a:	4b44      	ldr	r3, [pc, #272]	@ (34183d2c <HAL_RCCEx_PeriphCLKConfig+0x780>)
34183c1c:	4298      	cmp	r0, r3
34183c1e:	f040 8603 	bne.w	34184828 <HAL_RCCEx_PeriphCLKConfig+0x127c>
34183c22:	4a39      	ldr	r2, [pc, #228]	@ (34183d08 <HAL_RCCEx_PeriphCLKConfig+0x75c>)
34183c24:	6fe1      	ldr	r1, [r4, #124]	@ 0x7c
34183c26:	f8d2 30fc 	ldr.w	r3, [r2, #252]	@ 0xfc
34183c2a:	6fa7      	ldr	r7, [r4, #120]	@ 0x78
34183c2c:	f023 5343 	bic.w	r3, r3, #817889280	@ 0x30c00000
34183c30:	f423 137c 	bic.w	r3, r3, #4128768	@ 0x3f0000
34183c34:	3901      	subs	r1, #1
34183c36:	433b      	orrs	r3, r7
34183c38:	ea43 4301 	orr.w	r3, r3, r1, lsl #16
34183c3c:	f8c2 30fc 	str.w	r3, [r2, #252]	@ 0xfc
34183c40:	f44f 4380 	mov.w	r3, #16384	@ 0x4000
34183c44:	f8c2 3a40 	str.w	r3, [r2, #2624]	@ 0xa40
34183c48:	f7ff fbcc 	bl	341833e4 <LL_RCC_SetClockSource>
34183c4c:	02ab      	lsls	r3, r5, #10
34183c4e:	d51a      	bpl.n	34183c86 <HAL_RCCEx_PeriphCLKConfig+0x6da>
34183c50:	f8d4 010c 	ldr.w	r0, [r4, #268]	@ 0x10c
34183c54:	4b36      	ldr	r3, [pc, #216]	@ (34183d30 <HAL_RCCEx_PeriphCLKConfig+0x784>)
34183c56:	4298      	cmp	r0, r3
34183c58:	f040 85ef 	bne.w	3418483a <HAL_RCCEx_PeriphCLKConfig+0x128e>
34183c5c:	4a2a      	ldr	r2, [pc, #168]	@ (34183d08 <HAL_RCCEx_PeriphCLKConfig+0x75c>)
34183c5e:	6fe1      	ldr	r1, [r4, #124]	@ 0x7c
34183c60:	f8d2 30fc 	ldr.w	r3, [r2, #252]	@ 0xfc
34183c64:	6fa7      	ldr	r7, [r4, #120]	@ 0x78
34183c66:	f023 5343 	bic.w	r3, r3, #817889280	@ 0x30c00000
34183c6a:	f423 137c 	bic.w	r3, r3, #4128768	@ 0x3f0000
34183c6e:	3901      	subs	r1, #1
34183c70:	433b      	orrs	r3, r7
34183c72:	ea43 4301 	orr.w	r3, r3, r1, lsl #16
34183c76:	f8c2 30fc 	str.w	r3, [r2, #252]	@ 0xfc
34183c7a:	f44f 4380 	mov.w	r3, #16384	@ 0x4000
34183c7e:	f8c2 3a40 	str.w	r3, [r2, #2624]	@ 0xa40
34183c82:	f7ff fbaf 	bl	341833e4 <LL_RCC_SetClockSource>
34183c86:	026f      	lsls	r7, r5, #9
34183c88:	d51a      	bpl.n	34183cc0 <HAL_RCCEx_PeriphCLKConfig+0x714>
34183c8a:	f8d4 0110 	ldr.w	r0, [r4, #272]	@ 0x110
34183c8e:	4b29      	ldr	r3, [pc, #164]	@ (34183d34 <HAL_RCCEx_PeriphCLKConfig+0x788>)
34183c90:	4298      	cmp	r0, r3
34183c92:	f040 85db 	bne.w	3418484c <HAL_RCCEx_PeriphCLKConfig+0x12a0>
34183c96:	4a1c      	ldr	r2, [pc, #112]	@ (34183d08 <HAL_RCCEx_PeriphCLKConfig+0x75c>)
34183c98:	6fe1      	ldr	r1, [r4, #124]	@ 0x7c
34183c9a:	f8d2 30fc 	ldr.w	r3, [r2, #252]	@ 0xfc
34183c9e:	6fa7      	ldr	r7, [r4, #120]	@ 0x78
34183ca0:	f023 5343 	bic.w	r3, r3, #817889280	@ 0x30c00000
34183ca4:	f423 137c 	bic.w	r3, r3, #4128768	@ 0x3f0000
34183ca8:	3901      	subs	r1, #1
34183caa:	433b      	orrs	r3, r7
34183cac:	ea43 4301 	orr.w	r3, r3, r1, lsl #16
34183cb0:	f8c2 30fc 	str.w	r3, [r2, #252]	@ 0xfc
34183cb4:	f44f 4380 	mov.w	r3, #16384	@ 0x4000
34183cb8:	f8c2 3a40 	str.w	r3, [r2, #2624]	@ 0xa40
34183cbc:	f7ff fb92 	bl	341833e4 <LL_RCC_SetClockSource>
34183cc0:	0228      	lsls	r0, r5, #8
34183cc2:	d539      	bpl.n	34183d38 <HAL_RCCEx_PeriphCLKConfig+0x78c>
34183cc4:	f8d4 1114 	ldr.w	r1, [r4, #276]	@ 0x114
34183cc8:	4a0f      	ldr	r2, [pc, #60]	@ (34183d08 <HAL_RCCEx_PeriphCLKConfig+0x75c>)
34183cca:	f5b1 7f00 	cmp.w	r1, #512	@ 0x200
34183cce:	f040 85c6 	bne.w	3418485e <HAL_RCCEx_PeriphCLKConfig+0x12b2>
34183cd2:	f8d2 30e4 	ldr.w	r3, [r2, #228]	@ 0xe4
34183cd6:	6ce0      	ldr	r0, [r4, #76]	@ 0x4c
34183cd8:	6ca7      	ldr	r7, [r4, #72]	@ 0x48
34183cda:	f023 5343 	bic.w	r3, r3, #817889280	@ 0x30c00000
34183cde:	f423 137c 	bic.w	r3, r3, #4128768	@ 0x3f0000
34183ce2:	3801      	subs	r0, #1
34183ce4:	433b      	orrs	r3, r7
34183ce6:	ea43 4300 	orr.w	r3, r3, r0, lsl #16
34183cea:	f8c2 30e4 	str.w	r3, [r2, #228]	@ 0xe4
34183cee:	f44f 7380 	mov.w	r3, #256	@ 0x100
34183cf2:	f8c2 3a40 	str.w	r3, [r2, #2624]	@ 0xa40
34183cf6:	4a04      	ldr	r2, [pc, #16]	@ (34183d08 <HAL_RCCEx_PeriphCLKConfig+0x75c>)
34183cf8:	f8d2 3178 	ldr.w	r3, [r2, #376]	@ 0x178
34183cfc:	f423 63e0 	bic.w	r3, r3, #1792	@ 0x700
34183d00:	430b      	orrs	r3, r1
34183d02:	f8c2 3178 	str.w	r3, [r2, #376]	@ 0x178
34183d06:	e017      	b.n	34183d38 <HAL_RCCEx_PeriphCLKConfig+0x78c>
34183d08:	56028000 	.word	0x56028000
34183d0c:	0702000c 	.word	0x0702000c
34183d10:	0702040c 	.word	0x0702040c
34183d14:	0702080c 	.word	0x0702080c
34183d18:	07020c0c 	.word	0x07020c0c
34183d1c:	0702100c 	.word	0x0702100c
34183d20:	0702140c 	.word	0x0702140c
34183d24:	0702082c 	.word	0x0702082c
34183d28:	07020c2c 	.word	0x07020c2c
34183d2c:	0702102c 	.word	0x0702102c
34183d30:	0702142c 	.word	0x0702142c
34183d34:	0702182c 	.word	0x0702182c
34183d38:	01e9      	lsls	r1, r5, #7
34183d3a:	d522      	bpl.n	34183d82 <HAL_RCCEx_PeriphCLKConfig+0x7d6>
34183d3c:	f8d4 1118 	ldr.w	r1, [r4, #280]	@ 0x118
34183d40:	4ac9      	ldr	r2, [pc, #804]	@ (34184068 <HAL_RCCEx_PeriphCLKConfig+0xabc>)
34183d42:	f1b1 7f00 	cmp.w	r1, #33554432	@ 0x2000000
34183d46:	f040 85a7 	bne.w	34184898 <HAL_RCCEx_PeriphCLKConfig+0x12ec>
34183d4a:	f8d2 3100 	ldr.w	r3, [r2, #256]	@ 0x100
34183d4e:	f8d4 0084 	ldr.w	r0, [r4, #132]	@ 0x84
34183d52:	f8d4 7080 	ldr.w	r7, [r4, #128]	@ 0x80
34183d56:	f023 5343 	bic.w	r3, r3, #817889280	@ 0x30c00000
34183d5a:	f423 137c 	bic.w	r3, r3, #4128768	@ 0x3f0000
34183d5e:	3801      	subs	r0, #1
34183d60:	433b      	orrs	r3, r7
34183d62:	ea43 4300 	orr.w	r3, r3, r0, lsl #16
34183d66:	f8c2 3100 	str.w	r3, [r2, #256]	@ 0x100
34183d6a:	f44f 4300 	mov.w	r3, #32768	@ 0x8000
34183d6e:	f8c2 3a40 	str.w	r3, [r2, #2624]	@ 0xa40
34183d72:	4abd      	ldr	r2, [pc, #756]	@ (34184068 <HAL_RCCEx_PeriphCLKConfig+0xabc>)
34183d74:	f8d2 3150 	ldr.w	r3, [r2, #336]	@ 0x150
34183d78:	f023 7340 	bic.w	r3, r3, #50331648	@ 0x3000000
34183d7c:	430b      	orrs	r3, r1
34183d7e:	f8c2 3150 	str.w	r3, [r2, #336]	@ 0x150
34183d82:	01aa      	lsls	r2, r5, #6
34183d84:	d51f      	bpl.n	34183dc6 <HAL_RCCEx_PeriphCLKConfig+0x81a>
34183d86:	f8d4 111c 	ldr.w	r1, [r4, #284]	@ 0x11c
34183d8a:	4ab7      	ldr	r2, [pc, #732]	@ (34184068 <HAL_RCCEx_PeriphCLKConfig+0xabc>)
34183d8c:	f5b1 3f00 	cmp.w	r1, #131072	@ 0x20000
34183d90:	f040 858a 	bne.w	341848a8 <HAL_RCCEx_PeriphCLKConfig+0x12fc>
34183d94:	f8d2 30dc 	ldr.w	r3, [r2, #220]	@ 0xdc
34183d98:	6be0      	ldr	r0, [r4, #60]	@ 0x3c
34183d9a:	6ba7      	ldr	r7, [r4, #56]	@ 0x38
34183d9c:	f023 5343 	bic.w	r3, r3, #817889280	@ 0x30c00000
34183da0:	f423 137c 	bic.w	r3, r3, #4128768	@ 0x3f0000
34183da4:	3801      	subs	r0, #1
34183da6:	433b      	orrs	r3, r7
34183da8:	ea43 4300 	orr.w	r3, r3, r0, lsl #16
34183dac:	f8c2 30dc 	str.w	r3, [r2, #220]	@ 0xdc
34183db0:	2340      	movs	r3, #64	@ 0x40
34183db2:	f8c2 3a40 	str.w	r3, [r2, #2624]	@ 0xa40
34183db6:	4aac      	ldr	r2, [pc, #688]	@ (34184068 <HAL_RCCEx_PeriphCLKConfig+0xabc>)
34183db8:	f8d2 3154 	ldr.w	r3, [r2, #340]	@ 0x154
34183dbc:	f423 23e0 	bic.w	r3, r3, #458752	@ 0x70000
34183dc0:	430b      	orrs	r3, r1
34183dc2:	f8c2 3154 	str.w	r3, [r2, #340]	@ 0x154
34183dc6:	016b      	lsls	r3, r5, #5
34183dc8:	d521      	bpl.n	34183e0e <HAL_RCCEx_PeriphCLKConfig+0x862>
34183dca:	f8d4 1120 	ldr.w	r1, [r4, #288]	@ 0x120
34183dce:	4aa6      	ldr	r2, [pc, #664]	@ (34184068 <HAL_RCCEx_PeriphCLKConfig+0xabc>)
34183dd0:	2920      	cmp	r1, #32
34183dd2:	f040 8585 	bne.w	341848e0 <HAL_RCCEx_PeriphCLKConfig+0x1334>
34183dd6:	f8d2 3110 	ldr.w	r3, [r2, #272]	@ 0x110
34183dda:	f8d4 00a4 	ldr.w	r0, [r4, #164]	@ 0xa4
34183dde:	f8d4 70a0 	ldr.w	r7, [r4, #160]	@ 0xa0
34183de2:	f023 5343 	bic.w	r3, r3, #817889280	@ 0x30c00000
34183de6:	f423 137c 	bic.w	r3, r3, #4128768	@ 0x3f0000
34183dea:	3801      	subs	r0, #1
34183dec:	433b      	orrs	r3, r7
34183dee:	ea43 4300 	orr.w	r3, r3, r0, lsl #16
34183df2:	f8c2 3110 	str.w	r3, [r2, #272]	@ 0x110
34183df6:	f44f 2300 	mov.w	r3, #524288	@ 0x80000
34183dfa:	f8c2 3a40 	str.w	r3, [r2, #2624]	@ 0xa40
34183dfe:	4a9a      	ldr	r2, [pc, #616]	@ (34184068 <HAL_RCCEx_PeriphCLKConfig+0xabc>)
34183e00:	f8d2 315c 	ldr.w	r3, [r2, #348]	@ 0x15c
34183e04:	f023 0330 	bic.w	r3, r3, #48	@ 0x30
34183e08:	430b      	orrs	r3, r1
34183e0a:	f8c2 315c 	str.w	r3, [r2, #348]	@ 0x15c
34183e0e:	00ef      	lsls	r7, r5, #3
34183e10:	d519      	bpl.n	34183e46 <HAL_RCCEx_PeriphCLKConfig+0x89a>
34183e12:	f8d4 0124 	ldr.w	r0, [r4, #292]	@ 0x124
34183e16:	4b95      	ldr	r3, [pc, #596]	@ (3418406c <HAL_RCCEx_PeriphCLKConfig+0xac0>)
34183e18:	4298      	cmp	r0, r3
34183e1a:	f040 8568 	bne.w	341848ee <HAL_RCCEx_PeriphCLKConfig+0x1342>
34183e1e:	4a92      	ldr	r2, [pc, #584]	@ (34184068 <HAL_RCCEx_PeriphCLKConfig+0xabc>)
34183e20:	6be1      	ldr	r1, [r4, #60]	@ 0x3c
34183e22:	f8d2 30dc 	ldr.w	r3, [r2, #220]	@ 0xdc
34183e26:	6ba7      	ldr	r7, [r4, #56]	@ 0x38
34183e28:	f023 5343 	bic.w	r3, r3, #817889280	@ 0x30c00000
34183e2c:	f423 137c 	bic.w	r3, r3, #4128768	@ 0x3f0000
34183e30:	3901      	subs	r1, #1
34183e32:	433b      	orrs	r3, r7
34183e34:	ea43 4301 	orr.w	r3, r3, r1, lsl #16
34183e38:	f8c2 30dc 	str.w	r3, [r2, #220]	@ 0xdc
34183e3c:	2340      	movs	r3, #64	@ 0x40
34183e3e:	f8c2 3a40 	str.w	r3, [r2, #2624]	@ 0xa40
34183e42:	f7ff facf 	bl	341833e4 <LL_RCC_SetClockSource>
34183e46:	00ad      	lsls	r5, r5, #2
34183e48:	d519      	bpl.n	34183e7e <HAL_RCCEx_PeriphCLKConfig+0x8d2>
34183e4a:	f8d4 0128 	ldr.w	r0, [r4, #296]	@ 0x128
34183e4e:	4b88      	ldr	r3, [pc, #544]	@ (34184070 <HAL_RCCEx_PeriphCLKConfig+0xac4>)
34183e50:	4298      	cmp	r0, r3
34183e52:	f040 856a 	bne.w	3418492a <HAL_RCCEx_PeriphCLKConfig+0x137e>
34183e56:	4a84      	ldr	r2, [pc, #528]	@ (34184068 <HAL_RCCEx_PeriphCLKConfig+0xabc>)
34183e58:	6be1      	ldr	r1, [r4, #60]	@ 0x3c
34183e5a:	f8d2 30dc 	ldr.w	r3, [r2, #220]	@ 0xdc
34183e5e:	6ba5      	ldr	r5, [r4, #56]	@ 0x38
34183e60:	f023 5343 	bic.w	r3, r3, #817889280	@ 0x30c00000
34183e64:	f423 137c 	bic.w	r3, r3, #4128768	@ 0x3f0000
34183e68:	3901      	subs	r1, #1
34183e6a:	432b      	orrs	r3, r5
34183e6c:	ea43 4301 	orr.w	r3, r3, r1, lsl #16
34183e70:	f8c2 30dc 	str.w	r3, [r2, #220]	@ 0xdc
34183e74:	2340      	movs	r3, #64	@ 0x40
34183e76:	f8c2 3a40 	str.w	r3, [r2, #2624]	@ 0xa40
34183e7a:	f7ff fab3 	bl	341833e4 <LL_RCC_SetClockSource>
34183e7e:	07f0      	lsls	r0, r6, #31
34183e80:	d51e      	bpl.n	34183ec0 <HAL_RCCEx_PeriphCLKConfig+0x914>
34183e82:	f8d4 114c 	ldr.w	r1, [r4, #332]	@ 0x14c
34183e86:	4a78      	ldr	r2, [pc, #480]	@ (34184068 <HAL_RCCEx_PeriphCLKConfig+0xabc>)
34183e88:	2902      	cmp	r1, #2
34183e8a:	f040 856c 	bne.w	34184966 <HAL_RCCEx_PeriphCLKConfig+0x13ba>
34183e8e:	f8d2 30dc 	ldr.w	r3, [r2, #220]	@ 0xdc
34183e92:	6be0      	ldr	r0, [r4, #60]	@ 0x3c
34183e94:	6ba5      	ldr	r5, [r4, #56]	@ 0x38
34183e96:	f023 5343 	bic.w	r3, r3, #817889280	@ 0x30c00000
34183e9a:	f423 137c 	bic.w	r3, r3, #4128768	@ 0x3f0000
34183e9e:	3801      	subs	r0, #1
34183ea0:	432b      	orrs	r3, r5
34183ea2:	ea43 4300 	orr.w	r3, r3, r0, lsl #16
34183ea6:	f8c2 30dc 	str.w	r3, [r2, #220]	@ 0xdc
34183eaa:	2340      	movs	r3, #64	@ 0x40
34183eac:	f8c2 3a40 	str.w	r3, [r2, #2624]	@ 0xa40
34183eb0:	4a6d      	ldr	r2, [pc, #436]	@ (34184068 <HAL_RCCEx_PeriphCLKConfig+0xabc>)
34183eb2:	f8d2 3164 	ldr.w	r3, [r2, #356]	@ 0x164
34183eb6:	f023 0307 	bic.w	r3, r3, #7
34183eba:	430b      	orrs	r3, r1
34183ebc:	f8c2 3164 	str.w	r3, [r2, #356]	@ 0x164
34183ec0:	07b1      	lsls	r1, r6, #30
34183ec2:	d519      	bpl.n	34183ef8 <HAL_RCCEx_PeriphCLKConfig+0x94c>
34183ec4:	f8d4 0134 	ldr.w	r0, [r4, #308]	@ 0x134
34183ec8:	4b6a      	ldr	r3, [pc, #424]	@ (34184074 <HAL_RCCEx_PeriphCLKConfig+0xac8>)
34183eca:	4298      	cmp	r0, r3
34183ecc:	f040 8565 	bne.w	3418499a <HAL_RCCEx_PeriphCLKConfig+0x13ee>
34183ed0:	4a65      	ldr	r2, [pc, #404]	@ (34184068 <HAL_RCCEx_PeriphCLKConfig+0xabc>)
34183ed2:	6c61      	ldr	r1, [r4, #68]	@ 0x44
34183ed4:	f8d2 30e0 	ldr.w	r3, [r2, #224]	@ 0xe0
34183ed8:	6c25      	ldr	r5, [r4, #64]	@ 0x40
34183eda:	f023 5343 	bic.w	r3, r3, #817889280	@ 0x30c00000
34183ede:	f423 137c 	bic.w	r3, r3, #4128768	@ 0x3f0000
34183ee2:	3901      	subs	r1, #1
34183ee4:	432b      	orrs	r3, r5
34183ee6:	ea43 4301 	orr.w	r3, r3, r1, lsl #16
34183eea:	f8c2 30e0 	str.w	r3, [r2, #224]	@ 0xe0
34183eee:	2380      	movs	r3, #128	@ 0x80
34183ef0:	f8c2 3a40 	str.w	r3, [r2, #2624]	@ 0xa40
34183ef4:	f7ff fa76 	bl	341833e4 <LL_RCC_SetClockSource>
34183ef8:	0772      	lsls	r2, r6, #29
34183efa:	d519      	bpl.n	34183f30 <HAL_RCCEx_PeriphCLKConfig+0x984>
34183efc:	f8d4 0138 	ldr.w	r0, [r4, #312]	@ 0x138
34183f00:	4b5d      	ldr	r3, [pc, #372]	@ (34184078 <HAL_RCCEx_PeriphCLKConfig+0xacc>)
34183f02:	4298      	cmp	r0, r3
34183f04:	f040 8568 	bne.w	341849d8 <HAL_RCCEx_PeriphCLKConfig+0x142c>
34183f08:	4a57      	ldr	r2, [pc, #348]	@ (34184068 <HAL_RCCEx_PeriphCLKConfig+0xabc>)
34183f0a:	6c61      	ldr	r1, [r4, #68]	@ 0x44
34183f0c:	f8d2 30e0 	ldr.w	r3, [r2, #224]	@ 0xe0
34183f10:	6c25      	ldr	r5, [r4, #64]	@ 0x40
34183f12:	f023 5343 	bic.w	r3, r3, #817889280	@ 0x30c00000
34183f16:	f423 137c 	bic.w	r3, r3, #4128768	@ 0x3f0000
34183f1a:	3901      	subs	r1, #1
34183f1c:	432b      	orrs	r3, r5
34183f1e:	ea43 4301 	orr.w	r3, r3, r1, lsl #16
34183f22:	f8c2 30e0 	str.w	r3, [r2, #224]	@ 0xe0
34183f26:	2380      	movs	r3, #128	@ 0x80
34183f28:	f8c2 3a40 	str.w	r3, [r2, #2624]	@ 0xa40
34183f2c:	f7ff fa5a 	bl	341833e4 <LL_RCC_SetClockSource>
34183f30:	0733      	lsls	r3, r6, #28
34183f32:	d519      	bpl.n	34183f68 <HAL_RCCEx_PeriphCLKConfig+0x9bc>
34183f34:	f8d4 013c 	ldr.w	r0, [r4, #316]	@ 0x13c
34183f38:	4b50      	ldr	r3, [pc, #320]	@ (3418407c <HAL_RCCEx_PeriphCLKConfig+0xad0>)
34183f3a:	4298      	cmp	r0, r3
34183f3c:	f040 856b 	bne.w	34184a16 <HAL_RCCEx_PeriphCLKConfig+0x146a>
34183f40:	4a49      	ldr	r2, [pc, #292]	@ (34184068 <HAL_RCCEx_PeriphCLKConfig+0xabc>)
34183f42:	6c61      	ldr	r1, [r4, #68]	@ 0x44
34183f44:	f8d2 30e0 	ldr.w	r3, [r2, #224]	@ 0xe0
34183f48:	6c25      	ldr	r5, [r4, #64]	@ 0x40
34183f4a:	f023 5343 	bic.w	r3, r3, #817889280	@ 0x30c00000
34183f4e:	f423 137c 	bic.w	r3, r3, #4128768	@ 0x3f0000
34183f52:	3901      	subs	r1, #1
34183f54:	432b      	orrs	r3, r5
34183f56:	ea43 4301 	orr.w	r3, r3, r1, lsl #16
34183f5a:	f8c2 30e0 	str.w	r3, [r2, #224]	@ 0xe0
34183f5e:	2380      	movs	r3, #128	@ 0x80
34183f60:	f8c2 3a40 	str.w	r3, [r2, #2624]	@ 0xa40
34183f64:	f7ff fa3e 	bl	341833e4 <LL_RCC_SetClockSource>
34183f68:	06f7      	lsls	r7, r6, #27
34183f6a:	d51a      	bpl.n	34183fa2 <HAL_RCCEx_PeriphCLKConfig+0x9f6>
34183f6c:	f8d4 0140 	ldr.w	r0, [r4, #320]	@ 0x140
34183f70:	4b43      	ldr	r3, [pc, #268]	@ (34184080 <HAL_RCCEx_PeriphCLKConfig+0xad4>)
34183f72:	4298      	cmp	r0, r3
34183f74:	f040 8596 	bne.w	34184aa4 <HAL_RCCEx_PeriphCLKConfig+0x14f8>
34183f78:	4a3b      	ldr	r2, [pc, #236]	@ (34184068 <HAL_RCCEx_PeriphCLKConfig+0xabc>)
34183f7a:	6ce1      	ldr	r1, [r4, #76]	@ 0x4c
34183f7c:	f8d2 30e4 	ldr.w	r3, [r2, #228]	@ 0xe4
34183f80:	6ca5      	ldr	r5, [r4, #72]	@ 0x48
34183f82:	f023 5343 	bic.w	r3, r3, #817889280	@ 0x30c00000
34183f86:	f423 137c 	bic.w	r3, r3, #4128768	@ 0x3f0000
34183f8a:	3901      	subs	r1, #1
34183f8c:	432b      	orrs	r3, r5
34183f8e:	ea43 4301 	orr.w	r3, r3, r1, lsl #16
34183f92:	f8c2 30e4 	str.w	r3, [r2, #228]	@ 0xe4
34183f96:	f44f 7380 	mov.w	r3, #256	@ 0x100
34183f9a:	f8c2 3a40 	str.w	r3, [r2, #2624]	@ 0xa40
34183f9e:	f7ff fa21 	bl	341833e4 <LL_RCC_SetClockSource>
34183fa2:	06b5      	lsls	r5, r6, #26
34183fa4:	d51a      	bpl.n	34183fdc <HAL_RCCEx_PeriphCLKConfig+0xa30>
34183fa6:	f8d4 0144 	ldr.w	r0, [r4, #324]	@ 0x144
34183faa:	4b36      	ldr	r3, [pc, #216]	@ (34184084 <HAL_RCCEx_PeriphCLKConfig+0xad8>)
34183fac:	4298      	cmp	r0, r3
34183fae:	f040 8598 	bne.w	34184ae2 <HAL_RCCEx_PeriphCLKConfig+0x1536>
34183fb2:	4a2d      	ldr	r2, [pc, #180]	@ (34184068 <HAL_RCCEx_PeriphCLKConfig+0xabc>)
34183fb4:	6ce1      	ldr	r1, [r4, #76]	@ 0x4c
34183fb6:	f8d2 30e4 	ldr.w	r3, [r2, #228]	@ 0xe4
34183fba:	6ca5      	ldr	r5, [r4, #72]	@ 0x48
34183fbc:	f023 5343 	bic.w	r3, r3, #817889280	@ 0x30c00000
34183fc0:	f423 137c 	bic.w	r3, r3, #4128768	@ 0x3f0000
34183fc4:	3901      	subs	r1, #1
34183fc6:	432b      	orrs	r3, r5
34183fc8:	ea43 4301 	orr.w	r3, r3, r1, lsl #16
34183fcc:	f8c2 30e4 	str.w	r3, [r2, #228]	@ 0xe4
34183fd0:	f44f 7380 	mov.w	r3, #256	@ 0x100
34183fd4:	f8c2 3a40 	str.w	r3, [r2, #2624]	@ 0xa40
34183fd8:	f7ff fa04 	bl	341833e4 <LL_RCC_SetClockSource>
34183fdc:	0670      	lsls	r0, r6, #25
34183fde:	d519      	bpl.n	34184014 <HAL_RCCEx_PeriphCLKConfig+0xa68>
34183fe0:	f8d4 0148 	ldr.w	r0, [r4, #328]	@ 0x148
34183fe4:	4b28      	ldr	r3, [pc, #160]	@ (34184088 <HAL_RCCEx_PeriphCLKConfig+0xadc>)
34183fe6:	4298      	cmp	r0, r3
34183fe8:	f040 859a 	bne.w	34184b20 <HAL_RCCEx_PeriphCLKConfig+0x1574>
34183fec:	4a1e      	ldr	r2, [pc, #120]	@ (34184068 <HAL_RCCEx_PeriphCLKConfig+0xabc>)
34183fee:	6c61      	ldr	r1, [r4, #68]	@ 0x44
34183ff0:	f8d2 30e0 	ldr.w	r3, [r2, #224]	@ 0xe0
34183ff4:	6c25      	ldr	r5, [r4, #64]	@ 0x40
34183ff6:	f023 5343 	bic.w	r3, r3, #817889280	@ 0x30c00000
34183ffa:	f423 137c 	bic.w	r3, r3, #4128768	@ 0x3f0000
34183ffe:	3901      	subs	r1, #1
34184000:	432b      	orrs	r3, r5
34184002:	ea43 4301 	orr.w	r3, r3, r1, lsl #16
34184006:	f8c2 30e0 	str.w	r3, [r2, #224]	@ 0xe0
3418400a:	2380      	movs	r3, #128	@ 0x80
3418400c:	f8c2 3a40 	str.w	r3, [r2, #2624]	@ 0xa40
34184010:	f7ff f9e8 	bl	341833e4 <LL_RCC_SetClockSource>
34184014:	05f1      	lsls	r1, r6, #23
34184016:	d51a      	bpl.n	3418404e <HAL_RCCEx_PeriphCLKConfig+0xaa2>
34184018:	f8d4 0150 	ldr.w	r0, [r4, #336]	@ 0x150
3418401c:	4b1b      	ldr	r3, [pc, #108]	@ (3418408c <HAL_RCCEx_PeriphCLKConfig+0xae0>)
3418401e:	4298      	cmp	r0, r3
34184020:	f040 859d 	bne.w	34184b5e <HAL_RCCEx_PeriphCLKConfig+0x15b2>
34184024:	4a10      	ldr	r2, [pc, #64]	@ (34184068 <HAL_RCCEx_PeriphCLKConfig+0xabc>)
34184026:	6ce1      	ldr	r1, [r4, #76]	@ 0x4c
34184028:	f8d2 30e4 	ldr.w	r3, [r2, #228]	@ 0xe4
3418402c:	6ca5      	ldr	r5, [r4, #72]	@ 0x48
3418402e:	f023 5343 	bic.w	r3, r3, #817889280	@ 0x30c00000
34184032:	f423 137c 	bic.w	r3, r3, #4128768	@ 0x3f0000
34184036:	3901      	subs	r1, #1
34184038:	432b      	orrs	r3, r5
3418403a:	ea43 4301 	orr.w	r3, r3, r1, lsl #16
3418403e:	f8c2 30e4 	str.w	r3, [r2, #228]	@ 0xe4
34184042:	f44f 7380 	mov.w	r3, #256	@ 0x100
34184046:	f8c2 3a40 	str.w	r3, [r2, #2624]	@ 0xa40
3418404a:	f7ff f9cb 	bl	341833e4 <LL_RCC_SetClockSource>
3418404e:	05b2      	lsls	r2, r6, #22
34184050:	d531      	bpl.n	341840b6 <HAL_RCCEx_PeriphCLKConfig+0xb0a>
34184052:	f8d4 0154 	ldr.w	r0, [r4, #340]	@ 0x154
34184056:	4b0e      	ldr	r3, [pc, #56]	@ (34184090 <HAL_RCCEx_PeriphCLKConfig+0xae4>)
34184058:	4298      	cmp	r0, r3
3418405a:	f040 859f 	bne.w	34184b9c <HAL_RCCEx_PeriphCLKConfig+0x15f0>
3418405e:	4a02      	ldr	r2, [pc, #8]	@ (34184068 <HAL_RCCEx_PeriphCLKConfig+0xabc>)
34184060:	6ce1      	ldr	r1, [r4, #76]	@ 0x4c
34184062:	f8d2 30e4 	ldr.w	r3, [r2, #228]	@ 0xe4
34184066:	e015      	b.n	34184094 <HAL_RCCEx_PeriphCLKConfig+0xae8>
34184068:	56028000 	.word	0x56028000
3418406c:	07021418 	.word	0x07021418
34184070:	07021818 	.word	0x07021818
34184074:	07020420 	.word	0x07020420
34184078:	07020820 	.word	0x07020820
3418407c:	07020c20 	.word	0x07020c20
34184080:	07021020 	.word	0x07021020
34184084:	07021420 	.word	0x07021420
34184088:	07021820 	.word	0x07021820
3418408c:	07020030 	.word	0x07020030
34184090:	07020430 	.word	0x07020430
34184094:	6ca5      	ldr	r5, [r4, #72]	@ 0x48
34184096:	f023 5343 	bic.w	r3, r3, #817889280	@ 0x30c00000
3418409a:	f423 137c 	bic.w	r3, r3, #4128768	@ 0x3f0000
3418409e:	3901      	subs	r1, #1
341840a0:	432b      	orrs	r3, r5
341840a2:	ea43 4301 	orr.w	r3, r3, r1, lsl #16
341840a6:	f8c2 30e4 	str.w	r3, [r2, #228]	@ 0xe4
341840aa:	f44f 7380 	mov.w	r3, #256	@ 0x100
341840ae:	f8c2 3a40 	str.w	r3, [r2, #2624]	@ 0xa40
341840b2:	f7ff f997 	bl	341833e4 <LL_RCC_SetClockSource>
341840b6:	0573      	lsls	r3, r6, #21
341840b8:	d51a      	bpl.n	341840f0 <HAL_RCCEx_PeriphCLKConfig+0xb44>
341840ba:	f8d4 0158 	ldr.w	r0, [r4, #344]	@ 0x158
341840be:	4bcb      	ldr	r3, [pc, #812]	@ (341843ec <HAL_RCCEx_PeriphCLKConfig+0xe40>)
341840c0:	4298      	cmp	r0, r3
341840c2:	f040 858a 	bne.w	34184bda <HAL_RCCEx_PeriphCLKConfig+0x162e>
341840c6:	4aca      	ldr	r2, [pc, #808]	@ (341843f0 <HAL_RCCEx_PeriphCLKConfig+0xe44>)
341840c8:	6ce1      	ldr	r1, [r4, #76]	@ 0x4c
341840ca:	f8d2 30e4 	ldr.w	r3, [r2, #228]	@ 0xe4
341840ce:	6ca5      	ldr	r5, [r4, #72]	@ 0x48
341840d0:	f023 5343 	bic.w	r3, r3, #817889280	@ 0x30c00000
341840d4:	f423 137c 	bic.w	r3, r3, #4128768	@ 0x3f0000
341840d8:	3901      	subs	r1, #1
341840da:	432b      	orrs	r3, r5
341840dc:	ea43 4301 	orr.w	r3, r3, r1, lsl #16
341840e0:	f8c2 30e4 	str.w	r3, [r2, #228]	@ 0xe4
341840e4:	f44f 7380 	mov.w	r3, #256	@ 0x100
341840e8:	f8c2 3a40 	str.w	r3, [r2, #2624]	@ 0xa40
341840ec:	f7ff f97a 	bl	341833e4 <LL_RCC_SetClockSource>
341840f0:	0537      	lsls	r7, r6, #20
341840f2:	d51a      	bpl.n	3418412a <HAL_RCCEx_PeriphCLKConfig+0xb7e>
341840f4:	f8d4 015c 	ldr.w	r0, [r4, #348]	@ 0x15c
341840f8:	4bbe      	ldr	r3, [pc, #760]	@ (341843f4 <HAL_RCCEx_PeriphCLKConfig+0xe48>)
341840fa:	4298      	cmp	r0, r3
341840fc:	f040 858c 	bne.w	34184c18 <HAL_RCCEx_PeriphCLKConfig+0x166c>
34184100:	4abb      	ldr	r2, [pc, #748]	@ (341843f0 <HAL_RCCEx_PeriphCLKConfig+0xe44>)
34184102:	6ce1      	ldr	r1, [r4, #76]	@ 0x4c
34184104:	f8d2 30e4 	ldr.w	r3, [r2, #228]	@ 0xe4
34184108:	6ca5      	ldr	r5, [r4, #72]	@ 0x48
3418410a:	f023 5343 	bic.w	r3, r3, #817889280	@ 0x30c00000
3418410e:	f423 137c 	bic.w	r3, r3, #4128768	@ 0x3f0000
34184112:	3901      	subs	r1, #1
34184114:	432b      	orrs	r3, r5
34184116:	ea43 4301 	orr.w	r3, r3, r1, lsl #16
3418411a:	f8c2 30e4 	str.w	r3, [r2, #228]	@ 0xe4
3418411e:	f44f 7380 	mov.w	r3, #256	@ 0x100
34184122:	f8c2 3a40 	str.w	r3, [r2, #2624]	@ 0xa40
34184126:	f7ff f95d 	bl	341833e4 <LL_RCC_SetClockSource>
3418412a:	04f5      	lsls	r5, r6, #19
3418412c:	d51a      	bpl.n	34184164 <HAL_RCCEx_PeriphCLKConfig+0xbb8>
3418412e:	f8d4 0160 	ldr.w	r0, [r4, #352]	@ 0x160
34184132:	4bb1      	ldr	r3, [pc, #708]	@ (341843f8 <HAL_RCCEx_PeriphCLKConfig+0xe4c>)
34184134:	4298      	cmp	r0, r3
34184136:	f040 858e 	bne.w	34184c56 <HAL_RCCEx_PeriphCLKConfig+0x16aa>
3418413a:	4aad      	ldr	r2, [pc, #692]	@ (341843f0 <HAL_RCCEx_PeriphCLKConfig+0xe44>)
3418413c:	6ce1      	ldr	r1, [r4, #76]	@ 0x4c
3418413e:	f8d2 30e4 	ldr.w	r3, [r2, #228]	@ 0xe4
34184142:	6ca5      	ldr	r5, [r4, #72]	@ 0x48
34184144:	f023 5343 	bic.w	r3, r3, #817889280	@ 0x30c00000
34184148:	f423 137c 	bic.w	r3, r3, #4128768	@ 0x3f0000
3418414c:	3901      	subs	r1, #1
3418414e:	432b      	orrs	r3, r5
34184150:	ea43 4301 	orr.w	r3, r3, r1, lsl #16
34184154:	f8c2 30e4 	str.w	r3, [r2, #228]	@ 0xe4
34184158:	f44f 7380 	mov.w	r3, #256	@ 0x100
3418415c:	f8c2 3a40 	str.w	r3, [r2, #2624]	@ 0xa40
34184160:	f7ff f940 	bl	341833e4 <LL_RCC_SetClockSource>
34184164:	04b0      	lsls	r0, r6, #18
34184166:	d51a      	bpl.n	3418419e <HAL_RCCEx_PeriphCLKConfig+0xbf2>
34184168:	f8d4 0164 	ldr.w	r0, [r4, #356]	@ 0x164
3418416c:	4ba3      	ldr	r3, [pc, #652]	@ (341843fc <HAL_RCCEx_PeriphCLKConfig+0xe50>)
3418416e:	4298      	cmp	r0, r3
34184170:	f040 8590 	bne.w	34184c94 <HAL_RCCEx_PeriphCLKConfig+0x16e8>
34184174:	4a9e      	ldr	r2, [pc, #632]	@ (341843f0 <HAL_RCCEx_PeriphCLKConfig+0xe44>)
34184176:	6ce1      	ldr	r1, [r4, #76]	@ 0x4c
34184178:	f8d2 30e4 	ldr.w	r3, [r2, #228]	@ 0xe4
3418417c:	6ca5      	ldr	r5, [r4, #72]	@ 0x48
3418417e:	f023 5343 	bic.w	r3, r3, #817889280	@ 0x30c00000
34184182:	f423 137c 	bic.w	r3, r3, #4128768	@ 0x3f0000
34184186:	3901      	subs	r1, #1
34184188:	432b      	orrs	r3, r5
3418418a:	ea43 4301 	orr.w	r3, r3, r1, lsl #16
3418418e:	f8c2 30e4 	str.w	r3, [r2, #228]	@ 0xe4
34184192:	f44f 7380 	mov.w	r3, #256	@ 0x100
34184196:	f8c2 3a40 	str.w	r3, [r2, #2624]	@ 0xa40
3418419a:	f7ff f923 	bl	341833e4 <LL_RCC_SetClockSource>
3418419e:	0471      	lsls	r1, r6, #17
341841a0:	d51a      	bpl.n	341841d8 <HAL_RCCEx_PeriphCLKConfig+0xc2c>
341841a2:	f8d4 0168 	ldr.w	r0, [r4, #360]	@ 0x168
341841a6:	4b96      	ldr	r3, [pc, #600]	@ (34184400 <HAL_RCCEx_PeriphCLKConfig+0xe54>)
341841a8:	4298      	cmp	r0, r3
341841aa:	f040 8592 	bne.w	34184cd2 <HAL_RCCEx_PeriphCLKConfig+0x1726>
341841ae:	4a90      	ldr	r2, [pc, #576]	@ (341843f0 <HAL_RCCEx_PeriphCLKConfig+0xe44>)
341841b0:	6ce1      	ldr	r1, [r4, #76]	@ 0x4c
341841b2:	f8d2 30e4 	ldr.w	r3, [r2, #228]	@ 0xe4
341841b6:	6ca5      	ldr	r5, [r4, #72]	@ 0x48
341841b8:	f023 5343 	bic.w	r3, r3, #817889280	@ 0x30c00000
341841bc:	f423 137c 	bic.w	r3, r3, #4128768	@ 0x3f0000
341841c0:	3901      	subs	r1, #1
341841c2:	432b      	orrs	r3, r5
341841c4:	ea43 4301 	orr.w	r3, r3, r1, lsl #16
341841c8:	f8c2 30e4 	str.w	r3, [r2, #228]	@ 0xe4
341841cc:	f44f 7380 	mov.w	r3, #256	@ 0x100
341841d0:	f8c2 3a40 	str.w	r3, [r2, #2624]	@ 0xa40
341841d4:	f7ff f906 	bl	341833e4 <LL_RCC_SetClockSource>
341841d8:	0432      	lsls	r2, r6, #16
341841da:	d51a      	bpl.n	34184212 <HAL_RCCEx_PeriphCLKConfig+0xc66>
341841dc:	f8d4 016c 	ldr.w	r0, [r4, #364]	@ 0x16c
341841e0:	4b88      	ldr	r3, [pc, #544]	@ (34184404 <HAL_RCCEx_PeriphCLKConfig+0xe58>)
341841e2:	4298      	cmp	r0, r3
341841e4:	f040 8594 	bne.w	34184d10 <HAL_RCCEx_PeriphCLKConfig+0x1764>
341841e8:	4a81      	ldr	r2, [pc, #516]	@ (341843f0 <HAL_RCCEx_PeriphCLKConfig+0xe44>)
341841ea:	6ce1      	ldr	r1, [r4, #76]	@ 0x4c
341841ec:	f8d2 30e4 	ldr.w	r3, [r2, #228]	@ 0xe4
341841f0:	6ca5      	ldr	r5, [r4, #72]	@ 0x48
341841f2:	f023 5343 	bic.w	r3, r3, #817889280	@ 0x30c00000
341841f6:	f423 137c 	bic.w	r3, r3, #4128768	@ 0x3f0000
341841fa:	3901      	subs	r1, #1
341841fc:	432b      	orrs	r3, r5
341841fe:	ea43 4301 	orr.w	r3, r3, r1, lsl #16
34184202:	f8c2 30e4 	str.w	r3, [r2, #228]	@ 0xe4
34184206:	f44f 7380 	mov.w	r3, #256	@ 0x100
3418420a:	f8c2 3a40 	str.w	r3, [r2, #2624]	@ 0xa40
3418420e:	f7ff f8e9 	bl	341833e4 <LL_RCC_SetClockSource>
34184212:	03f3      	lsls	r3, r6, #15
34184214:	d51a      	bpl.n	3418424c <HAL_RCCEx_PeriphCLKConfig+0xca0>
34184216:	f8d4 0170 	ldr.w	r0, [r4, #368]	@ 0x170
3418421a:	4b7b      	ldr	r3, [pc, #492]	@ (34184408 <HAL_RCCEx_PeriphCLKConfig+0xe5c>)
3418421c:	4298      	cmp	r0, r3
3418421e:	f040 8596 	bne.w	34184d4e <HAL_RCCEx_PeriphCLKConfig+0x17a2>
34184222:	4a73      	ldr	r2, [pc, #460]	@ (341843f0 <HAL_RCCEx_PeriphCLKConfig+0xe44>)
34184224:	6ce1      	ldr	r1, [r4, #76]	@ 0x4c
34184226:	f8d2 30e4 	ldr.w	r3, [r2, #228]	@ 0xe4
3418422a:	6ca5      	ldr	r5, [r4, #72]	@ 0x48
3418422c:	f023 5343 	bic.w	r3, r3, #817889280	@ 0x30c00000
34184230:	f423 137c 	bic.w	r3, r3, #4128768	@ 0x3f0000
34184234:	3901      	subs	r1, #1
34184236:	432b      	orrs	r3, r5
34184238:	ea43 4301 	orr.w	r3, r3, r1, lsl #16
3418423c:	f8c2 30e4 	str.w	r3, [r2, #228]	@ 0xe4
34184240:	f44f 7380 	mov.w	r3, #256	@ 0x100
34184244:	f8c2 3a40 	str.w	r3, [r2, #2624]	@ 0xa40
34184248:	f7ff f8cc 	bl	341833e4 <LL_RCC_SetClockSource>
3418424c:	03b7      	lsls	r7, r6, #14
3418424e:	d51a      	bpl.n	34184286 <HAL_RCCEx_PeriphCLKConfig+0xcda>
34184250:	f8d4 0174 	ldr.w	r0, [r4, #372]	@ 0x174
34184254:	4b6d      	ldr	r3, [pc, #436]	@ (3418440c <HAL_RCCEx_PeriphCLKConfig+0xe60>)
34184256:	4298      	cmp	r0, r3
34184258:	f040 85ca 	bne.w	34184df0 <HAL_RCCEx_PeriphCLKConfig+0x1844>
3418425c:	4a64      	ldr	r2, [pc, #400]	@ (341843f0 <HAL_RCCEx_PeriphCLKConfig+0xe44>)
3418425e:	6ce1      	ldr	r1, [r4, #76]	@ 0x4c
34184260:	f8d2 30e4 	ldr.w	r3, [r2, #228]	@ 0xe4
34184264:	6ca5      	ldr	r5, [r4, #72]	@ 0x48
34184266:	f023 5343 	bic.w	r3, r3, #817889280	@ 0x30c00000
3418426a:	f423 137c 	bic.w	r3, r3, #4128768	@ 0x3f0000
3418426e:	3901      	subs	r1, #1
34184270:	432b      	orrs	r3, r5
34184272:	ea43 4301 	orr.w	r3, r3, r1, lsl #16
34184276:	f8c2 30e4 	str.w	r3, [r2, #228]	@ 0xe4
3418427a:	f44f 7380 	mov.w	r3, #256	@ 0x100
3418427e:	f8c2 3a40 	str.w	r3, [r2, #2624]	@ 0xa40
34184282:	f7ff f8af 	bl	341833e4 <LL_RCC_SetClockSource>
34184286:	0375      	lsls	r5, r6, #13
34184288:	d523      	bpl.n	341842d2 <HAL_RCCEx_PeriphCLKConfig+0xd26>
3418428a:	f8d4 0178 	ldr.w	r0, [r4, #376]	@ 0x178
3418428e:	4b60      	ldr	r3, [pc, #384]	@ (34184410 <HAL_RCCEx_PeriphCLKConfig+0xe64>)
34184290:	4298      	cmp	r0, r3
34184292:	f040 85cc 	bne.w	34184e2e <HAL_RCCEx_PeriphCLKConfig+0x1882>
34184296:	4a56      	ldr	r2, [pc, #344]	@ (341843f0 <HAL_RCCEx_PeriphCLKConfig+0xe44>)
34184298:	6fe1      	ldr	r1, [r4, #124]	@ 0x7c
3418429a:	f8d2 30fc 	ldr.w	r3, [r2, #252]	@ 0xfc
3418429e:	6fa5      	ldr	r5, [r4, #120]	@ 0x78
341842a0:	f023 5343 	bic.w	r3, r3, #817889280	@ 0x30c00000
341842a4:	f423 137c 	bic.w	r3, r3, #4128768	@ 0x3f0000
341842a8:	3901      	subs	r1, #1
341842aa:	432b      	orrs	r3, r5
341842ac:	ea43 4301 	orr.w	r3, r3, r1, lsl #16
341842b0:	f8c2 30fc 	str.w	r3, [r2, #252]	@ 0xfc
341842b4:	f44f 4380 	mov.w	r3, #16384	@ 0x4000
341842b8:	f8c2 3a40 	str.w	r3, [r2, #2624]	@ 0xa40
341842bc:	f020 4000 	bic.w	r0, r0, #2147483648	@ 0x80000000
341842c0:	f7ff f890 	bl	341833e4 <LL_RCC_SetClockSource>
341842c4:	f8d4 3178 	ldr.w	r3, [r4, #376]	@ 0x178
341842c8:	2b00      	cmp	r3, #0
341842ca:	f280 85b9 	bge.w	34184e40 <HAL_RCCEx_PeriphCLKConfig+0x1894>
341842ce:	f7ff f859 	bl	34183384 <LL_RCC_HSE_SelectHSEDiv2AsDiv2Clock>
341842d2:	02f0      	lsls	r0, r6, #11
341842d4:	d523      	bpl.n	3418431e <HAL_RCCEx_PeriphCLKConfig+0xd72>
341842d6:	f8d4 0180 	ldr.w	r0, [r4, #384]	@ 0x180
341842da:	4b4e      	ldr	r3, [pc, #312]	@ (34184414 <HAL_RCCEx_PeriphCLKConfig+0xe68>)
341842dc:	4298      	cmp	r0, r3
341842de:	f040 85b3 	bne.w	34184e48 <HAL_RCCEx_PeriphCLKConfig+0x189c>
341842e2:	4a43      	ldr	r2, [pc, #268]	@ (341843f0 <HAL_RCCEx_PeriphCLKConfig+0xe44>)
341842e4:	6fe1      	ldr	r1, [r4, #124]	@ 0x7c
341842e6:	f8d2 30fc 	ldr.w	r3, [r2, #252]	@ 0xfc
341842ea:	6fa5      	ldr	r5, [r4, #120]	@ 0x78
341842ec:	f023 5343 	bic.w	r3, r3, #817889280	@ 0x30c00000
341842f0:	f423 137c 	bic.w	r3, r3, #4128768	@ 0x3f0000
341842f4:	3901      	subs	r1, #1
341842f6:	432b      	orrs	r3, r5
341842f8:	ea43 4301 	orr.w	r3, r3, r1, lsl #16
341842fc:	f8c2 30fc 	str.w	r3, [r2, #252]	@ 0xfc
34184300:	f44f 4380 	mov.w	r3, #16384	@ 0x4000
34184304:	f8c2 3a40 	str.w	r3, [r2, #2624]	@ 0xa40
34184308:	f020 4000 	bic.w	r0, r0, #2147483648	@ 0x80000000
3418430c:	f7ff f86a 	bl	341833e4 <LL_RCC_SetClockSource>
34184310:	f8d4 3180 	ldr.w	r3, [r4, #384]	@ 0x180
34184314:	2b00      	cmp	r3, #0
34184316:	f280 85a0 	bge.w	34184e5a <HAL_RCCEx_PeriphCLKConfig+0x18ae>
3418431a:	f7ff f833 	bl	34183384 <LL_RCC_HSE_SelectHSEDiv2AsDiv2Clock>
3418431e:	0331      	lsls	r1, r6, #12
34184320:	d50c      	bpl.n	3418433c <HAL_RCCEx_PeriphCLKConfig+0xd90>
34184322:	f8d4 017c 	ldr.w	r0, [r4, #380]	@ 0x17c
34184326:	f020 4000 	bic.w	r0, r0, #2147483648	@ 0x80000000
3418432a:	f7ff f85b 	bl	341833e4 <LL_RCC_SetClockSource>
3418432e:	f8d4 317c 	ldr.w	r3, [r4, #380]	@ 0x17c
34184332:	2b00      	cmp	r3, #0
34184334:	f280 8595 	bge.w	34184e62 <HAL_RCCEx_PeriphCLKConfig+0x18b6>
34184338:	f7ff f824 	bl	34183384 <LL_RCC_HSE_SelectHSEDiv2AsDiv2Clock>
3418433c:	02b2      	lsls	r2, r6, #10
3418433e:	d50c      	bpl.n	3418435a <HAL_RCCEx_PeriphCLKConfig+0xdae>
34184340:	f8d4 0184 	ldr.w	r0, [r4, #388]	@ 0x184
34184344:	f020 4000 	bic.w	r0, r0, #2147483648	@ 0x80000000
34184348:	f7ff f84c 	bl	341833e4 <LL_RCC_SetClockSource>
3418434c:	f8d4 3184 	ldr.w	r3, [r4, #388]	@ 0x184
34184350:	2b00      	cmp	r3, #0
34184352:	f280 858a 	bge.w	34184e6a <HAL_RCCEx_PeriphCLKConfig+0x18be>
34184356:	f7ff f815 	bl	34183384 <LL_RCC_HSE_SelectHSEDiv2AsDiv2Clock>
3418435a:	0633      	lsls	r3, r6, #24
3418435c:	d508      	bpl.n	34184370 <HAL_RCCEx_PeriphCLKConfig+0xdc4>
3418435e:	4a24      	ldr	r2, [pc, #144]	@ (341843f0 <HAL_RCCEx_PeriphCLKConfig+0xe44>)
34184360:	f8d4 118c 	ldr.w	r1, [r4, #396]	@ 0x18c
34184364:	6a53      	ldr	r3, [r2, #36]	@ 0x24
34184366:	f023 7340 	bic.w	r3, r3, #50331648	@ 0x3000000
3418436a:	ea43 6301 	orr.w	r3, r3, r1, lsl #24
3418436e:	6253      	str	r3, [r2, #36]	@ 0x24
34184370:	f1b8 0000 	subs.w	r0, r8, #0
34184374:	bf18      	it	ne
34184376:	2001      	movne	r0, #1
34184378:	e8bd 81f0 	ldmia.w	sp!, {r4, r5, r6, r7, r8, pc}
3418437c:	f8d3 20e8 	ldr.w	r2, [r3, #232]	@ 0xe8
34184380:	6d60      	ldr	r0, [r4, #84]	@ 0x54
34184382:	6d27      	ldr	r7, [r4, #80]	@ 0x50
34184384:	f022 5243 	bic.w	r2, r2, #817889280	@ 0x30c00000
34184388:	f422 127c 	bic.w	r2, r2, #4128768	@ 0x3f0000
3418438c:	3801      	subs	r0, #1
3418438e:	433a      	orrs	r2, r7
34184390:	ea42 4200 	orr.w	r2, r2, r0, lsl #16
34184394:	f8c3 20e8 	str.w	r2, [r3, #232]	@ 0xe8
34184398:	f44f 7200 	mov.w	r2, #512	@ 0x200
3418439c:	f7ff b975 	b.w	3418368a <HAL_RCCEx_PeriphCLKConfig+0xde>
341843a0:	f8d3 20fc 	ldr.w	r2, [r3, #252]	@ 0xfc
341843a4:	6fe0      	ldr	r0, [r4, #124]	@ 0x7c
341843a6:	6fa7      	ldr	r7, [r4, #120]	@ 0x78
341843a8:	f022 5243 	bic.w	r2, r2, #817889280	@ 0x30c00000
341843ac:	f422 127c 	bic.w	r2, r2, #4128768	@ 0x3f0000
341843b0:	3801      	subs	r0, #1
341843b2:	433a      	orrs	r2, r7
341843b4:	ea42 4200 	orr.w	r2, r2, r0, lsl #16
341843b8:	f8c3 20fc 	str.w	r2, [r3, #252]	@ 0xfc
341843bc:	f44f 4280 	mov.w	r2, #16384	@ 0x4000
341843c0:	f7ff b963 	b.w	3418368a <HAL_RCCEx_PeriphCLKConfig+0xde>
341843c4:	f8d3 210c 	ldr.w	r2, [r3, #268]	@ 0x10c
341843c8:	f8d4 009c 	ldr.w	r0, [r4, #156]	@ 0x9c
341843cc:	f8d4 7098 	ldr.w	r7, [r4, #152]	@ 0x98
341843d0:	f022 5243 	bic.w	r2, r2, #817889280	@ 0x30c00000
341843d4:	f422 127c 	bic.w	r2, r2, #4128768	@ 0x3f0000
341843d8:	3801      	subs	r0, #1
341843da:	433a      	orrs	r2, r7
341843dc:	ea42 4200 	orr.w	r2, r2, r0, lsl #16
341843e0:	f8c3 210c 	str.w	r2, [r3, #268]	@ 0x10c
341843e4:	f44f 2280 	mov.w	r2, #262144	@ 0x40000
341843e8:	f7ff b94f 	b.w	3418368a <HAL_RCCEx_PeriphCLKConfig+0xde>
341843ec:	07020830 	.word	0x07020830
341843f0:	56028000 	.word	0x56028000
341843f4:	07020c30 	.word	0x07020c30
341843f8:	07021030 	.word	0x07021030
341843fc:	07021430 	.word	0x07021430
34184400:	07021830 	.word	0x07021830
34184404:	07021c30 	.word	0x07021c30
34184408:	07020034 	.word	0x07020034
3418440c:	07020434 	.word	0x07020434
34184410:	03020c14 	.word	0x03020c14
34184414:	03021414 	.word	0x03021414
34184418:	f8d3 2110 	ldr.w	r2, [r3, #272]	@ 0x110
3418441c:	f8d4 00a4 	ldr.w	r0, [r4, #164]	@ 0xa4
34184420:	f8d4 70a0 	ldr.w	r7, [r4, #160]	@ 0xa0
34184424:	f022 5243 	bic.w	r2, r2, #817889280	@ 0x30c00000
34184428:	f422 127c 	bic.w	r2, r2, #4128768	@ 0x3f0000
3418442c:	3801      	subs	r0, #1
3418442e:	433a      	orrs	r2, r7
34184430:	ea42 4200 	orr.w	r2, r2, r0, lsl #16
34184434:	f8c3 2110 	str.w	r2, [r3, #272]	@ 0x110
34184438:	f44f 2200 	mov.w	r2, #524288	@ 0x80000
3418443c:	f7ff b925 	b.w	3418368a <HAL_RCCEx_PeriphCLKConfig+0xde>
34184440:	4bbe      	ldr	r3, [pc, #760]	@ (3418473c <HAL_RCCEx_PeriphCLKConfig+0x1190>)
34184442:	4298      	cmp	r0, r3
34184444:	d111      	bne.n	3418446a <HAL_RCCEx_PeriphCLKConfig+0xebe>
34184446:	4abe      	ldr	r2, [pc, #760]	@ (34184740 <HAL_RCCEx_PeriphCLKConfig+0x1194>)
34184448:	6a61      	ldr	r1, [r4, #36]	@ 0x24
3418444a:	f8d2 30d0 	ldr.w	r3, [r2, #208]	@ 0xd0
3418444e:	6a27      	ldr	r7, [r4, #32]
34184450:	f023 5343 	bic.w	r3, r3, #817889280	@ 0x30c00000
34184454:	f423 137c 	bic.w	r3, r3, #4128768	@ 0x3f0000
34184458:	3901      	subs	r1, #1
3418445a:	433b      	orrs	r3, r7
3418445c:	ea43 4301 	orr.w	r3, r3, r1, lsl #16
34184460:	f8c2 30d0 	str.w	r3, [r2, #208]	@ 0xd0
34184464:	2308      	movs	r3, #8
34184466:	f7ff b932 	b.w	341836ce <HAL_RCCEx_PeriphCLKConfig+0x122>
3418446a:	4bb6      	ldr	r3, [pc, #728]	@ (34184744 <HAL_RCCEx_PeriphCLKConfig+0x1198>)
3418446c:	4298      	cmp	r0, r3
3418446e:	bf02      	ittt	eq
34184470:	2240      	moveq	r2, #64	@ 0x40
34184472:	4bb3      	ldreq	r3, [pc, #716]	@ (34184740 <HAL_RCCEx_PeriphCLKConfig+0x1194>)
34184474:	f8c3 2a48 	streq.w	r2, [r3, #2632]	@ 0xa48
34184478:	f7ff b92b 	b.w	341836d2 <HAL_RCCEx_PeriphCLKConfig+0x126>
3418447c:	4bb2      	ldr	r3, [pc, #712]	@ (34184748 <HAL_RCCEx_PeriphCLKConfig+0x119c>)
3418447e:	4298      	cmp	r0, r3
34184480:	d111      	bne.n	341844a6 <HAL_RCCEx_PeriphCLKConfig+0xefa>
34184482:	4aaf      	ldr	r2, [pc, #700]	@ (34184740 <HAL_RCCEx_PeriphCLKConfig+0x1194>)
34184484:	6a61      	ldr	r1, [r4, #36]	@ 0x24
34184486:	f8d2 30d0 	ldr.w	r3, [r2, #208]	@ 0xd0
3418448a:	6a27      	ldr	r7, [r4, #32]
3418448c:	f023 5343 	bic.w	r3, r3, #817889280	@ 0x30c00000
34184490:	f423 137c 	bic.w	r3, r3, #4128768	@ 0x3f0000
34184494:	3901      	subs	r1, #1
34184496:	433b      	orrs	r3, r7
34184498:	ea43 4301 	orr.w	r3, r3, r1, lsl #16
3418449c:	f8c2 30d0 	str.w	r3, [r2, #208]	@ 0xd0
341844a0:	2308      	movs	r3, #8
341844a2:	f7ff b930 	b.w	34183706 <HAL_RCCEx_PeriphCLKConfig+0x15a>
341844a6:	4ba9      	ldr	r3, [pc, #676]	@ (3418474c <HAL_RCCEx_PeriphCLKConfig+0x11a0>)
341844a8:	4298      	cmp	r0, r3
341844aa:	bf02      	ittt	eq
341844ac:	2240      	moveq	r2, #64	@ 0x40
341844ae:	4ba4      	ldreq	r3, [pc, #656]	@ (34184740 <HAL_RCCEx_PeriphCLKConfig+0x1194>)
341844b0:	f8c3 2a48 	streq.w	r2, [r3, #2632]	@ 0xa48
341844b4:	f7ff b929 	b.w	3418370a <HAL_RCCEx_PeriphCLKConfig+0x15e>
341844b8:	4ba5      	ldr	r3, [pc, #660]	@ (34184750 <HAL_RCCEx_PeriphCLKConfig+0x11a4>)
341844ba:	4298      	cmp	r0, r3
341844bc:	d111      	bne.n	341844e2 <HAL_RCCEx_PeriphCLKConfig+0xf36>
341844be:	4aa0      	ldr	r2, [pc, #640]	@ (34184740 <HAL_RCCEx_PeriphCLKConfig+0x1194>)
341844c0:	6a61      	ldr	r1, [r4, #36]	@ 0x24
341844c2:	f8d2 30d0 	ldr.w	r3, [r2, #208]	@ 0xd0
341844c6:	6a27      	ldr	r7, [r4, #32]
341844c8:	f023 5343 	bic.w	r3, r3, #817889280	@ 0x30c00000
341844cc:	f423 137c 	bic.w	r3, r3, #4128768	@ 0x3f0000
341844d0:	3901      	subs	r1, #1
341844d2:	433b      	orrs	r3, r7
341844d4:	ea43 4301 	orr.w	r3, r3, r1, lsl #16
341844d8:	f8c2 30d0 	str.w	r3, [r2, #208]	@ 0xd0
341844dc:	2308      	movs	r3, #8
341844de:	f7ff b92e 	b.w	3418373e <HAL_RCCEx_PeriphCLKConfig+0x192>
341844e2:	4b9c      	ldr	r3, [pc, #624]	@ (34184754 <HAL_RCCEx_PeriphCLKConfig+0x11a8>)
341844e4:	4298      	cmp	r0, r3
341844e6:	bf02      	ittt	eq
341844e8:	2240      	moveq	r2, #64	@ 0x40
341844ea:	4b95      	ldreq	r3, [pc, #596]	@ (34184740 <HAL_RCCEx_PeriphCLKConfig+0x1194>)
341844ec:	f8c3 2a48 	streq.w	r2, [r3, #2632]	@ 0xa48
341844f0:	f7ff b927 	b.w	34183742 <HAL_RCCEx_PeriphCLKConfig+0x196>
341844f4:	2930      	cmp	r1, #48	@ 0x30
341844f6:	d110      	bne.n	3418451a <HAL_RCCEx_PeriphCLKConfig+0xf6e>
341844f8:	f8d2 30d0 	ldr.w	r3, [r2, #208]	@ 0xd0
341844fc:	6a60      	ldr	r0, [r4, #36]	@ 0x24
341844fe:	6a27      	ldr	r7, [r4, #32]
34184500:	f023 5343 	bic.w	r3, r3, #817889280	@ 0x30c00000
34184504:	f423 137c 	bic.w	r3, r3, #4128768	@ 0x3f0000
34184508:	3801      	subs	r0, #1
3418450a:	433b      	orrs	r3, r7
3418450c:	ea43 4300 	orr.w	r3, r3, r0, lsl #16
34184510:	f8c2 30d0 	str.w	r3, [r2, #208]	@ 0xd0
34184514:	2308      	movs	r3, #8
34184516:	f7ff b92d 	b.w	34183774 <HAL_RCCEx_PeriphCLKConfig+0x1c8>
3418451a:	2910      	cmp	r1, #16
3418451c:	bf04      	itt	eq
3418451e:	2340      	moveq	r3, #64	@ 0x40
34184520:	f8c2 3a48 	streq.w	r3, [r2, #2632]	@ 0xa48
34184524:	f7ff b928 	b.w	34183778 <HAL_RCCEx_PeriphCLKConfig+0x1cc>
34184528:	4b8b      	ldr	r3, [pc, #556]	@ (34184758 <HAL_RCCEx_PeriphCLKConfig+0x11ac>)
3418452a:	4298      	cmp	r0, r3
3418452c:	d111      	bne.n	34184552 <HAL_RCCEx_PeriphCLKConfig+0xfa6>
3418452e:	4a84      	ldr	r2, [pc, #528]	@ (34184740 <HAL_RCCEx_PeriphCLKConfig+0x1194>)
34184530:	6ae1      	ldr	r1, [r4, #44]	@ 0x2c
34184532:	f8d2 30d4 	ldr.w	r3, [r2, #212]	@ 0xd4
34184536:	6aa7      	ldr	r7, [r4, #40]	@ 0x28
34184538:	f023 5343 	bic.w	r3, r3, #817889280	@ 0x30c00000
3418453c:	f423 137c 	bic.w	r3, r3, #4128768	@ 0x3f0000
34184540:	3901      	subs	r1, #1
34184542:	433b      	orrs	r3, r7
34184544:	ea43 4301 	orr.w	r3, r3, r1, lsl #16
34184548:	f8c2 30d4 	str.w	r3, [r2, #212]	@ 0xd4
3418454c:	2310      	movs	r3, #16
3418454e:	f7ff b933 	b.w	341837b8 <HAL_RCCEx_PeriphCLKConfig+0x20c>
34184552:	4b82      	ldr	r3, [pc, #520]	@ (3418475c <HAL_RCCEx_PeriphCLKConfig+0x11b0>)
34184554:	4298      	cmp	r0, r3
34184556:	bf02      	ittt	eq
34184558:	2240      	moveq	r2, #64	@ 0x40
3418455a:	4b79      	ldreq	r3, [pc, #484]	@ (34184740 <HAL_RCCEx_PeriphCLKConfig+0x1194>)
3418455c:	f8c3 2a48 	streq.w	r2, [r3, #2632]	@ 0xa48
34184560:	f7ff b92c 	b.w	341837bc <HAL_RCCEx_PeriphCLKConfig+0x210>
34184564:	4b7e      	ldr	r3, [pc, #504]	@ (34184760 <HAL_RCCEx_PeriphCLKConfig+0x11b4>)
34184566:	4298      	cmp	r0, r3
34184568:	d111      	bne.n	3418458e <HAL_RCCEx_PeriphCLKConfig+0xfe2>
3418456a:	4a75      	ldr	r2, [pc, #468]	@ (34184740 <HAL_RCCEx_PeriphCLKConfig+0x1194>)
3418456c:	6ae1      	ldr	r1, [r4, #44]	@ 0x2c
3418456e:	f8d2 30d4 	ldr.w	r3, [r2, #212]	@ 0xd4
34184572:	6aa7      	ldr	r7, [r4, #40]	@ 0x28
34184574:	f023 5343 	bic.w	r3, r3, #817889280	@ 0x30c00000
34184578:	f423 137c 	bic.w	r3, r3, #4128768	@ 0x3f0000
3418457c:	3901      	subs	r1, #1
3418457e:	433b      	orrs	r3, r7
34184580:	ea43 4301 	orr.w	r3, r3, r1, lsl #16
34184584:	f8c2 30d4 	str.w	r3, [r2, #212]	@ 0xd4
34184588:	2310      	movs	r3, #16
3418458a:	f7ff b931 	b.w	341837f0 <HAL_RCCEx_PeriphCLKConfig+0x244>
3418458e:	4b75      	ldr	r3, [pc, #468]	@ (34184764 <HAL_RCCEx_PeriphCLKConfig+0x11b8>)
34184590:	4298      	cmp	r0, r3
34184592:	bf02      	ittt	eq
34184594:	2240      	moveq	r2, #64	@ 0x40
34184596:	4b6a      	ldreq	r3, [pc, #424]	@ (34184740 <HAL_RCCEx_PeriphCLKConfig+0x1194>)
34184598:	f8c3 2a48 	streq.w	r2, [r3, #2632]	@ 0xa48
3418459c:	f7ff b92a 	b.w	341837f4 <HAL_RCCEx_PeriphCLKConfig+0x248>
341845a0:	2a30      	cmp	r2, #48	@ 0x30
341845a2:	d110      	bne.n	341845c6 <HAL_RCCEx_PeriphCLKConfig+0x101a>
341845a4:	f8d1 30e0 	ldr.w	r3, [r1, #224]	@ 0xe0
341845a8:	6c60      	ldr	r0, [r4, #68]	@ 0x44
341845aa:	6c27      	ldr	r7, [r4, #64]	@ 0x40
341845ac:	f023 5343 	bic.w	r3, r3, #817889280	@ 0x30c00000
341845b0:	f423 137c 	bic.w	r3, r3, #4128768	@ 0x3f0000
341845b4:	3801      	subs	r0, #1
341845b6:	433b      	orrs	r3, r7
341845b8:	ea43 4300 	orr.w	r3, r3, r0, lsl #16
341845bc:	f8c1 30e0 	str.w	r3, [r1, #224]	@ 0xe0
341845c0:	2380      	movs	r3, #128	@ 0x80
341845c2:	f7ff b930 	b.w	34183826 <HAL_RCCEx_PeriphCLKConfig+0x27a>
341845c6:	2a10      	cmp	r2, #16
341845c8:	bf04      	itt	eq
341845ca:	2340      	moveq	r3, #64	@ 0x40
341845cc:	f8c1 3a48 	streq.w	r3, [r1, #2632]	@ 0xa48
341845d0:	f7ff b92b 	b.w	3418382a <HAL_RCCEx_PeriphCLKConfig+0x27e>
341845d4:	2903      	cmp	r1, #3
341845d6:	d110      	bne.n	341845fa <HAL_RCCEx_PeriphCLKConfig+0x104e>
341845d8:	f8d2 30e0 	ldr.w	r3, [r2, #224]	@ 0xe0
341845dc:	6c60      	ldr	r0, [r4, #68]	@ 0x44
341845de:	6c27      	ldr	r7, [r4, #64]	@ 0x40
341845e0:	f023 5343 	bic.w	r3, r3, #817889280	@ 0x30c00000
341845e4:	f423 137c 	bic.w	r3, r3, #4128768	@ 0x3f0000
341845e8:	3801      	subs	r0, #1
341845ea:	433b      	orrs	r3, r7
341845ec:	ea43 4300 	orr.w	r3, r3, r0, lsl #16
341845f0:	f8c2 30e0 	str.w	r3, [r2, #224]	@ 0xe0
341845f4:	2380      	movs	r3, #128	@ 0x80
341845f6:	f7ff b93e 	b.w	34183876 <HAL_RCCEx_PeriphCLKConfig+0x2ca>
341845fa:	2901      	cmp	r1, #1
341845fc:	bf04      	itt	eq
341845fe:	2340      	moveq	r3, #64	@ 0x40
34184600:	f8c2 3a48 	streq.w	r3, [r2, #2632]	@ 0xa48
34184604:	f7ff b939 	b.w	3418387a <HAL_RCCEx_PeriphCLKConfig+0x2ce>
34184608:	f5b1 1f80 	cmp.w	r1, #1048576	@ 0x100000
3418460c:	bf04      	itt	eq
3418460e:	2340      	moveq	r3, #64	@ 0x40
34184610:	f8c2 3a48 	streq.w	r3, [r2, #2632]	@ 0xa48
34184614:	f7ff b96d 	b.w	341838f2 <HAL_RCCEx_PeriphCLKConfig+0x346>
34184618:	f5b1 5f80 	cmp.w	r1, #4096	@ 0x1000
3418461c:	bf04      	itt	eq
3418461e:	2340      	moveq	r3, #64	@ 0x40
34184620:	f8c2 3a48 	streq.w	r3, [r2, #2632]	@ 0xa48
34184624:	f7ff b988 	b.w	34183938 <HAL_RCCEx_PeriphCLKConfig+0x38c>
34184628:	2901      	cmp	r1, #1
3418462a:	bf04      	itt	eq
3418462c:	2340      	moveq	r3, #64	@ 0x40
3418462e:	f8c2 3a48 	streq.w	r3, [r2, #2632]	@ 0xa48
34184632:	f7ff b9d5 	b.w	341839e0 <HAL_RCCEx_PeriphCLKConfig+0x434>
34184636:	2901      	cmp	r1, #1
34184638:	bf04      	itt	eq
3418463a:	2340      	moveq	r3, #64	@ 0x40
3418463c:	f8c2 3a48 	streq.w	r3, [r2, #2632]	@ 0xa48
34184640:	f7ff b9f7 	b.w	34183a32 <HAL_RCCEx_PeriphCLKConfig+0x486>
34184644:	4b48      	ldr	r3, [pc, #288]	@ (34184768 <HAL_RCCEx_PeriphCLKConfig+0x11bc>)
34184646:	4298      	cmp	r0, r3
34184648:	d112      	bne.n	34184670 <HAL_RCCEx_PeriphCLKConfig+0x10c4>
3418464a:	4a3d      	ldr	r2, [pc, #244]	@ (34184740 <HAL_RCCEx_PeriphCLKConfig+0x1194>)
3418464c:	6fe1      	ldr	r1, [r4, #124]	@ 0x7c
3418464e:	f8d2 30fc 	ldr.w	r3, [r2, #252]	@ 0xfc
34184652:	6fa7      	ldr	r7, [r4, #120]	@ 0x78
34184654:	f023 5343 	bic.w	r3, r3, #817889280	@ 0x30c00000
34184658:	f423 137c 	bic.w	r3, r3, #4128768	@ 0x3f0000
3418465c:	3901      	subs	r1, #1
3418465e:	433b      	orrs	r3, r7
34184660:	ea43 4301 	orr.w	r3, r3, r1, lsl #16
34184664:	f8c2 30fc 	str.w	r3, [r2, #252]	@ 0xfc
34184668:	f44f 4380 	mov.w	r3, #16384	@ 0x4000
3418466c:	f7ff ba02 	b.w	34183a74 <HAL_RCCEx_PeriphCLKConfig+0x4c8>
34184670:	4b3e      	ldr	r3, [pc, #248]	@ (3418476c <HAL_RCCEx_PeriphCLKConfig+0x11c0>)
34184672:	4298      	cmp	r0, r3
34184674:	bf02      	ittt	eq
34184676:	2240      	moveq	r2, #64	@ 0x40
34184678:	4b31      	ldreq	r3, [pc, #196]	@ (34184740 <HAL_RCCEx_PeriphCLKConfig+0x1194>)
3418467a:	f8c3 2a48 	streq.w	r2, [r3, #2632]	@ 0xa48
3418467e:	f7ff b9fb 	b.w	34183a78 <HAL_RCCEx_PeriphCLKConfig+0x4cc>
34184682:	4b3b      	ldr	r3, [pc, #236]	@ (34184770 <HAL_RCCEx_PeriphCLKConfig+0x11c4>)
34184684:	4298      	cmp	r0, r3
34184686:	d112      	bne.n	341846ae <HAL_RCCEx_PeriphCLKConfig+0x1102>
34184688:	4a2d      	ldr	r2, [pc, #180]	@ (34184740 <HAL_RCCEx_PeriphCLKConfig+0x1194>)
3418468a:	6fe1      	ldr	r1, [r4, #124]	@ 0x7c
3418468c:	f8d2 30fc 	ldr.w	r3, [r2, #252]	@ 0xfc
34184690:	6fa7      	ldr	r7, [r4, #120]	@ 0x78
34184692:	f023 5343 	bic.w	r3, r3, #817889280	@ 0x30c00000
34184696:	f423 137c 	bic.w	r3, r3, #4128768	@ 0x3f0000
3418469a:	3901      	subs	r1, #1
3418469c:	433b      	orrs	r3, r7
3418469e:	ea43 4301 	orr.w	r3, r3, r1, lsl #16
341846a2:	f8c2 30fc 	str.w	r3, [r2, #252]	@ 0xfc
341846a6:	f44f 4380 	mov.w	r3, #16384	@ 0x4000
341846aa:	f7ff ba00 	b.w	34183aae <HAL_RCCEx_PeriphCLKConfig+0x502>
341846ae:	4b31      	ldr	r3, [pc, #196]	@ (34184774 <HAL_RCCEx_PeriphCLKConfig+0x11c8>)
341846b0:	4298      	cmp	r0, r3
341846b2:	bf02      	ittt	eq
341846b4:	2240      	moveq	r2, #64	@ 0x40
341846b6:	4b22      	ldreq	r3, [pc, #136]	@ (34184740 <HAL_RCCEx_PeriphCLKConfig+0x1194>)
341846b8:	f8c3 2a48 	streq.w	r2, [r3, #2632]	@ 0xa48
341846bc:	f7ff b9f9 	b.w	34183ab2 <HAL_RCCEx_PeriphCLKConfig+0x506>
341846c0:	4b2d      	ldr	r3, [pc, #180]	@ (34184778 <HAL_RCCEx_PeriphCLKConfig+0x11cc>)
341846c2:	4298      	cmp	r0, r3
341846c4:	d112      	bne.n	341846ec <HAL_RCCEx_PeriphCLKConfig+0x1140>
341846c6:	4a1e      	ldr	r2, [pc, #120]	@ (34184740 <HAL_RCCEx_PeriphCLKConfig+0x1194>)
341846c8:	6fe1      	ldr	r1, [r4, #124]	@ 0x7c
341846ca:	f8d2 30fc 	ldr.w	r3, [r2, #252]	@ 0xfc
341846ce:	6fa7      	ldr	r7, [r4, #120]	@ 0x78
341846d0:	f023 5343 	bic.w	r3, r3, #817889280	@ 0x30c00000
341846d4:	f423 137c 	bic.w	r3, r3, #4128768	@ 0x3f0000
341846d8:	3901      	subs	r1, #1
341846da:	433b      	orrs	r3, r7
341846dc:	ea43 4301 	orr.w	r3, r3, r1, lsl #16
341846e0:	f8c2 30fc 	str.w	r3, [r2, #252]	@ 0xfc
341846e4:	f44f 4380 	mov.w	r3, #16384	@ 0x4000
341846e8:	f7ff b9fe 	b.w	34183ae8 <HAL_RCCEx_PeriphCLKConfig+0x53c>
341846ec:	4b23      	ldr	r3, [pc, #140]	@ (3418477c <HAL_RCCEx_PeriphCLKConfig+0x11d0>)
341846ee:	4298      	cmp	r0, r3
341846f0:	bf02      	ittt	eq
341846f2:	2240      	moveq	r2, #64	@ 0x40
341846f4:	4b12      	ldreq	r3, [pc, #72]	@ (34184740 <HAL_RCCEx_PeriphCLKConfig+0x1194>)
341846f6:	f8c3 2a48 	streq.w	r2, [r3, #2632]	@ 0xa48
341846fa:	f7ff b9f7 	b.w	34183aec <HAL_RCCEx_PeriphCLKConfig+0x540>
341846fe:	4b20      	ldr	r3, [pc, #128]	@ (34184780 <HAL_RCCEx_PeriphCLKConfig+0x11d4>)
34184700:	4298      	cmp	r0, r3
34184702:	d112      	bne.n	3418472a <HAL_RCCEx_PeriphCLKConfig+0x117e>
34184704:	4a0e      	ldr	r2, [pc, #56]	@ (34184740 <HAL_RCCEx_PeriphCLKConfig+0x1194>)
34184706:	6fe1      	ldr	r1, [r4, #124]	@ 0x7c
34184708:	f8d2 30fc 	ldr.w	r3, [r2, #252]	@ 0xfc
3418470c:	6fa7      	ldr	r7, [r4, #120]	@ 0x78
3418470e:	f023 5343 	bic.w	r3, r3, #817889280	@ 0x30c00000
34184712:	f423 137c 	bic.w	r3, r3, #4128768	@ 0x3f0000
34184716:	3901      	subs	r1, #1
34184718:	433b      	orrs	r3, r7
3418471a:	ea43 4301 	orr.w	r3, r3, r1, lsl #16
3418471e:	f8c2 30fc 	str.w	r3, [r2, #252]	@ 0xfc
34184722:	f44f 4380 	mov.w	r3, #16384	@ 0x4000
34184726:	f7ff b9fc 	b.w	34183b22 <HAL_RCCEx_PeriphCLKConfig+0x576>
3418472a:	4b16      	ldr	r3, [pc, #88]	@ (34184784 <HAL_RCCEx_PeriphCLKConfig+0x11d8>)
3418472c:	4298      	cmp	r0, r3
3418472e:	bf02      	ittt	eq
34184730:	2240      	moveq	r2, #64	@ 0x40
34184732:	4b03      	ldreq	r3, [pc, #12]	@ (34184740 <HAL_RCCEx_PeriphCLKConfig+0x1194>)
34184734:	f8c3 2a48 	streq.w	r2, [r3, #2632]	@ 0xa48
34184738:	f7ff b9f5 	b.w	34183b26 <HAL_RCCEx_PeriphCLKConfig+0x57a>
3418473c:	03030014 	.word	0x03030014
34184740:	56028000 	.word	0x56028000
34184744:	03010014 	.word	0x03010014
34184748:	03030414 	.word	0x03030414
3418474c:	03010414 	.word	0x03010414
34184750:	03030814 	.word	0x03030814
34184754:	03010814 	.word	0x03010814
34184758:	0303001c 	.word	0x0303001c
3418475c:	0301001c 	.word	0x0301001c
34184760:	0303041c 	.word	0x0303041c
34184764:	0301041c 	.word	0x0301041c
34184768:	0703000c 	.word	0x0703000c
3418476c:	0701000c 	.word	0x0701000c
34184770:	0703040c 	.word	0x0703040c
34184774:	0701040c 	.word	0x0701040c
34184778:	0703080c 	.word	0x0703080c
3418477c:	0701080c 	.word	0x0701080c
34184780:	07030c0c 	.word	0x07030c0c
34184784:	07010c0c 	.word	0x07010c0c
34184788:	4bb2      	ldr	r3, [pc, #712]	@ (34184a54 <HAL_RCCEx_PeriphCLKConfig+0x14a8>)
3418478a:	4298      	cmp	r0, r3
3418478c:	d112      	bne.n	341847b4 <HAL_RCCEx_PeriphCLKConfig+0x1208>
3418478e:	4ab2      	ldr	r2, [pc, #712]	@ (34184a58 <HAL_RCCEx_PeriphCLKConfig+0x14ac>)
34184790:	6fe1      	ldr	r1, [r4, #124]	@ 0x7c
34184792:	f8d2 30fc 	ldr.w	r3, [r2, #252]	@ 0xfc
34184796:	6fa7      	ldr	r7, [r4, #120]	@ 0x78
34184798:	f023 5343 	bic.w	r3, r3, #817889280	@ 0x30c00000
3418479c:	f423 137c 	bic.w	r3, r3, #4128768	@ 0x3f0000
341847a0:	3901      	subs	r1, #1
341847a2:	433b      	orrs	r3, r7
341847a4:	ea43 4301 	orr.w	r3, r3, r1, lsl #16
341847a8:	f8c2 30fc 	str.w	r3, [r2, #252]	@ 0xfc
341847ac:	f44f 4380 	mov.w	r3, #16384	@ 0x4000
341847b0:	f7ff b9d4 	b.w	34183b5c <HAL_RCCEx_PeriphCLKConfig+0x5b0>
341847b4:	4ba9      	ldr	r3, [pc, #676]	@ (34184a5c <HAL_RCCEx_PeriphCLKConfig+0x14b0>)
341847b6:	4298      	cmp	r0, r3
341847b8:	bf02      	ittt	eq
341847ba:	2240      	moveq	r2, #64	@ 0x40
341847bc:	4ba6      	ldreq	r3, [pc, #664]	@ (34184a58 <HAL_RCCEx_PeriphCLKConfig+0x14ac>)
341847be:	f8c3 2a48 	streq.w	r2, [r3, #2632]	@ 0xa48
341847c2:	f7ff b9cd 	b.w	34183b60 <HAL_RCCEx_PeriphCLKConfig+0x5b4>
341847c6:	4ba6      	ldr	r3, [pc, #664]	@ (34184a60 <HAL_RCCEx_PeriphCLKConfig+0x14b4>)
341847c8:	4298      	cmp	r0, r3
341847ca:	d112      	bne.n	341847f2 <HAL_RCCEx_PeriphCLKConfig+0x1246>
341847cc:	4aa2      	ldr	r2, [pc, #648]	@ (34184a58 <HAL_RCCEx_PeriphCLKConfig+0x14ac>)
341847ce:	6fe1      	ldr	r1, [r4, #124]	@ 0x7c
341847d0:	f8d2 30fc 	ldr.w	r3, [r2, #252]	@ 0xfc
341847d4:	6fa7      	ldr	r7, [r4, #120]	@ 0x78
341847d6:	f023 5343 	bic.w	r3, r3, #817889280	@ 0x30c00000
341847da:	f423 137c 	bic.w	r3, r3, #4128768	@ 0x3f0000
341847de:	3901      	subs	r1, #1
341847e0:	433b      	orrs	r3, r7
341847e2:	ea43 4301 	orr.w	r3, r3, r1, lsl #16
341847e6:	f8c2 30fc 	str.w	r3, [r2, #252]	@ 0xfc
341847ea:	f44f 4380 	mov.w	r3, #16384	@ 0x4000
341847ee:	f7ff b9d2 	b.w	34183b96 <HAL_RCCEx_PeriphCLKConfig+0x5ea>
341847f2:	4b9c      	ldr	r3, [pc, #624]	@ (34184a64 <HAL_RCCEx_PeriphCLKConfig+0x14b8>)
341847f4:	4298      	cmp	r0, r3
341847f6:	bf02      	ittt	eq
341847f8:	2240      	moveq	r2, #64	@ 0x40
341847fa:	4b97      	ldreq	r3, [pc, #604]	@ (34184a58 <HAL_RCCEx_PeriphCLKConfig+0x14ac>)
341847fc:	f8c3 2a48 	streq.w	r2, [r3, #2632]	@ 0xa48
34184800:	f7ff b9cb 	b.w	34183b9a <HAL_RCCEx_PeriphCLKConfig+0x5ee>
34184804:	4b98      	ldr	r3, [pc, #608]	@ (34184a68 <HAL_RCCEx_PeriphCLKConfig+0x14bc>)
34184806:	4298      	cmp	r0, r3
34184808:	bf02      	ittt	eq
3418480a:	2240      	moveq	r2, #64	@ 0x40
3418480c:	4b92      	ldreq	r3, [pc, #584]	@ (34184a58 <HAL_RCCEx_PeriphCLKConfig+0x14ac>)
3418480e:	f8c3 2a48 	streq.w	r2, [r3, #2632]	@ 0xa48
34184812:	f7ff b9df 	b.w	34183bd4 <HAL_RCCEx_PeriphCLKConfig+0x628>
34184816:	4b95      	ldr	r3, [pc, #596]	@ (34184a6c <HAL_RCCEx_PeriphCLKConfig+0x14c0>)
34184818:	4298      	cmp	r0, r3
3418481a:	bf02      	ittt	eq
3418481c:	2240      	moveq	r2, #64	@ 0x40
3418481e:	4b8e      	ldreq	r3, [pc, #568]	@ (34184a58 <HAL_RCCEx_PeriphCLKConfig+0x14ac>)
34184820:	f8c3 2a48 	streq.w	r2, [r3, #2632]	@ 0xa48
34184824:	f7ff b9f3 	b.w	34183c0e <HAL_RCCEx_PeriphCLKConfig+0x662>
34184828:	4b91      	ldr	r3, [pc, #580]	@ (34184a70 <HAL_RCCEx_PeriphCLKConfig+0x14c4>)
3418482a:	4298      	cmp	r0, r3
3418482c:	bf02      	ittt	eq
3418482e:	2240      	moveq	r2, #64	@ 0x40
34184830:	4b89      	ldreq	r3, [pc, #548]	@ (34184a58 <HAL_RCCEx_PeriphCLKConfig+0x14ac>)
34184832:	f8c3 2a48 	streq.w	r2, [r3, #2632]	@ 0xa48
34184836:	f7ff ba07 	b.w	34183c48 <HAL_RCCEx_PeriphCLKConfig+0x69c>
3418483a:	4b8e      	ldr	r3, [pc, #568]	@ (34184a74 <HAL_RCCEx_PeriphCLKConfig+0x14c8>)
3418483c:	4298      	cmp	r0, r3
3418483e:	bf02      	ittt	eq
34184840:	2240      	moveq	r2, #64	@ 0x40
34184842:	4b85      	ldreq	r3, [pc, #532]	@ (34184a58 <HAL_RCCEx_PeriphCLKConfig+0x14ac>)
34184844:	f8c3 2a48 	streq.w	r2, [r3, #2632]	@ 0xa48
34184848:	f7ff ba1b 	b.w	34183c82 <HAL_RCCEx_PeriphCLKConfig+0x6d6>
3418484c:	4b8a      	ldr	r3, [pc, #552]	@ (34184a78 <HAL_RCCEx_PeriphCLKConfig+0x14cc>)
3418484e:	4298      	cmp	r0, r3
34184850:	bf02      	ittt	eq
34184852:	2240      	moveq	r2, #64	@ 0x40
34184854:	4b80      	ldreq	r3, [pc, #512]	@ (34184a58 <HAL_RCCEx_PeriphCLKConfig+0x14ac>)
34184856:	f8c3 2a48 	streq.w	r2, [r3, #2632]	@ 0xa48
3418485a:	f7ff ba2f 	b.w	34183cbc <HAL_RCCEx_PeriphCLKConfig+0x710>
3418485e:	f5b1 7f40 	cmp.w	r1, #768	@ 0x300
34184862:	d111      	bne.n	34184888 <HAL_RCCEx_PeriphCLKConfig+0x12dc>
34184864:	f8d2 30f8 	ldr.w	r3, [r2, #248]	@ 0xf8
34184868:	6f60      	ldr	r0, [r4, #116]	@ 0x74
3418486a:	6f27      	ldr	r7, [r4, #112]	@ 0x70
3418486c:	f023 5343 	bic.w	r3, r3, #817889280	@ 0x30c00000
34184870:	f423 137c 	bic.w	r3, r3, #4128768	@ 0x3f0000
34184874:	3801      	subs	r0, #1
34184876:	433b      	orrs	r3, r7
34184878:	ea43 4300 	orr.w	r3, r3, r0, lsl #16
3418487c:	f8c2 30f8 	str.w	r3, [r2, #248]	@ 0xf8
34184880:	f44f 5300 	mov.w	r3, #8192	@ 0x2000
34184884:	f7ff ba35 	b.w	34183cf2 <HAL_RCCEx_PeriphCLKConfig+0x746>
34184888:	f5b1 7f80 	cmp.w	r1, #256	@ 0x100
3418488c:	bf04      	itt	eq
3418488e:	2340      	moveq	r3, #64	@ 0x40
34184890:	f8c2 3a48 	streq.w	r3, [r2, #2632]	@ 0xa48
34184894:	f7ff ba2f 	b.w	34183cf6 <HAL_RCCEx_PeriphCLKConfig+0x74a>
34184898:	f1b1 7f80 	cmp.w	r1, #16777216	@ 0x1000000
3418489c:	bf04      	itt	eq
3418489e:	2340      	moveq	r3, #64	@ 0x40
341848a0:	f8c2 3a48 	streq.w	r3, [r2, #2632]	@ 0xa48
341848a4:	f7ff ba65 	b.w	34183d72 <HAL_RCCEx_PeriphCLKConfig+0x7c6>
341848a8:	f5b1 3f40 	cmp.w	r1, #196608	@ 0x30000
341848ac:	d110      	bne.n	341848d0 <HAL_RCCEx_PeriphCLKConfig+0x1324>
341848ae:	f8d2 30e0 	ldr.w	r3, [r2, #224]	@ 0xe0
341848b2:	6c60      	ldr	r0, [r4, #68]	@ 0x44
341848b4:	6c27      	ldr	r7, [r4, #64]	@ 0x40
341848b6:	f023 5343 	bic.w	r3, r3, #817889280	@ 0x30c00000
341848ba:	f423 137c 	bic.w	r3, r3, #4128768	@ 0x3f0000
341848be:	3801      	subs	r0, #1
341848c0:	433b      	orrs	r3, r7
341848c2:	ea43 4300 	orr.w	r3, r3, r0, lsl #16
341848c6:	f8c2 30e0 	str.w	r3, [r2, #224]	@ 0xe0
341848ca:	2380      	movs	r3, #128	@ 0x80
341848cc:	f7ff ba71 	b.w	34183db2 <HAL_RCCEx_PeriphCLKConfig+0x806>
341848d0:	f5b1 3f80 	cmp.w	r1, #65536	@ 0x10000
341848d4:	bf04      	itt	eq
341848d6:	2340      	moveq	r3, #64	@ 0x40
341848d8:	f8c2 3a48 	streq.w	r3, [r2, #2632]	@ 0xa48
341848dc:	f7ff ba6b 	b.w	34183db6 <HAL_RCCEx_PeriphCLKConfig+0x80a>
341848e0:	2910      	cmp	r1, #16
341848e2:	bf04      	itt	eq
341848e4:	2340      	moveq	r3, #64	@ 0x40
341848e6:	f8c2 3a48 	streq.w	r3, [r2, #2632]	@ 0xa48
341848ea:	f7ff ba88 	b.w	34183dfe <HAL_RCCEx_PeriphCLKConfig+0x852>
341848ee:	4b63      	ldr	r3, [pc, #396]	@ (34184a7c <HAL_RCCEx_PeriphCLKConfig+0x14d0>)
341848f0:	4298      	cmp	r0, r3
341848f2:	d111      	bne.n	34184918 <HAL_RCCEx_PeriphCLKConfig+0x136c>
341848f4:	4a58      	ldr	r2, [pc, #352]	@ (34184a58 <HAL_RCCEx_PeriphCLKConfig+0x14ac>)
341848f6:	6c61      	ldr	r1, [r4, #68]	@ 0x44
341848f8:	f8d2 30e0 	ldr.w	r3, [r2, #224]	@ 0xe0
341848fc:	6c27      	ldr	r7, [r4, #64]	@ 0x40
341848fe:	f023 5343 	bic.w	r3, r3, #817889280	@ 0x30c00000
34184902:	f423 137c 	bic.w	r3, r3, #4128768	@ 0x3f0000
34184906:	3901      	subs	r1, #1
34184908:	433b      	orrs	r3, r7
3418490a:	ea43 4301 	orr.w	r3, r3, r1, lsl #16
3418490e:	f8c2 30e0 	str.w	r3, [r2, #224]	@ 0xe0
34184912:	2380      	movs	r3, #128	@ 0x80
34184914:	f7ff ba93 	b.w	34183e3e <HAL_RCCEx_PeriphCLKConfig+0x892>
34184918:	4b59      	ldr	r3, [pc, #356]	@ (34184a80 <HAL_RCCEx_PeriphCLKConfig+0x14d4>)
3418491a:	4298      	cmp	r0, r3
3418491c:	bf02      	ittt	eq
3418491e:	2240      	moveq	r2, #64	@ 0x40
34184920:	4b4d      	ldreq	r3, [pc, #308]	@ (34184a58 <HAL_RCCEx_PeriphCLKConfig+0x14ac>)
34184922:	f8c3 2a48 	streq.w	r2, [r3, #2632]	@ 0xa48
34184926:	f7ff ba8c 	b.w	34183e42 <HAL_RCCEx_PeriphCLKConfig+0x896>
3418492a:	4b56      	ldr	r3, [pc, #344]	@ (34184a84 <HAL_RCCEx_PeriphCLKConfig+0x14d8>)
3418492c:	4298      	cmp	r0, r3
3418492e:	d111      	bne.n	34184954 <HAL_RCCEx_PeriphCLKConfig+0x13a8>
34184930:	4a49      	ldr	r2, [pc, #292]	@ (34184a58 <HAL_RCCEx_PeriphCLKConfig+0x14ac>)
34184932:	6c61      	ldr	r1, [r4, #68]	@ 0x44
34184934:	f8d2 30e0 	ldr.w	r3, [r2, #224]	@ 0xe0
34184938:	6c25      	ldr	r5, [r4, #64]	@ 0x40
3418493a:	f023 5343 	bic.w	r3, r3, #817889280	@ 0x30c00000
3418493e:	f423 137c 	bic.w	r3, r3, #4128768	@ 0x3f0000
34184942:	3901      	subs	r1, #1
34184944:	432b      	orrs	r3, r5
34184946:	ea43 4301 	orr.w	r3, r3, r1, lsl #16
3418494a:	f8c2 30e0 	str.w	r3, [r2, #224]	@ 0xe0
3418494e:	2380      	movs	r3, #128	@ 0x80
34184950:	f7ff ba91 	b.w	34183e76 <HAL_RCCEx_PeriphCLKConfig+0x8ca>
34184954:	4b4c      	ldr	r3, [pc, #304]	@ (34184a88 <HAL_RCCEx_PeriphCLKConfig+0x14dc>)
34184956:	4298      	cmp	r0, r3
34184958:	bf02      	ittt	eq
3418495a:	2240      	moveq	r2, #64	@ 0x40
3418495c:	4b3e      	ldreq	r3, [pc, #248]	@ (34184a58 <HAL_RCCEx_PeriphCLKConfig+0x14ac>)
3418495e:	f8c3 2a48 	streq.w	r2, [r3, #2632]	@ 0xa48
34184962:	f7ff ba8a 	b.w	34183e7a <HAL_RCCEx_PeriphCLKConfig+0x8ce>
34184966:	2903      	cmp	r1, #3
34184968:	d110      	bne.n	3418498c <HAL_RCCEx_PeriphCLKConfig+0x13e0>
3418496a:	f8d2 30e0 	ldr.w	r3, [r2, #224]	@ 0xe0
3418496e:	6c60      	ldr	r0, [r4, #68]	@ 0x44
34184970:	6c25      	ldr	r5, [r4, #64]	@ 0x40
34184972:	f023 5343 	bic.w	r3, r3, #817889280	@ 0x30c00000
34184976:	f423 137c 	bic.w	r3, r3, #4128768	@ 0x3f0000
3418497a:	3801      	subs	r0, #1
3418497c:	432b      	orrs	r3, r5
3418497e:	ea43 4300 	orr.w	r3, r3, r0, lsl #16
34184982:	f8c2 30e0 	str.w	r3, [r2, #224]	@ 0xe0
34184986:	2380      	movs	r3, #128	@ 0x80
34184988:	f7ff ba90 	b.w	34183eac <HAL_RCCEx_PeriphCLKConfig+0x900>
3418498c:	2901      	cmp	r1, #1
3418498e:	bf04      	itt	eq
34184990:	2340      	moveq	r3, #64	@ 0x40
34184992:	f8c2 3a48 	streq.w	r3, [r2, #2632]	@ 0xa48
34184996:	f7ff ba8b 	b.w	34183eb0 <HAL_RCCEx_PeriphCLKConfig+0x904>
3418499a:	4b3c      	ldr	r3, [pc, #240]	@ (34184a8c <HAL_RCCEx_PeriphCLKConfig+0x14e0>)
3418499c:	4298      	cmp	r0, r3
3418499e:	d112      	bne.n	341849c6 <HAL_RCCEx_PeriphCLKConfig+0x141a>
341849a0:	4a2d      	ldr	r2, [pc, #180]	@ (34184a58 <HAL_RCCEx_PeriphCLKConfig+0x14ac>)
341849a2:	6ce1      	ldr	r1, [r4, #76]	@ 0x4c
341849a4:	f8d2 30e4 	ldr.w	r3, [r2, #228]	@ 0xe4
341849a8:	6ca5      	ldr	r5, [r4, #72]	@ 0x48
341849aa:	f023 5343 	bic.w	r3, r3, #817889280	@ 0x30c00000
341849ae:	f423 137c 	bic.w	r3, r3, #4128768	@ 0x3f0000
341849b2:	3901      	subs	r1, #1
341849b4:	432b      	orrs	r3, r5
341849b6:	ea43 4301 	orr.w	r3, r3, r1, lsl #16
341849ba:	f8c2 30e4 	str.w	r3, [r2, #228]	@ 0xe4
341849be:	f44f 7380 	mov.w	r3, #256	@ 0x100
341849c2:	f7ff ba95 	b.w	34183ef0 <HAL_RCCEx_PeriphCLKConfig+0x944>
341849c6:	4b32      	ldr	r3, [pc, #200]	@ (34184a90 <HAL_RCCEx_PeriphCLKConfig+0x14e4>)
341849c8:	4298      	cmp	r0, r3
341849ca:	bf02      	ittt	eq
341849cc:	2240      	moveq	r2, #64	@ 0x40
341849ce:	4b22      	ldreq	r3, [pc, #136]	@ (34184a58 <HAL_RCCEx_PeriphCLKConfig+0x14ac>)
341849d0:	f8c3 2a48 	streq.w	r2, [r3, #2632]	@ 0xa48
341849d4:	f7ff ba8e 	b.w	34183ef4 <HAL_RCCEx_PeriphCLKConfig+0x948>
341849d8:	4b2e      	ldr	r3, [pc, #184]	@ (34184a94 <HAL_RCCEx_PeriphCLKConfig+0x14e8>)
341849da:	4298      	cmp	r0, r3
341849dc:	d112      	bne.n	34184a04 <HAL_RCCEx_PeriphCLKConfig+0x1458>
341849de:	4a1e      	ldr	r2, [pc, #120]	@ (34184a58 <HAL_RCCEx_PeriphCLKConfig+0x14ac>)
341849e0:	6ce1      	ldr	r1, [r4, #76]	@ 0x4c
341849e2:	f8d2 30e4 	ldr.w	r3, [r2, #228]	@ 0xe4
341849e6:	6ca5      	ldr	r5, [r4, #72]	@ 0x48
341849e8:	f023 5343 	bic.w	r3, r3, #817889280	@ 0x30c00000
341849ec:	f423 137c 	bic.w	r3, r3, #4128768	@ 0x3f0000
341849f0:	3901      	subs	r1, #1
341849f2:	432b      	orrs	r3, r5
341849f4:	ea43 4301 	orr.w	r3, r3, r1, lsl #16
341849f8:	f8c2 30e4 	str.w	r3, [r2, #228]	@ 0xe4
341849fc:	f44f 7380 	mov.w	r3, #256	@ 0x100
34184a00:	f7ff ba92 	b.w	34183f28 <HAL_RCCEx_PeriphCLKConfig+0x97c>
34184a04:	4b24      	ldr	r3, [pc, #144]	@ (34184a98 <HAL_RCCEx_PeriphCLKConfig+0x14ec>)
34184a06:	4298      	cmp	r0, r3
34184a08:	bf02      	ittt	eq
34184a0a:	2240      	moveq	r2, #64	@ 0x40
34184a0c:	4b12      	ldreq	r3, [pc, #72]	@ (34184a58 <HAL_RCCEx_PeriphCLKConfig+0x14ac>)
34184a0e:	f8c3 2a48 	streq.w	r2, [r3, #2632]	@ 0xa48
34184a12:	f7ff ba8b 	b.w	34183f2c <HAL_RCCEx_PeriphCLKConfig+0x980>
34184a16:	4b21      	ldr	r3, [pc, #132]	@ (34184a9c <HAL_RCCEx_PeriphCLKConfig+0x14f0>)
34184a18:	4298      	cmp	r0, r3
34184a1a:	d112      	bne.n	34184a42 <HAL_RCCEx_PeriphCLKConfig+0x1496>
34184a1c:	4a0e      	ldr	r2, [pc, #56]	@ (34184a58 <HAL_RCCEx_PeriphCLKConfig+0x14ac>)
34184a1e:	6ce1      	ldr	r1, [r4, #76]	@ 0x4c
34184a20:	f8d2 30e4 	ldr.w	r3, [r2, #228]	@ 0xe4
34184a24:	6ca5      	ldr	r5, [r4, #72]	@ 0x48
34184a26:	f023 5343 	bic.w	r3, r3, #817889280	@ 0x30c00000
34184a2a:	f423 137c 	bic.w	r3, r3, #4128768	@ 0x3f0000
34184a2e:	3901      	subs	r1, #1
34184a30:	432b      	orrs	r3, r5
34184a32:	ea43 4301 	orr.w	r3, r3, r1, lsl #16
34184a36:	f8c2 30e4 	str.w	r3, [r2, #228]	@ 0xe4
34184a3a:	f44f 7380 	mov.w	r3, #256	@ 0x100
34184a3e:	f7ff ba8f 	b.w	34183f60 <HAL_RCCEx_PeriphCLKConfig+0x9b4>
34184a42:	4b17      	ldr	r3, [pc, #92]	@ (34184aa0 <HAL_RCCEx_PeriphCLKConfig+0x14f4>)
34184a44:	4298      	cmp	r0, r3
34184a46:	bf02      	ittt	eq
34184a48:	2240      	moveq	r2, #64	@ 0x40
34184a4a:	4b03      	ldreq	r3, [pc, #12]	@ (34184a58 <HAL_RCCEx_PeriphCLKConfig+0x14ac>)
34184a4c:	f8c3 2a48 	streq.w	r2, [r3, #2632]	@ 0xa48
34184a50:	f7ff ba88 	b.w	34183f64 <HAL_RCCEx_PeriphCLKConfig+0x9b8>
34184a54:	0703100c 	.word	0x0703100c
34184a58:	56028000 	.word	0x56028000
34184a5c:	0701100c 	.word	0x0701100c
34184a60:	0703140c 	.word	0x0703140c
34184a64:	0701140c 	.word	0x0701140c
34184a68:	0701082c 	.word	0x0701082c
34184a6c:	07010c2c 	.word	0x07010c2c
34184a70:	0701102c 	.word	0x0701102c
34184a74:	0701142c 	.word	0x0701142c
34184a78:	0701182c 	.word	0x0701182c
34184a7c:	07031418 	.word	0x07031418
34184a80:	07011418 	.word	0x07011418
34184a84:	07031818 	.word	0x07031818
34184a88:	07011818 	.word	0x07011818
34184a8c:	07030420 	.word	0x07030420
34184a90:	07010420 	.word	0x07010420
34184a94:	07030820 	.word	0x07030820
34184a98:	07010820 	.word	0x07010820
34184a9c:	07030c20 	.word	0x07030c20
34184aa0:	07010c20 	.word	0x07010c20
34184aa4:	4bb9      	ldr	r3, [pc, #740]	@ (34184d8c <HAL_RCCEx_PeriphCLKConfig+0x17e0>)
34184aa6:	4298      	cmp	r0, r3
34184aa8:	d112      	bne.n	34184ad0 <HAL_RCCEx_PeriphCLKConfig+0x1524>
34184aaa:	4ab9      	ldr	r2, [pc, #740]	@ (34184d90 <HAL_RCCEx_PeriphCLKConfig+0x17e4>)
34184aac:	6f61      	ldr	r1, [r4, #116]	@ 0x74
34184aae:	f8d2 30f8 	ldr.w	r3, [r2, #248]	@ 0xf8
34184ab2:	6f25      	ldr	r5, [r4, #112]	@ 0x70
34184ab4:	f023 5343 	bic.w	r3, r3, #817889280	@ 0x30c00000
34184ab8:	f423 137c 	bic.w	r3, r3, #4128768	@ 0x3f0000
34184abc:	3901      	subs	r1, #1
34184abe:	432b      	orrs	r3, r5
34184ac0:	ea43 4301 	orr.w	r3, r3, r1, lsl #16
34184ac4:	f8c2 30f8 	str.w	r3, [r2, #248]	@ 0xf8
34184ac8:	f44f 5300 	mov.w	r3, #8192	@ 0x2000
34184acc:	f7ff ba65 	b.w	34183f9a <HAL_RCCEx_PeriphCLKConfig+0x9ee>
34184ad0:	4bb0      	ldr	r3, [pc, #704]	@ (34184d94 <HAL_RCCEx_PeriphCLKConfig+0x17e8>)
34184ad2:	4298      	cmp	r0, r3
34184ad4:	bf02      	ittt	eq
34184ad6:	2240      	moveq	r2, #64	@ 0x40
34184ad8:	4bad      	ldreq	r3, [pc, #692]	@ (34184d90 <HAL_RCCEx_PeriphCLKConfig+0x17e4>)
34184ada:	f8c3 2a48 	streq.w	r2, [r3, #2632]	@ 0xa48
34184ade:	f7ff ba5e 	b.w	34183f9e <HAL_RCCEx_PeriphCLKConfig+0x9f2>
34184ae2:	4bad      	ldr	r3, [pc, #692]	@ (34184d98 <HAL_RCCEx_PeriphCLKConfig+0x17ec>)
34184ae4:	4298      	cmp	r0, r3
34184ae6:	d112      	bne.n	34184b0e <HAL_RCCEx_PeriphCLKConfig+0x1562>
34184ae8:	4aa9      	ldr	r2, [pc, #676]	@ (34184d90 <HAL_RCCEx_PeriphCLKConfig+0x17e4>)
34184aea:	6f61      	ldr	r1, [r4, #116]	@ 0x74
34184aec:	f8d2 30f8 	ldr.w	r3, [r2, #248]	@ 0xf8
34184af0:	6f25      	ldr	r5, [r4, #112]	@ 0x70
34184af2:	f023 5343 	bic.w	r3, r3, #817889280	@ 0x30c00000
34184af6:	f423 137c 	bic.w	r3, r3, #4128768	@ 0x3f0000
34184afa:	3901      	subs	r1, #1
34184afc:	432b      	orrs	r3, r5
34184afe:	ea43 4301 	orr.w	r3, r3, r1, lsl #16
34184b02:	f8c2 30f8 	str.w	r3, [r2, #248]	@ 0xf8
34184b06:	f44f 5300 	mov.w	r3, #8192	@ 0x2000
34184b0a:	f7ff ba63 	b.w	34183fd4 <HAL_RCCEx_PeriphCLKConfig+0xa28>
34184b0e:	4ba3      	ldr	r3, [pc, #652]	@ (34184d9c <HAL_RCCEx_PeriphCLKConfig+0x17f0>)
34184b10:	4298      	cmp	r0, r3
34184b12:	bf02      	ittt	eq
34184b14:	2240      	moveq	r2, #64	@ 0x40
34184b16:	4b9e      	ldreq	r3, [pc, #632]	@ (34184d90 <HAL_RCCEx_PeriphCLKConfig+0x17e4>)
34184b18:	f8c3 2a48 	streq.w	r2, [r3, #2632]	@ 0xa48
34184b1c:	f7ff ba5c 	b.w	34183fd8 <HAL_RCCEx_PeriphCLKConfig+0xa2c>
34184b20:	4b9f      	ldr	r3, [pc, #636]	@ (34184da0 <HAL_RCCEx_PeriphCLKConfig+0x17f4>)
34184b22:	4298      	cmp	r0, r3
34184b24:	d112      	bne.n	34184b4c <HAL_RCCEx_PeriphCLKConfig+0x15a0>
34184b26:	4a9a      	ldr	r2, [pc, #616]	@ (34184d90 <HAL_RCCEx_PeriphCLKConfig+0x17e4>)
34184b28:	6ce1      	ldr	r1, [r4, #76]	@ 0x4c
34184b2a:	f8d2 30e4 	ldr.w	r3, [r2, #228]	@ 0xe4
34184b2e:	6ca5      	ldr	r5, [r4, #72]	@ 0x48
34184b30:	f023 5343 	bic.w	r3, r3, #817889280	@ 0x30c00000
34184b34:	f423 137c 	bic.w	r3, r3, #4128768	@ 0x3f0000
34184b38:	3901      	subs	r1, #1
34184b3a:	432b      	orrs	r3, r5
34184b3c:	ea43 4301 	orr.w	r3, r3, r1, lsl #16
34184b40:	f8c2 30e4 	str.w	r3, [r2, #228]	@ 0xe4
34184b44:	f44f 7380 	mov.w	r3, #256	@ 0x100
34184b48:	f7ff ba60 	b.w	3418400c <HAL_RCCEx_PeriphCLKConfig+0xa60>
34184b4c:	4b95      	ldr	r3, [pc, #596]	@ (34184da4 <HAL_RCCEx_PeriphCLKConfig+0x17f8>)
34184b4e:	4298      	cmp	r0, r3
34184b50:	bf02      	ittt	eq
34184b52:	2240      	moveq	r2, #64	@ 0x40
34184b54:	4b8e      	ldreq	r3, [pc, #568]	@ (34184d90 <HAL_RCCEx_PeriphCLKConfig+0x17e4>)
34184b56:	f8c3 2a48 	streq.w	r2, [r3, #2632]	@ 0xa48
34184b5a:	f7ff ba59 	b.w	34184010 <HAL_RCCEx_PeriphCLKConfig+0xa64>
34184b5e:	4b92      	ldr	r3, [pc, #584]	@ (34184da8 <HAL_RCCEx_PeriphCLKConfig+0x17fc>)
34184b60:	4298      	cmp	r0, r3
34184b62:	d112      	bne.n	34184b8a <HAL_RCCEx_PeriphCLKConfig+0x15de>
34184b64:	4a8a      	ldr	r2, [pc, #552]	@ (34184d90 <HAL_RCCEx_PeriphCLKConfig+0x17e4>)
34184b66:	6f61      	ldr	r1, [r4, #116]	@ 0x74
34184b68:	f8d2 30f8 	ldr.w	r3, [r2, #248]	@ 0xf8
34184b6c:	6f25      	ldr	r5, [r4, #112]	@ 0x70
34184b6e:	f023 5343 	bic.w	r3, r3, #817889280	@ 0x30c00000
34184b72:	f423 137c 	bic.w	r3, r3, #4128768	@ 0x3f0000
34184b76:	3901      	subs	r1, #1
34184b78:	432b      	orrs	r3, r5
34184b7a:	ea43 4301 	orr.w	r3, r3, r1, lsl #16
34184b7e:	f8c2 30f8 	str.w	r3, [r2, #248]	@ 0xf8
34184b82:	f44f 5300 	mov.w	r3, #8192	@ 0x2000
34184b86:	f7ff ba5e 	b.w	34184046 <HAL_RCCEx_PeriphCLKConfig+0xa9a>
34184b8a:	4b88      	ldr	r3, [pc, #544]	@ (34184dac <HAL_RCCEx_PeriphCLKConfig+0x1800>)
34184b8c:	4298      	cmp	r0, r3
34184b8e:	bf02      	ittt	eq
34184b90:	2240      	moveq	r2, #64	@ 0x40
34184b92:	4b7f      	ldreq	r3, [pc, #508]	@ (34184d90 <HAL_RCCEx_PeriphCLKConfig+0x17e4>)
34184b94:	f8c3 2a48 	streq.w	r2, [r3, #2632]	@ 0xa48
34184b98:	f7ff ba57 	b.w	3418404a <HAL_RCCEx_PeriphCLKConfig+0xa9e>
34184b9c:	4b84      	ldr	r3, [pc, #528]	@ (34184db0 <HAL_RCCEx_PeriphCLKConfig+0x1804>)
34184b9e:	4298      	cmp	r0, r3
34184ba0:	d112      	bne.n	34184bc8 <HAL_RCCEx_PeriphCLKConfig+0x161c>
34184ba2:	4a7b      	ldr	r2, [pc, #492]	@ (34184d90 <HAL_RCCEx_PeriphCLKConfig+0x17e4>)
34184ba4:	6f61      	ldr	r1, [r4, #116]	@ 0x74
34184ba6:	f8d2 30f8 	ldr.w	r3, [r2, #248]	@ 0xf8
34184baa:	6f25      	ldr	r5, [r4, #112]	@ 0x70
34184bac:	f023 5343 	bic.w	r3, r3, #817889280	@ 0x30c00000
34184bb0:	f423 137c 	bic.w	r3, r3, #4128768	@ 0x3f0000
34184bb4:	3901      	subs	r1, #1
34184bb6:	432b      	orrs	r3, r5
34184bb8:	ea43 4301 	orr.w	r3, r3, r1, lsl #16
34184bbc:	f8c2 30f8 	str.w	r3, [r2, #248]	@ 0xf8
34184bc0:	f44f 5300 	mov.w	r3, #8192	@ 0x2000
34184bc4:	f7ff ba73 	b.w	341840ae <HAL_RCCEx_PeriphCLKConfig+0xb02>
34184bc8:	4b7a      	ldr	r3, [pc, #488]	@ (34184db4 <HAL_RCCEx_PeriphCLKConfig+0x1808>)
34184bca:	4298      	cmp	r0, r3
34184bcc:	bf02      	ittt	eq
34184bce:	2240      	moveq	r2, #64	@ 0x40
34184bd0:	4b6f      	ldreq	r3, [pc, #444]	@ (34184d90 <HAL_RCCEx_PeriphCLKConfig+0x17e4>)
34184bd2:	f8c3 2a48 	streq.w	r2, [r3, #2632]	@ 0xa48
34184bd6:	f7ff ba6c 	b.w	341840b2 <HAL_RCCEx_PeriphCLKConfig+0xb06>
34184bda:	4b77      	ldr	r3, [pc, #476]	@ (34184db8 <HAL_RCCEx_PeriphCLKConfig+0x180c>)
34184bdc:	4298      	cmp	r0, r3
34184bde:	d112      	bne.n	34184c06 <HAL_RCCEx_PeriphCLKConfig+0x165a>
34184be0:	4a6b      	ldr	r2, [pc, #428]	@ (34184d90 <HAL_RCCEx_PeriphCLKConfig+0x17e4>)
34184be2:	6f61      	ldr	r1, [r4, #116]	@ 0x74
34184be4:	f8d2 30f8 	ldr.w	r3, [r2, #248]	@ 0xf8
34184be8:	6f25      	ldr	r5, [r4, #112]	@ 0x70
34184bea:	f023 5343 	bic.w	r3, r3, #817889280	@ 0x30c00000
34184bee:	f423 137c 	bic.w	r3, r3, #4128768	@ 0x3f0000
34184bf2:	3901      	subs	r1, #1
34184bf4:	432b      	orrs	r3, r5
34184bf6:	ea43 4301 	orr.w	r3, r3, r1, lsl #16
34184bfa:	f8c2 30f8 	str.w	r3, [r2, #248]	@ 0xf8
34184bfe:	f44f 5300 	mov.w	r3, #8192	@ 0x2000
34184c02:	f7ff ba71 	b.w	341840e8 <HAL_RCCEx_PeriphCLKConfig+0xb3c>
34184c06:	4b6d      	ldr	r3, [pc, #436]	@ (34184dbc <HAL_RCCEx_PeriphCLKConfig+0x1810>)
34184c08:	4298      	cmp	r0, r3
34184c0a:	bf02      	ittt	eq
34184c0c:	2240      	moveq	r2, #64	@ 0x40
34184c0e:	4b60      	ldreq	r3, [pc, #384]	@ (34184d90 <HAL_RCCEx_PeriphCLKConfig+0x17e4>)
34184c10:	f8c3 2a48 	streq.w	r2, [r3, #2632]	@ 0xa48
34184c14:	f7ff ba6a 	b.w	341840ec <HAL_RCCEx_PeriphCLKConfig+0xb40>
34184c18:	4b69      	ldr	r3, [pc, #420]	@ (34184dc0 <HAL_RCCEx_PeriphCLKConfig+0x1814>)
34184c1a:	4298      	cmp	r0, r3
34184c1c:	d112      	bne.n	34184c44 <HAL_RCCEx_PeriphCLKConfig+0x1698>
34184c1e:	4a5c      	ldr	r2, [pc, #368]	@ (34184d90 <HAL_RCCEx_PeriphCLKConfig+0x17e4>)
34184c20:	6f61      	ldr	r1, [r4, #116]	@ 0x74
34184c22:	f8d2 30f8 	ldr.w	r3, [r2, #248]	@ 0xf8
34184c26:	6f25      	ldr	r5, [r4, #112]	@ 0x70
34184c28:	f023 5343 	bic.w	r3, r3, #817889280	@ 0x30c00000
34184c2c:	f423 137c 	bic.w	r3, r3, #4128768	@ 0x3f0000
34184c30:	3901      	subs	r1, #1
34184c32:	432b      	orrs	r3, r5
34184c34:	ea43 4301 	orr.w	r3, r3, r1, lsl #16
34184c38:	f8c2 30f8 	str.w	r3, [r2, #248]	@ 0xf8
34184c3c:	f44f 5300 	mov.w	r3, #8192	@ 0x2000
34184c40:	f7ff ba6f 	b.w	34184122 <HAL_RCCEx_PeriphCLKConfig+0xb76>
34184c44:	4b5f      	ldr	r3, [pc, #380]	@ (34184dc4 <HAL_RCCEx_PeriphCLKConfig+0x1818>)
34184c46:	4298      	cmp	r0, r3
34184c48:	bf02      	ittt	eq
34184c4a:	2240      	moveq	r2, #64	@ 0x40
34184c4c:	4b50      	ldreq	r3, [pc, #320]	@ (34184d90 <HAL_RCCEx_PeriphCLKConfig+0x17e4>)
34184c4e:	f8c3 2a48 	streq.w	r2, [r3, #2632]	@ 0xa48
34184c52:	f7ff ba68 	b.w	34184126 <HAL_RCCEx_PeriphCLKConfig+0xb7a>
34184c56:	4b5c      	ldr	r3, [pc, #368]	@ (34184dc8 <HAL_RCCEx_PeriphCLKConfig+0x181c>)
34184c58:	4298      	cmp	r0, r3
34184c5a:	d112      	bne.n	34184c82 <HAL_RCCEx_PeriphCLKConfig+0x16d6>
34184c5c:	4a4c      	ldr	r2, [pc, #304]	@ (34184d90 <HAL_RCCEx_PeriphCLKConfig+0x17e4>)
34184c5e:	6f61      	ldr	r1, [r4, #116]	@ 0x74
34184c60:	f8d2 30f8 	ldr.w	r3, [r2, #248]	@ 0xf8
34184c64:	6f25      	ldr	r5, [r4, #112]	@ 0x70
34184c66:	f023 5343 	bic.w	r3, r3, #817889280	@ 0x30c00000
34184c6a:	f423 137c 	bic.w	r3, r3, #4128768	@ 0x3f0000
34184c6e:	3901      	subs	r1, #1
34184c70:	432b      	orrs	r3, r5
34184c72:	ea43 4301 	orr.w	r3, r3, r1, lsl #16
34184c76:	f8c2 30f8 	str.w	r3, [r2, #248]	@ 0xf8
34184c7a:	f44f 5300 	mov.w	r3, #8192	@ 0x2000
34184c7e:	f7ff ba6d 	b.w	3418415c <HAL_RCCEx_PeriphCLKConfig+0xbb0>
34184c82:	4b52      	ldr	r3, [pc, #328]	@ (34184dcc <HAL_RCCEx_PeriphCLKConfig+0x1820>)
34184c84:	4298      	cmp	r0, r3
34184c86:	bf02      	ittt	eq
34184c88:	2240      	moveq	r2, #64	@ 0x40
34184c8a:	4b41      	ldreq	r3, [pc, #260]	@ (34184d90 <HAL_RCCEx_PeriphCLKConfig+0x17e4>)
34184c8c:	f8c3 2a48 	streq.w	r2, [r3, #2632]	@ 0xa48
34184c90:	f7ff ba66 	b.w	34184160 <HAL_RCCEx_PeriphCLKConfig+0xbb4>
34184c94:	4b4e      	ldr	r3, [pc, #312]	@ (34184dd0 <HAL_RCCEx_PeriphCLKConfig+0x1824>)
34184c96:	4298      	cmp	r0, r3
34184c98:	d112      	bne.n	34184cc0 <HAL_RCCEx_PeriphCLKConfig+0x1714>
34184c9a:	4a3d      	ldr	r2, [pc, #244]	@ (34184d90 <HAL_RCCEx_PeriphCLKConfig+0x17e4>)
34184c9c:	6f61      	ldr	r1, [r4, #116]	@ 0x74
34184c9e:	f8d2 30f8 	ldr.w	r3, [r2, #248]	@ 0xf8
34184ca2:	6f25      	ldr	r5, [r4, #112]	@ 0x70
34184ca4:	f023 5343 	bic.w	r3, r3, #817889280	@ 0x30c00000
34184ca8:	f423 137c 	bic.w	r3, r3, #4128768	@ 0x3f0000
34184cac:	3901      	subs	r1, #1
34184cae:	432b      	orrs	r3, r5
34184cb0:	ea43 4301 	orr.w	r3, r3, r1, lsl #16
34184cb4:	f8c2 30f8 	str.w	r3, [r2, #248]	@ 0xf8
34184cb8:	f44f 5300 	mov.w	r3, #8192	@ 0x2000
34184cbc:	f7ff ba6b 	b.w	34184196 <HAL_RCCEx_PeriphCLKConfig+0xbea>
34184cc0:	4b44      	ldr	r3, [pc, #272]	@ (34184dd4 <HAL_RCCEx_PeriphCLKConfig+0x1828>)
34184cc2:	4298      	cmp	r0, r3
34184cc4:	bf02      	ittt	eq
34184cc6:	2240      	moveq	r2, #64	@ 0x40
34184cc8:	4b31      	ldreq	r3, [pc, #196]	@ (34184d90 <HAL_RCCEx_PeriphCLKConfig+0x17e4>)
34184cca:	f8c3 2a48 	streq.w	r2, [r3, #2632]	@ 0xa48
34184cce:	f7ff ba64 	b.w	3418419a <HAL_RCCEx_PeriphCLKConfig+0xbee>
34184cd2:	4b41      	ldr	r3, [pc, #260]	@ (34184dd8 <HAL_RCCEx_PeriphCLKConfig+0x182c>)
34184cd4:	4298      	cmp	r0, r3
34184cd6:	d112      	bne.n	34184cfe <HAL_RCCEx_PeriphCLKConfig+0x1752>
34184cd8:	4a2d      	ldr	r2, [pc, #180]	@ (34184d90 <HAL_RCCEx_PeriphCLKConfig+0x17e4>)
34184cda:	6f61      	ldr	r1, [r4, #116]	@ 0x74
34184cdc:	f8d2 30f8 	ldr.w	r3, [r2, #248]	@ 0xf8
34184ce0:	6f25      	ldr	r5, [r4, #112]	@ 0x70
34184ce2:	f023 5343 	bic.w	r3, r3, #817889280	@ 0x30c00000
34184ce6:	f423 137c 	bic.w	r3, r3, #4128768	@ 0x3f0000
34184cea:	3901      	subs	r1, #1
34184cec:	432b      	orrs	r3, r5
34184cee:	ea43 4301 	orr.w	r3, r3, r1, lsl #16
34184cf2:	f8c2 30f8 	str.w	r3, [r2, #248]	@ 0xf8
34184cf6:	f44f 5300 	mov.w	r3, #8192	@ 0x2000
34184cfa:	f7ff ba69 	b.w	341841d0 <HAL_RCCEx_PeriphCLKConfig+0xc24>
34184cfe:	4b37      	ldr	r3, [pc, #220]	@ (34184ddc <HAL_RCCEx_PeriphCLKConfig+0x1830>)
34184d00:	4298      	cmp	r0, r3
34184d02:	bf02      	ittt	eq
34184d04:	2240      	moveq	r2, #64	@ 0x40
34184d06:	4b22      	ldreq	r3, [pc, #136]	@ (34184d90 <HAL_RCCEx_PeriphCLKConfig+0x17e4>)
34184d08:	f8c3 2a48 	streq.w	r2, [r3, #2632]	@ 0xa48
34184d0c:	f7ff ba62 	b.w	341841d4 <HAL_RCCEx_PeriphCLKConfig+0xc28>
34184d10:	4b33      	ldr	r3, [pc, #204]	@ (34184de0 <HAL_RCCEx_PeriphCLKConfig+0x1834>)
34184d12:	4298      	cmp	r0, r3
34184d14:	d112      	bne.n	34184d3c <HAL_RCCEx_PeriphCLKConfig+0x1790>
34184d16:	4a1e      	ldr	r2, [pc, #120]	@ (34184d90 <HAL_RCCEx_PeriphCLKConfig+0x17e4>)
34184d18:	6f61      	ldr	r1, [r4, #116]	@ 0x74
34184d1a:	f8d2 30f8 	ldr.w	r3, [r2, #248]	@ 0xf8
34184d1e:	6f25      	ldr	r5, [r4, #112]	@ 0x70
34184d20:	f023 5343 	bic.w	r3, r3, #817889280	@ 0x30c00000
34184d24:	f423 137c 	bic.w	r3, r3, #4128768	@ 0x3f0000
34184d28:	3901      	subs	r1, #1
34184d2a:	432b      	orrs	r3, r5
34184d2c:	ea43 4301 	orr.w	r3, r3, r1, lsl #16
34184d30:	f8c2 30f8 	str.w	r3, [r2, #248]	@ 0xf8
34184d34:	f44f 5300 	mov.w	r3, #8192	@ 0x2000
34184d38:	f7ff ba67 	b.w	3418420a <HAL_RCCEx_PeriphCLKConfig+0xc5e>
34184d3c:	4b29      	ldr	r3, [pc, #164]	@ (34184de4 <HAL_RCCEx_PeriphCLKConfig+0x1838>)
34184d3e:	4298      	cmp	r0, r3
34184d40:	bf02      	ittt	eq
34184d42:	2240      	moveq	r2, #64	@ 0x40
34184d44:	4b12      	ldreq	r3, [pc, #72]	@ (34184d90 <HAL_RCCEx_PeriphCLKConfig+0x17e4>)
34184d46:	f8c3 2a48 	streq.w	r2, [r3, #2632]	@ 0xa48
34184d4a:	f7ff ba60 	b.w	3418420e <HAL_RCCEx_PeriphCLKConfig+0xc62>
34184d4e:	4b26      	ldr	r3, [pc, #152]	@ (34184de8 <HAL_RCCEx_PeriphCLKConfig+0x183c>)
34184d50:	4298      	cmp	r0, r3
34184d52:	d112      	bne.n	34184d7a <HAL_RCCEx_PeriphCLKConfig+0x17ce>
34184d54:	4a0e      	ldr	r2, [pc, #56]	@ (34184d90 <HAL_RCCEx_PeriphCLKConfig+0x17e4>)
34184d56:	6f61      	ldr	r1, [r4, #116]	@ 0x74
34184d58:	f8d2 30f8 	ldr.w	r3, [r2, #248]	@ 0xf8
34184d5c:	6f25      	ldr	r5, [r4, #112]	@ 0x70
34184d5e:	f023 5343 	bic.w	r3, r3, #817889280	@ 0x30c00000
34184d62:	f423 137c 	bic.w	r3, r3, #4128768	@ 0x3f0000
34184d66:	3901      	subs	r1, #1
34184d68:	432b      	orrs	r3, r5
34184d6a:	ea43 4301 	orr.w	r3, r3, r1, lsl #16
34184d6e:	f8c2 30f8 	str.w	r3, [r2, #248]	@ 0xf8
34184d72:	f44f 5300 	mov.w	r3, #8192	@ 0x2000
34184d76:	f7ff ba65 	b.w	34184244 <HAL_RCCEx_PeriphCLKConfig+0xc98>
34184d7a:	4b1c      	ldr	r3, [pc, #112]	@ (34184dec <HAL_RCCEx_PeriphCLKConfig+0x1840>)
34184d7c:	4298      	cmp	r0, r3
34184d7e:	bf02      	ittt	eq
34184d80:	2240      	moveq	r2, #64	@ 0x40
34184d82:	4b03      	ldreq	r3, [pc, #12]	@ (34184d90 <HAL_RCCEx_PeriphCLKConfig+0x17e4>)
34184d84:	f8c3 2a48 	streq.w	r2, [r3, #2632]	@ 0xa48
34184d88:	f7ff ba5e 	b.w	34184248 <HAL_RCCEx_PeriphCLKConfig+0xc9c>
34184d8c:	07031020 	.word	0x07031020
34184d90:	56028000 	.word	0x56028000
34184d94:	07011020 	.word	0x07011020
34184d98:	07031420 	.word	0x07031420
34184d9c:	07011420 	.word	0x07011420
34184da0:	07031820 	.word	0x07031820
34184da4:	07011820 	.word	0x07011820
34184da8:	07030030 	.word	0x07030030
34184dac:	07010030 	.word	0x07010030
34184db0:	07030430 	.word	0x07030430
34184db4:	07010430 	.word	0x07010430
34184db8:	07030830 	.word	0x07030830
34184dbc:	07010830 	.word	0x07010830
34184dc0:	07030c30 	.word	0x07030c30
34184dc4:	07010c30 	.word	0x07010c30
34184dc8:	07031030 	.word	0x07031030
34184dcc:	07011030 	.word	0x07011030
34184dd0:	07031430 	.word	0x07031430
34184dd4:	07011430 	.word	0x07011430
34184dd8:	07031830 	.word	0x07031830
34184ddc:	07011830 	.word	0x07011830
34184de0:	07031c30 	.word	0x07031c30
34184de4:	07011c30 	.word	0x07011c30
34184de8:	07030034 	.word	0x07030034
34184dec:	07010034 	.word	0x07010034
34184df0:	4b20      	ldr	r3, [pc, #128]	@ (34184e74 <HAL_RCCEx_PeriphCLKConfig+0x18c8>)
34184df2:	4298      	cmp	r0, r3
34184df4:	d112      	bne.n	34184e1c <HAL_RCCEx_PeriphCLKConfig+0x1870>
34184df6:	4a20      	ldr	r2, [pc, #128]	@ (34184e78 <HAL_RCCEx_PeriphCLKConfig+0x18cc>)
34184df8:	6f61      	ldr	r1, [r4, #116]	@ 0x74
34184dfa:	f8d2 30f8 	ldr.w	r3, [r2, #248]	@ 0xf8
34184dfe:	6f25      	ldr	r5, [r4, #112]	@ 0x70
34184e00:	f023 5343 	bic.w	r3, r3, #817889280	@ 0x30c00000
34184e04:	f423 137c 	bic.w	r3, r3, #4128768	@ 0x3f0000
34184e08:	3901      	subs	r1, #1
34184e0a:	432b      	orrs	r3, r5
34184e0c:	ea43 4301 	orr.w	r3, r3, r1, lsl #16
34184e10:	f8c2 30f8 	str.w	r3, [r2, #248]	@ 0xf8
34184e14:	f44f 5300 	mov.w	r3, #8192	@ 0x2000
34184e18:	f7ff ba31 	b.w	3418427e <HAL_RCCEx_PeriphCLKConfig+0xcd2>
34184e1c:	4b17      	ldr	r3, [pc, #92]	@ (34184e7c <HAL_RCCEx_PeriphCLKConfig+0x18d0>)
34184e1e:	4298      	cmp	r0, r3
34184e20:	bf02      	ittt	eq
34184e22:	2240      	moveq	r2, #64	@ 0x40
34184e24:	4b14      	ldreq	r3, [pc, #80]	@ (34184e78 <HAL_RCCEx_PeriphCLKConfig+0x18cc>)
34184e26:	f8c3 2a48 	streq.w	r2, [r3, #2632]	@ 0xa48
34184e2a:	f7ff ba2a 	b.w	34184282 <HAL_RCCEx_PeriphCLKConfig+0xcd6>
34184e2e:	4b14      	ldr	r3, [pc, #80]	@ (34184e80 <HAL_RCCEx_PeriphCLKConfig+0x18d4>)
34184e30:	4298      	cmp	r0, r3
34184e32:	bf02      	ittt	eq
34184e34:	2240      	moveq	r2, #64	@ 0x40
34184e36:	4b10      	ldreq	r3, [pc, #64]	@ (34184e78 <HAL_RCCEx_PeriphCLKConfig+0x18cc>)
34184e38:	f8c3 2a48 	streq.w	r2, [r3, #2632]	@ 0xa48
34184e3c:	f7ff ba3e 	b.w	341842bc <HAL_RCCEx_PeriphCLKConfig+0xd10>
34184e40:	f7fe fa98 	bl	34183374 <LL_RCC_HSE_SelectHSEAsDiv2Clock>
34184e44:	f7ff ba45 	b.w	341842d2 <HAL_RCCEx_PeriphCLKConfig+0xd26>
34184e48:	4b0e      	ldr	r3, [pc, #56]	@ (34184e84 <HAL_RCCEx_PeriphCLKConfig+0x18d8>)
34184e4a:	4298      	cmp	r0, r3
34184e4c:	bf02      	ittt	eq
34184e4e:	2240      	moveq	r2, #64	@ 0x40
34184e50:	4b09      	ldreq	r3, [pc, #36]	@ (34184e78 <HAL_RCCEx_PeriphCLKConfig+0x18cc>)
34184e52:	f8c3 2a48 	streq.w	r2, [r3, #2632]	@ 0xa48
34184e56:	f7ff ba57 	b.w	34184308 <HAL_RCCEx_PeriphCLKConfig+0xd5c>
34184e5a:	f7fe fa8b 	bl	34183374 <LL_RCC_HSE_SelectHSEAsDiv2Clock>
34184e5e:	f7ff ba5e 	b.w	3418431e <HAL_RCCEx_PeriphCLKConfig+0xd72>
34184e62:	f7fe fa87 	bl	34183374 <LL_RCC_HSE_SelectHSEAsDiv2Clock>
34184e66:	f7ff ba69 	b.w	3418433c <HAL_RCCEx_PeriphCLKConfig+0xd90>
34184e6a:	f7fe fa83 	bl	34183374 <LL_RCC_HSE_SelectHSEAsDiv2Clock>
34184e6e:	f7ff ba74 	b.w	3418435a <HAL_RCCEx_PeriphCLKConfig+0xdae>
34184e72:	bf00      	nop
34184e74:	07030434 	.word	0x07030434
34184e78:	56028000 	.word	0x56028000
34184e7c:	07010434 	.word	0x07010434
34184e80:	03010c14 	.word	0x03010c14
34184e84:	03011414 	.word	0x03011414

34184e88 <HAL_RCCEx_GetPLL1CLKFreq>:
34184e88:	b537      	push	{r0, r1, r2, r4, r5, lr}
34184e8a:	4c1e      	ldr	r4, [pc, #120]	@ (34184f04 <HAL_RCCEx_GetPLL1CLKFreq+0x7c>)
34184e8c:	6863      	ldr	r3, [r4, #4]
34184e8e:	05d9      	lsls	r1, r3, #23
34184e90:	d506      	bpl.n	34184ea0 <HAL_RCCEx_GetPLL1CLKFreq+0x18>
34184e92:	f8d4 3088 	ldr.w	r3, [r4, #136]	@ 0x88
34184e96:	005a      	lsls	r2, r3, #1
34184e98:	d40f      	bmi.n	34184eba <HAL_RCCEx_GetPLL1CLKFreq+0x32>
34184e9a:	2000      	movs	r0, #0
34184e9c:	b003      	add	sp, #12
34184e9e:	bd30      	pop	{r4, r5, pc}
34184ea0:	f8d4 3080 	ldr.w	r3, [r4, #128]	@ 0x80
34184ea4:	011b      	lsls	r3, r3, #4
34184ea6:	d5f8      	bpl.n	34184e9a <HAL_RCCEx_GetPLL1CLKFreq+0x12>
34184ea8:	f8d4 0080 	ldr.w	r0, [r4, #128]	@ 0x80
34184eac:	f000 40e0 	and.w	r0, r0, #1879048192	@ 0x70000000
34184eb0:	b003      	add	sp, #12
34184eb2:	e8bd 4030 	ldmia.w	sp!, {r4, r5, lr}
34184eb6:	f7fe bb17 	b.w	341834e8 <RCCEx_GetPLLSourceFreq>
34184eba:	f8d4 0080 	ldr.w	r0, [r4, #128]	@ 0x80
34184ebe:	f000 40e0 	and.w	r0, r0, #1879048192	@ 0x70000000
34184ec2:	f7fe fb11 	bl	341834e8 <RCCEx_GetPLLSourceFreq>
34184ec6:	2800      	cmp	r0, #0
34184ec8:	d0e7      	beq.n	34184e9a <HAL_RCCEx_GetPLL1CLKFreq+0x12>
34184eca:	f8d4 3080 	ldr.w	r3, [r4, #128]	@ 0x80
34184ece:	f013 7f7c 	tst.w	r3, #66060288	@ 0x3f00000
34184ed2:	f3c3 5105 	ubfx	r1, r3, #20, #6
34184ed6:	d0e0      	beq.n	34184e9a <HAL_RCCEx_GetPLL1CLKFreq+0x12>
34184ed8:	f8d4 2080 	ldr.w	r2, [r4, #128]	@ 0x80
34184edc:	f8d4 3084 	ldr.w	r3, [r4, #132]	@ 0x84
34184ee0:	f8d4 5088 	ldr.w	r5, [r4, #136]	@ 0x88
34184ee4:	f8d4 4088 	ldr.w	r4, [r4, #136]	@ 0x88
34184ee8:	f3c5 65c2 	ubfx	r5, r5, #27, #3
34184eec:	f3c4 6402 	ubfx	r4, r4, #24, #3
34184ef0:	9401      	str	r4, [sp, #4]
34184ef2:	9500      	str	r5, [sp, #0]
34184ef4:	f023 437f 	bic.w	r3, r3, #4278190080	@ 0xff000000
34184ef8:	f3c2 220b 	ubfx	r2, r2, #8, #12
34184efc:	f7fe fb2a 	bl	34183554 <RCCEx_CalcPLLFreq>
34184f00:	e7cc      	b.n	34184e9c <HAL_RCCEx_GetPLL1CLKFreq+0x14>
34184f02:	bf00      	nop
34184f04:	56028000 	.word	0x56028000

34184f08 <HAL_RCCEx_GetPLL2CLKFreq>:
34184f08:	b537      	push	{r0, r1, r2, r4, r5, lr}
34184f0a:	4c1e      	ldr	r4, [pc, #120]	@ (34184f84 <HAL_RCCEx_GetPLL2CLKFreq+0x7c>)
34184f0c:	6863      	ldr	r3, [r4, #4]
34184f0e:	0599      	lsls	r1, r3, #22
34184f10:	d506      	bpl.n	34184f20 <HAL_RCCEx_GetPLL2CLKFreq+0x18>
34184f12:	f8d4 3098 	ldr.w	r3, [r4, #152]	@ 0x98
34184f16:	005a      	lsls	r2, r3, #1
34184f18:	d40f      	bmi.n	34184f3a <HAL_RCCEx_GetPLL2CLKFreq+0x32>
34184f1a:	2000      	movs	r0, #0
34184f1c:	b003      	add	sp, #12
34184f1e:	bd30      	pop	{r4, r5, pc}
34184f20:	f8d4 3090 	ldr.w	r3, [r4, #144]	@ 0x90
34184f24:	011b      	lsls	r3, r3, #4
34184f26:	d5f8      	bpl.n	34184f1a <HAL_RCCEx_GetPLL2CLKFreq+0x12>
34184f28:	f8d4 0090 	ldr.w	r0, [r4, #144]	@ 0x90
34184f2c:	f000 40e0 	and.w	r0, r0, #1879048192	@ 0x70000000
34184f30:	b003      	add	sp, #12
34184f32:	e8bd 4030 	ldmia.w	sp!, {r4, r5, lr}
34184f36:	f7fe bad7 	b.w	341834e8 <RCCEx_GetPLLSourceFreq>
34184f3a:	f8d4 0090 	ldr.w	r0, [r4, #144]	@ 0x90
34184f3e:	f000 40e0 	and.w	r0, r0, #1879048192	@ 0x70000000
34184f42:	f7fe fad1 	bl	341834e8 <RCCEx_GetPLLSourceFreq>
34184f46:	2800      	cmp	r0, #0
34184f48:	d0e7      	beq.n	34184f1a <HAL_RCCEx_GetPLL2CLKFreq+0x12>
34184f4a:	f8d4 3090 	ldr.w	r3, [r4, #144]	@ 0x90
34184f4e:	f013 7f7c 	tst.w	r3, #66060288	@ 0x3f00000
34184f52:	f3c3 5105 	ubfx	r1, r3, #20, #6
34184f56:	d0e0      	beq.n	34184f1a <HAL_RCCEx_GetPLL2CLKFreq+0x12>
34184f58:	f8d4 2090 	ldr.w	r2, [r4, #144]	@ 0x90
34184f5c:	f8d4 3094 	ldr.w	r3, [r4, #148]	@ 0x94
34184f60:	f8d4 5098 	ldr.w	r5, [r4, #152]	@ 0x98
34184f64:	f8d4 4098 	ldr.w	r4, [r4, #152]	@ 0x98
34184f68:	f3c5 65c2 	ubfx	r5, r5, #27, #3
34184f6c:	f3c4 6402 	ubfx	r4, r4, #24, #3
34184f70:	9401      	str	r4, [sp, #4]
34184f72:	9500      	str	r5, [sp, #0]
34184f74:	f023 437f 	bic.w	r3, r3, #4278190080	@ 0xff000000
34184f78:	f3c2 220b 	ubfx	r2, r2, #8, #12
34184f7c:	f7fe faea 	bl	34183554 <RCCEx_CalcPLLFreq>
34184f80:	e7cc      	b.n	34184f1c <HAL_RCCEx_GetPLL2CLKFreq+0x14>
34184f82:	bf00      	nop
34184f84:	56028000 	.word	0x56028000

34184f88 <HAL_RCCEx_GetPLL3CLKFreq>:
34184f88:	b537      	push	{r0, r1, r2, r4, r5, lr}
34184f8a:	4c1e      	ldr	r4, [pc, #120]	@ (34185004 <HAL_RCCEx_GetPLL3CLKFreq+0x7c>)
34184f8c:	6863      	ldr	r3, [r4, #4]
34184f8e:	0559      	lsls	r1, r3, #21
34184f90:	d506      	bpl.n	34184fa0 <HAL_RCCEx_GetPLL3CLKFreq+0x18>
34184f92:	f8d4 30a8 	ldr.w	r3, [r4, #168]	@ 0xa8
34184f96:	005a      	lsls	r2, r3, #1
34184f98:	d40f      	bmi.n	34184fba <HAL_RCCEx_GetPLL3CLKFreq+0x32>
34184f9a:	2000      	movs	r0, #0
34184f9c:	b003      	add	sp, #12
34184f9e:	bd30      	pop	{r4, r5, pc}
34184fa0:	f8d4 30a0 	ldr.w	r3, [r4, #160]	@ 0xa0
34184fa4:	011b      	lsls	r3, r3, #4
34184fa6:	d5f8      	bpl.n	34184f9a <HAL_RCCEx_GetPLL3CLKFreq+0x12>
34184fa8:	f8d4 00a0 	ldr.w	r0, [r4, #160]	@ 0xa0
34184fac:	f000 40e0 	and.w	r0, r0, #1879048192	@ 0x70000000
34184fb0:	b003      	add	sp, #12
34184fb2:	e8bd 4030 	ldmia.w	sp!, {r4, r5, lr}
34184fb6:	f7fe ba97 	b.w	341834e8 <RCCEx_GetPLLSourceFreq>
34184fba:	f8d4 00a0 	ldr.w	r0, [r4, #160]	@ 0xa0
34184fbe:	f000 40e0 	and.w	r0, r0, #1879048192	@ 0x70000000
34184fc2:	f7fe fa91 	bl	341834e8 <RCCEx_GetPLLSourceFreq>
34184fc6:	2800      	cmp	r0, #0
34184fc8:	d0e7      	beq.n	34184f9a <HAL_RCCEx_GetPLL3CLKFreq+0x12>
34184fca:	f8d4 30a0 	ldr.w	r3, [r4, #160]	@ 0xa0
34184fce:	f013 7f7c 	tst.w	r3, #66060288	@ 0x3f00000
34184fd2:	f3c3 5105 	ubfx	r1, r3, #20, #6
34184fd6:	d0e0      	beq.n	34184f9a <HAL_RCCEx_GetPLL3CLKFreq+0x12>
34184fd8:	f8d4 20a0 	ldr.w	r2, [r4, #160]	@ 0xa0
34184fdc:	f8d4 30a4 	ldr.w	r3, [r4, #164]	@ 0xa4
34184fe0:	f8d4 50a8 	ldr.w	r5, [r4, #168]	@ 0xa8
34184fe4:	f8d4 40a8 	ldr.w	r4, [r4, #168]	@ 0xa8
34184fe8:	f3c5 65c2 	ubfx	r5, r5, #27, #3
34184fec:	f3c4 6402 	ubfx	r4, r4, #24, #3
34184ff0:	9401      	str	r4, [sp, #4]
34184ff2:	9500      	str	r5, [sp, #0]
34184ff4:	f023 437f 	bic.w	r3, r3, #4278190080	@ 0xff000000
34184ff8:	f3c2 220b 	ubfx	r2, r2, #8, #12
34184ffc:	f7fe faaa 	bl	34183554 <RCCEx_CalcPLLFreq>
34185000:	e7cc      	b.n	34184f9c <HAL_RCCEx_GetPLL3CLKFreq+0x14>
34185002:	bf00      	nop
34185004:	56028000 	.word	0x56028000

34185008 <HAL_RCCEx_GetPLL4CLKFreq>:
34185008:	b537      	push	{r0, r1, r2, r4, r5, lr}
3418500a:	4c1e      	ldr	r4, [pc, #120]	@ (34185084 <HAL_RCCEx_GetPLL4CLKFreq+0x7c>)
3418500c:	6863      	ldr	r3, [r4, #4]
3418500e:	0519      	lsls	r1, r3, #20
34185010:	d506      	bpl.n	34185020 <HAL_RCCEx_GetPLL4CLKFreq+0x18>
34185012:	f8d4 30b8 	ldr.w	r3, [r4, #184]	@ 0xb8
34185016:	005a      	lsls	r2, r3, #1
34185018:	d40f      	bmi.n	3418503a <HAL_RCCEx_GetPLL4CLKFreq+0x32>
3418501a:	2000      	movs	r0, #0
3418501c:	b003      	add	sp, #12
3418501e:	bd30      	pop	{r4, r5, pc}
34185020:	f8d4 30b0 	ldr.w	r3, [r4, #176]	@ 0xb0
34185024:	011b      	lsls	r3, r3, #4
34185026:	d5f8      	bpl.n	3418501a <HAL_RCCEx_GetPLL4CLKFreq+0x12>
34185028:	f8d4 00b0 	ldr.w	r0, [r4, #176]	@ 0xb0
3418502c:	f000 40e0 	and.w	r0, r0, #1879048192	@ 0x70000000
34185030:	b003      	add	sp, #12
34185032:	e8bd 4030 	ldmia.w	sp!, {r4, r5, lr}
34185036:	f7fe ba57 	b.w	341834e8 <RCCEx_GetPLLSourceFreq>
3418503a:	f8d4 00b0 	ldr.w	r0, [r4, #176]	@ 0xb0
3418503e:	f000 40e0 	and.w	r0, r0, #1879048192	@ 0x70000000
34185042:	f7fe fa51 	bl	341834e8 <RCCEx_GetPLLSourceFreq>
34185046:	2800      	cmp	r0, #0
34185048:	d0e7      	beq.n	3418501a <HAL_RCCEx_GetPLL4CLKFreq+0x12>
3418504a:	f8d4 30b0 	ldr.w	r3, [r4, #176]	@ 0xb0
3418504e:	f013 7f7c 	tst.w	r3, #66060288	@ 0x3f00000
34185052:	f3c3 5105 	ubfx	r1, r3, #20, #6
34185056:	d0e0      	beq.n	3418501a <HAL_RCCEx_GetPLL4CLKFreq+0x12>
34185058:	f8d4 20b0 	ldr.w	r2, [r4, #176]	@ 0xb0
3418505c:	f8d4 30b4 	ldr.w	r3, [r4, #180]	@ 0xb4
34185060:	f8d4 50b8 	ldr.w	r5, [r4, #184]	@ 0xb8
34185064:	f8d4 40b8 	ldr.w	r4, [r4, #184]	@ 0xb8
34185068:	f3c5 65c2 	ubfx	r5, r5, #27, #3
3418506c:	f3c4 6402 	ubfx	r4, r4, #24, #3
34185070:	9401      	str	r4, [sp, #4]
34185072:	9500      	str	r5, [sp, #0]
34185074:	f023 437f 	bic.w	r3, r3, #4278190080	@ 0xff000000
34185078:	f3c2 220b 	ubfx	r2, r2, #8, #12
3418507c:	f7fe fa6a 	bl	34183554 <RCCEx_CalcPLLFreq>
34185080:	e7cc      	b.n	3418501c <HAL_RCCEx_GetPLL4CLKFreq+0x14>
34185082:	bf00      	nop
34185084:	56028000 	.word	0x56028000

34185088 <RCCEx_GetCLKPCLKFreq.constprop.0>:
34185088:	4b3e      	ldr	r3, [pc, #248]	@ (34185184 <RCCEx_GetCLKPCLKFreq.constprop.0+0xfc>)
3418508a:	b510      	push	{r4, lr}
3418508c:	f8d3 2248 	ldr.w	r2, [r3, #584]	@ 0x248
34185090:	0652      	lsls	r2, r2, #25
34185092:	d56b      	bpl.n	3418516c <RCCEx_GetCLKPCLKFreq.constprop.0+0xe4>
34185094:	f8d3 215c 	ldr.w	r2, [r3, #348]	@ 0x15c
34185098:	f002 0207 	and.w	r2, r2, #7
3418509c:	3a01      	subs	r2, #1
3418509e:	2a06      	cmp	r2, #6
341850a0:	d805      	bhi.n	341850ae <RCCEx_GetCLKPCLKFreq.constprop.0+0x26>
341850a2:	e8df f002 	tbb	[pc, r2]
341850a6:	150f      	.short	0x150f
341850a8:	3e321b48 	.word	0x3e321b48
341850ac:	54          	.byte	0x54
341850ad:	00          	.byte	0x00
341850ae:	f7fe f981 	bl	341833b4 <LL_RCC_HSI_IsReady>
341850b2:	2800      	cmp	r0, #0
341850b4:	d05a      	beq.n	3418516c <RCCEx_GetCLKPCLKFreq.constprop.0+0xe4>
341850b6:	4b33      	ldr	r3, [pc, #204]	@ (34185184 <RCCEx_GetCLKPCLKFreq.constprop.0+0xfc>)
341850b8:	4833      	ldr	r0, [pc, #204]	@ (34185188 <RCCEx_GetCLKPCLKFreq.constprop.0+0x100>)
341850ba:	6c9b      	ldr	r3, [r3, #72]	@ 0x48
341850bc:	f3c3 13c1 	ubfx	r3, r3, #7, #2
341850c0:	40d8      	lsrs	r0, r3
341850c2:	e054      	b.n	3418516e <RCCEx_GetCLKPCLKFreq.constprop.0+0xe6>
341850c4:	f7fe f97e 	bl	341833c4 <LL_RCC_MSI_IsReady>
341850c8:	2800      	cmp	r0, #0
341850ca:	d04f      	beq.n	3418516c <RCCEx_GetCLKPCLKFreq.constprop.0+0xe4>
341850cc:	482f      	ldr	r0, [pc, #188]	@ (3418518c <RCCEx_GetCLKPCLKFreq.constprop.0+0x104>)
341850ce:	e04e      	b.n	3418516e <RCCEx_GetCLKPCLKFreq.constprop.0+0xe6>
341850d0:	f7fe f968 	bl	341833a4 <LL_RCC_HSE_IsReady>
341850d4:	2800      	cmp	r0, #0
341850d6:	d049      	beq.n	3418516c <RCCEx_GetCLKPCLKFreq.constprop.0+0xe4>
341850d8:	482d      	ldr	r0, [pc, #180]	@ (34185190 <RCCEx_GetCLKPCLKFreq.constprop.0+0x108>)
341850da:	e048      	b.n	3418516e <RCCEx_GetCLKPCLKFreq.constprop.0+0xe6>
341850dc:	f8d3 2240 	ldr.w	r2, [r3, #576]	@ 0x240
341850e0:	06d4      	lsls	r4, r2, #27
341850e2:	d543      	bpl.n	3418516c <RCCEx_GetCLKPCLKFreq.constprop.0+0xe4>
341850e4:	f8d3 00d4 	ldr.w	r0, [r3, #212]	@ 0xd4
341850e8:	f8d3 30d4 	ldr.w	r3, [r3, #212]	@ 0xd4
341850ec:	f3c0 4007 	ubfx	r0, r0, #16, #8
341850f0:	1c44      	adds	r4, r0, #1
341850f2:	f003 5340 	and.w	r3, r3, #805306368	@ 0x30000000
341850f6:	f1b3 5f00 	cmp.w	r3, #536870912	@ 0x20000000
341850fa:	d03c      	beq.n	34185176 <RCCEx_GetCLKPCLKFreq.constprop.0+0xee>
341850fc:	d833      	bhi.n	34185166 <RCCEx_GetCLKPCLKFreq.constprop.0+0xde>
341850fe:	bbbb      	cbnz	r3, 34185170 <RCCEx_GetCLKPCLKFreq.constprop.0+0xe8>
34185100:	f7ff fec2 	bl	34184e88 <HAL_RCCEx_GetPLL1CLKFreq>
34185104:	fbb0 f0f4 	udiv	r0, r0, r4
34185108:	e031      	b.n	3418516e <RCCEx_GetCLKPCLKFreq.constprop.0+0xe6>
3418510a:	f8d3 2240 	ldr.w	r2, [r3, #576]	@ 0x240
3418510e:	0590      	lsls	r0, r2, #22
34185110:	d52c      	bpl.n	3418516c <RCCEx_GetCLKPCLKFreq.constprop.0+0xe4>
34185112:	f8d3 00e8 	ldr.w	r0, [r3, #232]	@ 0xe8
34185116:	f8d3 30e8 	ldr.w	r3, [r3, #232]	@ 0xe8
3418511a:	f3c0 4007 	ubfx	r0, r0, #16, #8
3418511e:	1c44      	adds	r4, r0, #1
34185120:	e7e7      	b.n	341850f2 <RCCEx_GetCLKPCLKFreq.constprop.0+0x6a>
34185122:	f7fe f9c7 	bl	341834b4 <LL_RCC_IC15_IsEnabled>
34185126:	b308      	cbz	r0, 3418516c <RCCEx_GetCLKPCLKFreq.constprop.0+0xe4>
34185128:	f7fe f9cc 	bl	341834c4 <LL_RCC_IC15_GetDivider>
3418512c:	4b15      	ldr	r3, [pc, #84]	@ (34185184 <RCCEx_GetCLKPCLKFreq.constprop.0+0xfc>)
3418512e:	4604      	mov	r4, r0
34185130:	f8d3 30fc 	ldr.w	r3, [r3, #252]	@ 0xfc
34185134:	e7dd      	b.n	341850f2 <RCCEx_GetCLKPCLKFreq.constprop.0+0x6a>
34185136:	f8d3 2240 	ldr.w	r2, [r3, #576]	@ 0x240
3418513a:	0351      	lsls	r1, r2, #13
3418513c:	d516      	bpl.n	3418516c <RCCEx_GetCLKPCLKFreq.constprop.0+0xe4>
3418513e:	f8d3 010c 	ldr.w	r0, [r3, #268]	@ 0x10c
34185142:	f8d3 310c 	ldr.w	r3, [r3, #268]	@ 0x10c
34185146:	f3c0 4007 	ubfx	r0, r0, #16, #8
3418514a:	1c44      	adds	r4, r0, #1
3418514c:	e7d1      	b.n	341850f2 <RCCEx_GetCLKPCLKFreq.constprop.0+0x6a>
3418514e:	f8d3 2240 	ldr.w	r2, [r3, #576]	@ 0x240
34185152:	0312      	lsls	r2, r2, #12
34185154:	d50a      	bpl.n	3418516c <RCCEx_GetCLKPCLKFreq.constprop.0+0xe4>
34185156:	f8d3 0110 	ldr.w	r0, [r3, #272]	@ 0x110
3418515a:	f8d3 3110 	ldr.w	r3, [r3, #272]	@ 0x110
3418515e:	f3c0 4007 	ubfx	r0, r0, #16, #8
34185162:	1c44      	adds	r4, r0, #1
34185164:	e7c5      	b.n	341850f2 <RCCEx_GetCLKPCLKFreq.constprop.0+0x6a>
34185166:	f1b3 5f40 	cmp.w	r3, #805306368	@ 0x30000000
3418516a:	d007      	beq.n	3418517c <RCCEx_GetCLKPCLKFreq.constprop.0+0xf4>
3418516c:	2000      	movs	r0, #0
3418516e:	bd10      	pop	{r4, pc}
34185170:	f7ff feca 	bl	34184f08 <HAL_RCCEx_GetPLL2CLKFreq>
34185174:	e7c6      	b.n	34185104 <RCCEx_GetCLKPCLKFreq.constprop.0+0x7c>
34185176:	f7ff ff07 	bl	34184f88 <HAL_RCCEx_GetPLL3CLKFreq>
3418517a:	e7c3      	b.n	34185104 <RCCEx_GetCLKPCLKFreq.constprop.0+0x7c>
3418517c:	f7ff ff44 	bl	34185008 <HAL_RCCEx_GetPLL4CLKFreq>
34185180:	e7c0      	b.n	34185104 <RCCEx_GetCLKPCLKFreq.constprop.0+0x7c>
34185182:	bf00      	nop
34185184:	56028000 	.word	0x56028000
34185188:	03d09000 	.word	0x03d09000
3418518c:	003d0900 	.word	0x003d0900
34185190:	016e3600 	.word	0x016e3600

34185194 <RCCEx_GetSPDIFRXCLKFreq.constprop.0>:
34185194:	b538      	push	{r3, r4, r5, lr}
34185196:	4d2b      	ldr	r5, [pc, #172]	@ (34185244 <RCCEx_GetSPDIFRXCLKFreq.constprop.0+0xb0>)
34185198:	f8d5 3164 	ldr.w	r3, [r5, #356]	@ 0x164
3418519c:	f003 0307 	and.w	r3, r3, #7
341851a0:	2b06      	cmp	r3, #6
341851a2:	d835      	bhi.n	34185210 <RCCEx_GetSPDIFRXCLKFreq.constprop.0+0x7c>
341851a4:	e8df f003 	tbb	[pc, r3]
341851a8:	28110d04 	.word	0x28110d04
341851ac:	3c45      	.short	0x3c45
341851ae:	4b          	.byte	0x4b
341851af:	00          	.byte	0x00
341851b0:	f7fe f890 	bl	341832d4 <HAL_RCC_GetSysClockFreq>
341851b4:	f7fe f990 	bl	341834d8 <RCCEx_GetHCLKFreq>
341851b8:	6a6b      	ldr	r3, [r5, #36]	@ 0x24
341851ba:	f003 0307 	and.w	r3, r3, #7
341851be:	40d8      	lsrs	r0, r3
341851c0:	e027      	b.n	34185212 <RCCEx_GetSPDIFRXCLKFreq.constprop.0+0x7e>
341851c2:	e8bd 4038 	ldmia.w	sp!, {r3, r4, r5, lr}
341851c6:	f7ff bf5f 	b.w	34185088 <RCCEx_GetCLKPCLKFreq.constprop.0>
341851ca:	f7fe f92b 	bl	34183424 <LL_RCC_IC7_IsEnabled>
341851ce:	b1f8      	cbz	r0, 34185210 <RCCEx_GetSPDIFRXCLKFreq.constprop.0+0x7c>
341851d0:	f7fe f930 	bl	34183434 <LL_RCC_IC7_GetDivider>
341851d4:	4604      	mov	r4, r0
341851d6:	f8d5 30dc 	ldr.w	r3, [r5, #220]	@ 0xdc
341851da:	f003 5340 	and.w	r3, r3, #805306368	@ 0x30000000
341851de:	f1b3 5f00 	cmp.w	r3, #536870912	@ 0x20000000
341851e2:	d017      	beq.n	34185214 <RCCEx_GetSPDIFRXCLKFreq.constprop.0+0x80>
341851e4:	d811      	bhi.n	3418520a <RCCEx_GetSPDIFRXCLKFreq.constprop.0+0x76>
341851e6:	b913      	cbnz	r3, 341851ee <RCCEx_GetSPDIFRXCLKFreq.constprop.0+0x5a>
341851e8:	f7ff fe4e 	bl	34184e88 <HAL_RCCEx_GetPLL1CLKFreq>
341851ec:	e001      	b.n	341851f2 <RCCEx_GetSPDIFRXCLKFreq.constprop.0+0x5e>
341851ee:	f7ff fe8b 	bl	34184f08 <HAL_RCCEx_GetPLL2CLKFreq>
341851f2:	fbb0 f0f4 	udiv	r0, r0, r4
341851f6:	e00c      	b.n	34185212 <RCCEx_GetSPDIFRXCLKFreq.constprop.0+0x7e>
341851f8:	f7fe f926 	bl	34183448 <LL_RCC_IC8_IsEnabled>
341851fc:	b140      	cbz	r0, 34185210 <RCCEx_GetSPDIFRXCLKFreq.constprop.0+0x7c>
341851fe:	f7fe f92b 	bl	34183458 <LL_RCC_IC8_GetDivider>
34185202:	f8d5 30e0 	ldr.w	r3, [r5, #224]	@ 0xe0
34185206:	4604      	mov	r4, r0
34185208:	e7e7      	b.n	341851da <RCCEx_GetSPDIFRXCLKFreq.constprop.0+0x46>
3418520a:	f1b3 5f40 	cmp.w	r3, #805306368	@ 0x30000000
3418520e:	d004      	beq.n	3418521a <RCCEx_GetSPDIFRXCLKFreq.constprop.0+0x86>
34185210:	2000      	movs	r0, #0
34185212:	bd38      	pop	{r3, r4, r5, pc}
34185214:	f7ff feb8 	bl	34184f88 <HAL_RCCEx_GetPLL3CLKFreq>
34185218:	e7eb      	b.n	341851f2 <RCCEx_GetSPDIFRXCLKFreq.constprop.0+0x5e>
3418521a:	f7ff fef5 	bl	34185008 <HAL_RCCEx_GetPLL4CLKFreq>
3418521e:	e7e8      	b.n	341851f2 <RCCEx_GetSPDIFRXCLKFreq.constprop.0+0x5e>
34185220:	f7fe f8c8 	bl	341833b4 <LL_RCC_HSI_IsReady>
34185224:	2800      	cmp	r0, #0
34185226:	d0f3      	beq.n	34185210 <RCCEx_GetSPDIFRXCLKFreq.constprop.0+0x7c>
34185228:	6cab      	ldr	r3, [r5, #72]	@ 0x48
3418522a:	4807      	ldr	r0, [pc, #28]	@ (34185248 <RCCEx_GetSPDIFRXCLKFreq.constprop.0+0xb4>)
3418522c:	f3c3 13c1 	ubfx	r3, r3, #7, #2
34185230:	e7c5      	b.n	341851be <RCCEx_GetSPDIFRXCLKFreq.constprop.0+0x2a>
34185232:	f7fe f8c7 	bl	341833c4 <LL_RCC_MSI_IsReady>
34185236:	2800      	cmp	r0, #0
34185238:	d0ea      	beq.n	34185210 <RCCEx_GetSPDIFRXCLKFreq.constprop.0+0x7c>
3418523a:	4804      	ldr	r0, [pc, #16]	@ (3418524c <RCCEx_GetSPDIFRXCLKFreq.constprop.0+0xb8>)
3418523c:	e7e9      	b.n	34185212 <RCCEx_GetSPDIFRXCLKFreq.constprop.0+0x7e>
3418523e:	4804      	ldr	r0, [pc, #16]	@ (34185250 <RCCEx_GetSPDIFRXCLKFreq.constprop.0+0xbc>)
34185240:	e7e7      	b.n	34185212 <RCCEx_GetSPDIFRXCLKFreq.constprop.0+0x7e>
34185242:	bf00      	nop
34185244:	56028000 	.word	0x56028000
34185248:	03d09000 	.word	0x03d09000
3418524c:	003d0900 	.word	0x003d0900
34185250:	00bb8000 	.word	0x00bb8000

34185254 <RCCEx_GetXSPICLKFreq>:
34185254:	b510      	push	{r4, lr}
34185256:	f7fe f8d7 	bl	34183408 <LL_RCC_GetClockSource>
3418525a:	4b36      	ldr	r3, [pc, #216]	@ (34185334 <RCCEx_GetXSPICLKFreq+0xe0>)
3418525c:	4298      	cmp	r0, r3
3418525e:	d028      	beq.n	341852b2 <RCCEx_GetXSPICLKFreq+0x5e>
34185260:	d81b      	bhi.n	3418529a <RCCEx_GetXSPICLKFreq+0x46>
34185262:	f5a3 3380 	sub.w	r3, r3, #65536	@ 0x10000
34185266:	4298      	cmp	r0, r3
34185268:	d013      	beq.n	34185292 <RCCEx_GetXSPICLKFreq+0x3e>
3418526a:	d80b      	bhi.n	34185284 <RCCEx_GetXSPICLKFreq+0x30>
3418526c:	f420 6280 	bic.w	r2, r0, #1024	@ 0x400
34185270:	f5a3 3380 	sub.w	r3, r3, #65536	@ 0x10000
34185274:	429a      	cmp	r2, r3
34185276:	d04a      	beq.n	3418530e <RCCEx_GetXSPICLKFreq+0xba>
34185278:	f503 6300 	add.w	r3, r3, #2048	@ 0x800
3418527c:	4298      	cmp	r0, r3
3418527e:	d046      	beq.n	3418530e <RCCEx_GetXSPICLKFreq+0xba>
34185280:	2000      	movs	r0, #0
34185282:	bd10      	pop	{r4, pc}
34185284:	4b2c      	ldr	r3, [pc, #176]	@ (34185338 <RCCEx_GetXSPICLKFreq+0xe4>)
34185286:	4298      	cmp	r0, r3
34185288:	d003      	beq.n	34185292 <RCCEx_GetXSPICLKFreq+0x3e>
3418528a:	f503 6380 	add.w	r3, r3, #1024	@ 0x400
3418528e:	4298      	cmp	r0, r3
34185290:	d1f6      	bne.n	34185280 <RCCEx_GetXSPICLKFreq+0x2c>
34185292:	e8bd 4010 	ldmia.w	sp!, {r4, lr}
34185296:	f7ff bef7 	b.w	34185088 <RCCEx_GetCLKPCLKFreq.constprop.0>
3418529a:	4b28      	ldr	r3, [pc, #160]	@ (3418533c <RCCEx_GetXSPICLKFreq+0xe8>)
3418529c:	4298      	cmp	r0, r3
3418529e:	d028      	beq.n	341852f2 <RCCEx_GetXSPICLKFreq+0x9e>
341852a0:	d820      	bhi.n	341852e4 <RCCEx_GetXSPICLKFreq+0x90>
341852a2:	f5a3 437c 	sub.w	r3, r3, #64512	@ 0xfc00
341852a6:	4298      	cmp	r0, r3
341852a8:	d003      	beq.n	341852b2 <RCCEx_GetXSPICLKFreq+0x5e>
341852aa:	f503 6380 	add.w	r3, r3, #1024	@ 0x400
341852ae:	4298      	cmp	r0, r3
341852b0:	d1e6      	bne.n	34185280 <RCCEx_GetXSPICLKFreq+0x2c>
341852b2:	4b23      	ldr	r3, [pc, #140]	@ (34185340 <RCCEx_GetXSPICLKFreq+0xec>)
341852b4:	f8d3 0240 	ldr.w	r0, [r3, #576]	@ 0x240
341852b8:	f010 0004 	ands.w	r0, r0, #4
341852bc:	d0e1      	beq.n	34185282 <RCCEx_GetXSPICLKFreq+0x2e>
341852be:	f8d3 00cc 	ldr.w	r0, [r3, #204]	@ 0xcc
341852c2:	f8d3 30cc 	ldr.w	r3, [r3, #204]	@ 0xcc
341852c6:	f3c0 4007 	ubfx	r0, r0, #16, #8
341852ca:	1c44      	adds	r4, r0, #1
341852cc:	f003 5340 	and.w	r3, r3, #805306368	@ 0x30000000
341852d0:	f1b3 5f00 	cmp.w	r3, #536870912	@ 0x20000000
341852d4:	d02a      	beq.n	3418532c <RCCEx_GetXSPICLKFreq+0xd8>
341852d6:	d820      	bhi.n	3418531a <RCCEx_GetXSPICLKFreq+0xc6>
341852d8:	bb2b      	cbnz	r3, 34185326 <RCCEx_GetXSPICLKFreq+0xd2>
341852da:	f7ff fdd5 	bl	34184e88 <HAL_RCCEx_GetPLL1CLKFreq>
341852de:	fbb0 f0f4 	udiv	r0, r0, r4
341852e2:	e7ce      	b.n	34185282 <RCCEx_GetXSPICLKFreq+0x2e>
341852e4:	4b17      	ldr	r3, [pc, #92]	@ (34185344 <RCCEx_GetXSPICLKFreq+0xf0>)
341852e6:	4298      	cmp	r0, r3
341852e8:	d003      	beq.n	341852f2 <RCCEx_GetXSPICLKFreq+0x9e>
341852ea:	f503 6380 	add.w	r3, r3, #1024	@ 0x400
341852ee:	4298      	cmp	r0, r3
341852f0:	d1c6      	bne.n	34185280 <RCCEx_GetXSPICLKFreq+0x2c>
341852f2:	4b13      	ldr	r3, [pc, #76]	@ (34185340 <RCCEx_GetXSPICLKFreq+0xec>)
341852f4:	f8d3 0240 	ldr.w	r0, [r3, #576]	@ 0x240
341852f8:	f010 0008 	ands.w	r0, r0, #8
341852fc:	d0c1      	beq.n	34185282 <RCCEx_GetXSPICLKFreq+0x2e>
341852fe:	f8d3 00d0 	ldr.w	r0, [r3, #208]	@ 0xd0
34185302:	f8d3 30d0 	ldr.w	r3, [r3, #208]	@ 0xd0
34185306:	f3c0 4007 	ubfx	r0, r0, #16, #8
3418530a:	1c44      	adds	r4, r0, #1
3418530c:	e7de      	b.n	341852cc <RCCEx_GetXSPICLKFreq+0x78>
3418530e:	f7fd ffe1 	bl	341832d4 <HAL_RCC_GetSysClockFreq>
34185312:	e8bd 4010 	ldmia.w	sp!, {r4, lr}
34185316:	f7fe b8df 	b.w	341834d8 <RCCEx_GetHCLKFreq>
3418531a:	f1b3 5f40 	cmp.w	r3, #805306368	@ 0x30000000
3418531e:	d1af      	bne.n	34185280 <RCCEx_GetXSPICLKFreq+0x2c>
34185320:	f7ff fe72 	bl	34185008 <HAL_RCCEx_GetPLL4CLKFreq>
34185324:	e7db      	b.n	341852de <RCCEx_GetXSPICLKFreq+0x8a>
34185326:	f7ff fdef 	bl	34184f08 <HAL_RCCEx_GetPLL2CLKFreq>
3418532a:	e7d8      	b.n	341852de <RCCEx_GetXSPICLKFreq+0x8a>
3418532c:	f7ff fe2c 	bl	34184f88 <HAL_RCCEx_GetPLL3CLKFreq>
34185330:	e7d5      	b.n	341852de <RCCEx_GetXSPICLKFreq+0x8a>
34185332:	bf00      	nop
34185334:	03020014 	.word	0x03020014
34185338:	03010414 	.word	0x03010414
3418533c:	03030014 	.word	0x03030014
34185340:	56028000 	.word	0x56028000
34185344:	03030414 	.word	0x03030414

34185348 <RCCEx_GetOTGPHYCLKFreq>:
34185348:	b510      	push	{r4, lr}
3418534a:	f7fe f85d 	bl	34183408 <LL_RCC_GetClockSource>
3418534e:	4b2b      	ldr	r3, [pc, #172]	@ (341853fc <RCCEx_GetOTGPHYCLKFreq+0xb4>)
34185350:	4298      	cmp	r0, r3
34185352:	d021      	beq.n	34185398 <RCCEx_GetOTGPHYCLKFreq+0x50>
34185354:	d815      	bhi.n	34185382 <RCCEx_GetOTGPHYCLKFreq+0x3a>
34185356:	f5a3 3380 	sub.w	r3, r3, #65536	@ 0x10000
3418535a:	4298      	cmp	r0, r3
3418535c:	d00d      	beq.n	3418537a <RCCEx_GetOTGPHYCLKFreq+0x32>
3418535e:	d809      	bhi.n	34185374 <RCCEx_GetOTGPHYCLKFreq+0x2c>
34185360:	f5a3 3380 	sub.w	r3, r3, #65536	@ 0x10000
34185364:	4298      	cmp	r0, r3
34185366:	d02d      	beq.n	341853c4 <RCCEx_GetOTGPHYCLKFreq+0x7c>
34185368:	f503 6300 	add.w	r3, r3, #2048	@ 0x800
3418536c:	4298      	cmp	r0, r3
3418536e:	d029      	beq.n	341853c4 <RCCEx_GetOTGPHYCLKFreq+0x7c>
34185370:	2000      	movs	r0, #0
34185372:	bd10      	pop	{r4, pc}
34185374:	4b22      	ldr	r3, [pc, #136]	@ (34185400 <RCCEx_GetOTGPHYCLKFreq+0xb8>)
34185376:	4298      	cmp	r0, r3
34185378:	d1fa      	bne.n	34185370 <RCCEx_GetOTGPHYCLKFreq+0x28>
3418537a:	e8bd 4010 	ldmia.w	sp!, {r4, lr}
3418537e:	f7ff be83 	b.w	34185088 <RCCEx_GetCLKPCLKFreq.constprop.0>
34185382:	4b20      	ldr	r3, [pc, #128]	@ (34185404 <RCCEx_GetOTGPHYCLKFreq+0xbc>)
34185384:	4298      	cmp	r0, r3
34185386:	d023      	beq.n	341853d0 <RCCEx_GetOTGPHYCLKFreq+0x88>
34185388:	f503 6300 	add.w	r3, r3, #2048	@ 0x800
3418538c:	4298      	cmp	r0, r3
3418538e:	d01f      	beq.n	341853d0 <RCCEx_GetOTGPHYCLKFreq+0x88>
34185390:	f5a3 3380 	sub.w	r3, r3, #65536	@ 0x10000
34185394:	4298      	cmp	r0, r3
34185396:	d1eb      	bne.n	34185370 <RCCEx_GetOTGPHYCLKFreq+0x28>
34185398:	f7fe f88c 	bl	341834b4 <LL_RCC_IC15_IsEnabled>
3418539c:	2800      	cmp	r0, #0
3418539e:	d0e7      	beq.n	34185370 <RCCEx_GetOTGPHYCLKFreq+0x28>
341853a0:	f7fe f890 	bl	341834c4 <LL_RCC_IC15_GetDivider>
341853a4:	4b18      	ldr	r3, [pc, #96]	@ (34185408 <RCCEx_GetOTGPHYCLKFreq+0xc0>)
341853a6:	4604      	mov	r4, r0
341853a8:	f8d3 30fc 	ldr.w	r3, [r3, #252]	@ 0xfc
341853ac:	f003 5340 	and.w	r3, r3, #805306368	@ 0x30000000
341853b0:	f1b3 5f00 	cmp.w	r3, #536870912	@ 0x20000000
341853b4:	d01f      	beq.n	341853f6 <RCCEx_GetOTGPHYCLKFreq+0xae>
341853b6:	d815      	bhi.n	341853e4 <RCCEx_GetOTGPHYCLKFreq+0x9c>
341853b8:	b9d3      	cbnz	r3, 341853f0 <RCCEx_GetOTGPHYCLKFreq+0xa8>
341853ba:	f7ff fd65 	bl	34184e88 <HAL_RCCEx_GetPLL1CLKFreq>
341853be:	fbb0 f0f4 	udiv	r0, r0, r4
341853c2:	e7d6      	b.n	34185372 <RCCEx_GetOTGPHYCLKFreq+0x2a>
341853c4:	f7fd ffee 	bl	341833a4 <LL_RCC_HSE_IsReady>
341853c8:	2800      	cmp	r0, #0
341853ca:	d0d1      	beq.n	34185370 <RCCEx_GetOTGPHYCLKFreq+0x28>
341853cc:	480f      	ldr	r0, [pc, #60]	@ (3418540c <RCCEx_GetOTGPHYCLKFreq+0xc4>)
341853ce:	e7d0      	b.n	34185372 <RCCEx_GetOTGPHYCLKFreq+0x2a>
341853d0:	f7fd ffe8 	bl	341833a4 <LL_RCC_HSE_IsReady>
341853d4:	2800      	cmp	r0, #0
341853d6:	d0cb      	beq.n	34185370 <RCCEx_GetOTGPHYCLKFreq+0x28>
341853d8:	f7fd ffdc 	bl	34183394 <LL_RCC_HSE_IsSelectedHSEDiv2AsDiv2Clock>
341853dc:	2800      	cmp	r0, #0
341853de:	d1f5      	bne.n	341853cc <RCCEx_GetOTGPHYCLKFreq+0x84>
341853e0:	480b      	ldr	r0, [pc, #44]	@ (34185410 <RCCEx_GetOTGPHYCLKFreq+0xc8>)
341853e2:	e7c6      	b.n	34185372 <RCCEx_GetOTGPHYCLKFreq+0x2a>
341853e4:	f1b3 5f40 	cmp.w	r3, #805306368	@ 0x30000000
341853e8:	d1c2      	bne.n	34185370 <RCCEx_GetOTGPHYCLKFreq+0x28>
341853ea:	f7ff fe0d 	bl	34185008 <HAL_RCCEx_GetPLL4CLKFreq>
341853ee:	e7e6      	b.n	341853be <RCCEx_GetOTGPHYCLKFreq+0x76>
341853f0:	f7ff fd8a 	bl	34184f08 <HAL_RCCEx_GetPLL2CLKFreq>
341853f4:	e7e3      	b.n	341853be <RCCEx_GetOTGPHYCLKFreq+0x76>
341853f6:	f7ff fdc7 	bl	34184f88 <HAL_RCCEx_GetPLL3CLKFreq>
341853fa:	e7e0      	b.n	341853be <RCCEx_GetOTGPHYCLKFreq+0x76>
341853fc:	03020c14 	.word	0x03020c14
34185400:	03011414 	.word	0x03011414
34185404:	03030c14 	.word	0x03030c14
34185408:	56028000 	.word	0x56028000
3418540c:	00b71b00 	.word	0x00b71b00
34185410:	016e3600 	.word	0x016e3600

34185414 <RCCEx_GetOTGPHYCKREFCLKFreq>:
34185414:	b508      	push	{r3, lr}
34185416:	f7fd fff7 	bl	34183408 <LL_RCC_GetClockSource>
3418541a:	4b10      	ldr	r3, [pc, #64]	@ (3418545c <RCCEx_GetOTGPHYCKREFCLKFreq+0x48>)
3418541c:	4298      	cmp	r0, r3
3418541e:	d019      	beq.n	34185454 <RCCEx_GetOTGPHYCKREFCLKFreq+0x40>
34185420:	d805      	bhi.n	3418542e <RCCEx_GetOTGPHYCKREFCLKFreq+0x1a>
34185422:	f5a3 6300 	sub.w	r3, r3, #2048	@ 0x800
34185426:	4298      	cmp	r0, r3
34185428:	d00f      	beq.n	3418544a <RCCEx_GetOTGPHYCKREFCLKFreq+0x36>
3418542a:	2000      	movs	r0, #0
3418542c:	bd08      	pop	{r3, pc}
3418542e:	4b0c      	ldr	r3, [pc, #48]	@ (34185460 <RCCEx_GetOTGPHYCKREFCLKFreq+0x4c>)
34185430:	f420 6000 	bic.w	r0, r0, #2048	@ 0x800
34185434:	4298      	cmp	r0, r3
34185436:	d1f8      	bne.n	3418542a <RCCEx_GetOTGPHYCKREFCLKFreq+0x16>
34185438:	f7fd ffb4 	bl	341833a4 <LL_RCC_HSE_IsReady>
3418543c:	2800      	cmp	r0, #0
3418543e:	d0f4      	beq.n	3418542a <RCCEx_GetOTGPHYCKREFCLKFreq+0x16>
34185440:	f7fd ffa8 	bl	34183394 <LL_RCC_HSE_IsSelectedHSEDiv2AsDiv2Clock>
34185444:	b940      	cbnz	r0, 34185458 <RCCEx_GetOTGPHYCKREFCLKFreq+0x44>
34185446:	4807      	ldr	r0, [pc, #28]	@ (34185464 <RCCEx_GetOTGPHYCKREFCLKFreq+0x50>)
34185448:	e7f0      	b.n	3418542c <RCCEx_GetOTGPHYCKREFCLKFreq+0x18>
3418544a:	4807      	ldr	r0, [pc, #28]	@ (34185468 <RCCEx_GetOTGPHYCKREFCLKFreq+0x54>)
3418544c:	e8bd 4008 	ldmia.w	sp!, {r3, lr}
34185450:	f7ff bf7a 	b.w	34185348 <RCCEx_GetOTGPHYCLKFreq>
34185454:	4805      	ldr	r0, [pc, #20]	@ (3418546c <RCCEx_GetOTGPHYCKREFCLKFreq+0x58>)
34185456:	e7f9      	b.n	3418544c <RCCEx_GetOTGPHYCKREFCLKFreq+0x38>
34185458:	4805      	ldr	r0, [pc, #20]	@ (34185470 <RCCEx_GetOTGPHYCKREFCLKFreq+0x5c>)
3418545a:	e7e7      	b.n	3418542c <RCCEx_GetOTGPHYCKREFCLKFreq+0x18>
3418545c:	01001814 	.word	0x01001814
34185460:	01011014 	.word	0x01011014
34185464:	016e3600 	.word	0x016e3600
34185468:	03000c14 	.word	0x03000c14
3418546c:	03001414 	.word	0x03001414
34185470:	00b71b00 	.word	0x00b71b00

34185474 <RCCEx_GetUSARTCLKFreq>:
34185474:	b510      	push	{r4, lr}
34185476:	f7fd ffc7 	bl	34183408 <LL_RCC_GetClockSource>
3418547a:	4b6d      	ldr	r3, [pc, #436]	@ (34185630 <RCCEx_GetUSARTCLKFreq+0x1bc>)
3418547c:	4298      	cmp	r0, r3
3418547e:	d039      	beq.n	341854f4 <RCCEx_GetUSARTCLKFreq+0x80>
34185480:	d851      	bhi.n	34185526 <RCCEx_GetUSARTCLKFreq+0xb2>
34185482:	f5a3 3300 	sub.w	r3, r3, #131072	@ 0x20000
34185486:	4298      	cmp	r0, r3
34185488:	f000 80b1 	beq.w	341855ee <RCCEx_GetUSARTCLKFreq+0x17a>
3418548c:	d813      	bhi.n	341854b6 <RCCEx_GetUSARTCLKFreq+0x42>
3418548e:	f6a3 73fc 	subw	r3, r3, #4092	@ 0xffc
34185492:	4298      	cmp	r0, r3
34185494:	f000 80ab 	beq.w	341855ee <RCCEx_GetUSARTCLKFreq+0x17a>
34185498:	d80b      	bhi.n	341854b2 <RCCEx_GetUSARTCLKFreq+0x3e>
3418549a:	f2a3 4304 	subw	r3, r3, #1028	@ 0x404
3418549e:	4298      	cmp	r0, r3
341854a0:	f000 80a5 	beq.w	341855ee <RCCEx_GetUSARTCLKFreq+0x17a>
341854a4:	f503 6380 	add.w	r3, r3, #1024	@ 0x400
341854a8:	4298      	cmp	r0, r3
341854aa:	f000 80aa 	beq.w	34185602 <RCCEx_GetUSARTCLKFreq+0x18e>
341854ae:	2000      	movs	r0, #0
341854b0:	bd10      	pop	{r4, pc}
341854b2:	4b60      	ldr	r3, [pc, #384]	@ (34185634 <RCCEx_GetUSARTCLKFreq+0x1c0>)
341854b4:	e7f8      	b.n	341854a8 <RCCEx_GetUSARTCLKFreq+0x34>
341854b6:	4b60      	ldr	r3, [pc, #384]	@ (34185638 <RCCEx_GetUSARTCLKFreq+0x1c4>)
341854b8:	4298      	cmp	r0, r3
341854ba:	d00c      	beq.n	341854d6 <RCCEx_GetUSARTCLKFreq+0x62>
341854bc:	d80f      	bhi.n	341854de <RCCEx_GetUSARTCLKFreq+0x6a>
341854be:	f6a3 73fc 	subw	r3, r3, #4092	@ 0xffc
341854c2:	4298      	cmp	r0, r3
341854c4:	d007      	beq.n	341854d6 <RCCEx_GetUSARTCLKFreq+0x62>
341854c6:	bf8e      	itee	hi
341854c8:	4b5c      	ldrhi	r3, [pc, #368]	@ (3418563c <RCCEx_GetUSARTCLKFreq+0x1c8>)
341854ca:	f420 6080 	bicls.w	r0, r0, #1024	@ 0x400
341854ce:	f2a3 4304 	subwls	r3, r3, #1028	@ 0x404
341854d2:	4298      	cmp	r0, r3
341854d4:	d1eb      	bne.n	341854ae <RCCEx_GetUSARTCLKFreq+0x3a>
341854d6:	e8bd 4010 	ldmia.w	sp!, {r4, lr}
341854da:	f7ff bdd5 	b.w	34185088 <RCCEx_GetCLKPCLKFreq.constprop.0>
341854de:	4b58      	ldr	r3, [pc, #352]	@ (34185640 <RCCEx_GetUSARTCLKFreq+0x1cc>)
341854e0:	4298      	cmp	r0, r3
341854e2:	d007      	beq.n	341854f4 <RCCEx_GetUSARTCLKFreq+0x80>
341854e4:	bf8e      	itee	hi
341854e6:	4b57      	ldrhi	r3, [pc, #348]	@ (34185644 <RCCEx_GetUSARTCLKFreq+0x1d0>)
341854e8:	f420 6080 	bicls.w	r0, r0, #1024	@ 0x400
341854ec:	f2a3 4304 	subwls	r3, r3, #1028	@ 0x404
341854f0:	4298      	cmp	r0, r3
341854f2:	d1dc      	bne.n	341854ae <RCCEx_GetUSARTCLKFreq+0x3a>
341854f4:	f7fd ffba 	bl	3418346c <LL_RCC_IC9_IsEnabled>
341854f8:	2800      	cmp	r0, #0
341854fa:	d0d8      	beq.n	341854ae <RCCEx_GetUSARTCLKFreq+0x3a>
341854fc:	f7fd ffbe 	bl	3418347c <LL_RCC_IC9_GetDivider>
34185500:	4604      	mov	r4, r0
34185502:	4b51      	ldr	r3, [pc, #324]	@ (34185648 <RCCEx_GetUSARTCLKFreq+0x1d4>)
34185504:	f8d3 30e4 	ldr.w	r3, [r3, #228]	@ 0xe4
34185508:	f003 5340 	and.w	r3, r3, #805306368	@ 0x30000000
3418550c:	f1b3 5f00 	cmp.w	r3, #536870912	@ 0x20000000
34185510:	f000 808a 	beq.w	34185628 <RCCEx_GetUSARTCLKFreq+0x1b4>
34185514:	d87e      	bhi.n	34185614 <RCCEx_GetUSARTCLKFreq+0x1a0>
34185516:	2b00      	cmp	r3, #0
34185518:	f040 8083 	bne.w	34185622 <RCCEx_GetUSARTCLKFreq+0x1ae>
3418551c:	f7ff fcb4 	bl	34184e88 <HAL_RCCEx_GetPLL1CLKFreq>
34185520:	fbb0 f0f4 	udiv	r0, r0, r4
34185524:	e7c4      	b.n	341854b0 <RCCEx_GetUSARTCLKFreq+0x3c>
34185526:	4b49      	ldr	r3, [pc, #292]	@ (3418564c <RCCEx_GetUSARTCLKFreq+0x1d8>)
34185528:	4298      	cmp	r0, r3
3418552a:	d042      	beq.n	341855b2 <RCCEx_GetUSARTCLKFreq+0x13e>
3418552c:	d830      	bhi.n	34185590 <RCCEx_GetUSARTCLKFreq+0x11c>
3418552e:	f5a3 3380 	sub.w	r3, r3, #65536	@ 0x10000
34185532:	4298      	cmp	r0, r3
34185534:	d028      	beq.n	34185588 <RCCEx_GetUSARTCLKFreq+0x114>
34185536:	d81c      	bhi.n	34185572 <RCCEx_GetUSARTCLKFreq+0xfe>
34185538:	f5a3 437b 	sub.w	r3, r3, #64256	@ 0xfb00
3418553c:	3bfc      	subs	r3, #252	@ 0xfc
3418553e:	4298      	cmp	r0, r3
34185540:	d006      	beq.n	34185550 <RCCEx_GetUSARTCLKFreq+0xdc>
34185542:	d810      	bhi.n	34185566 <RCCEx_GetUSARTCLKFreq+0xf2>
34185544:	f420 6080 	bic.w	r0, r0, #1024	@ 0x400
34185548:	f2a3 4304 	subw	r3, r3, #1028	@ 0x404
3418554c:	4298      	cmp	r0, r3
3418554e:	d1ae      	bne.n	341854ae <RCCEx_GetUSARTCLKFreq+0x3a>
34185550:	f7fd ff9e 	bl	34183490 <LL_RCC_IC14_IsEnabled>
34185554:	2800      	cmp	r0, #0
34185556:	d0aa      	beq.n	341854ae <RCCEx_GetUSARTCLKFreq+0x3a>
34185558:	f7fd ffa2 	bl	341834a0 <LL_RCC_IC14_GetDivider>
3418555c:	4b3a      	ldr	r3, [pc, #232]	@ (34185648 <RCCEx_GetUSARTCLKFreq+0x1d4>)
3418555e:	4604      	mov	r4, r0
34185560:	f8d3 30f8 	ldr.w	r3, [r3, #248]	@ 0xf8
34185564:	e7d0      	b.n	34185508 <RCCEx_GetUSARTCLKFreq+0x94>
34185566:	4b3a      	ldr	r3, [pc, #232]	@ (34185650 <RCCEx_GetUSARTCLKFreq+0x1dc>)
34185568:	4298      	cmp	r0, r3
3418556a:	d0f1      	beq.n	34185550 <RCCEx_GetUSARTCLKFreq+0xdc>
3418556c:	f503 6340 	add.w	r3, r3, #3072	@ 0xc00
34185570:	e7ec      	b.n	3418554c <RCCEx_GetUSARTCLKFreq+0xd8>
34185572:	4b38      	ldr	r3, [pc, #224]	@ (34185654 <RCCEx_GetUSARTCLKFreq+0x1e0>)
34185574:	4298      	cmp	r0, r3
34185576:	d007      	beq.n	34185588 <RCCEx_GetUSARTCLKFreq+0x114>
34185578:	bf8e      	itee	hi
3418557a:	4b37      	ldrhi	r3, [pc, #220]	@ (34185658 <RCCEx_GetUSARTCLKFreq+0x1e4>)
3418557c:	f020 0004 	bicls.w	r0, r0, #4
34185580:	f5a3 6380 	subls.w	r3, r3, #1024	@ 0x400
34185584:	4298      	cmp	r0, r3
34185586:	d192      	bne.n	341854ae <RCCEx_GetUSARTCLKFreq+0x3a>
34185588:	f7fd ff24 	bl	341833d4 <LL_RCC_LSE_IsReady>
3418558c:	03c0      	lsls	r0, r0, #15
3418558e:	e78f      	b.n	341854b0 <RCCEx_GetUSARTCLKFreq+0x3c>
34185590:	4b32      	ldr	r3, [pc, #200]	@ (3418565c <RCCEx_GetUSARTCLKFreq+0x1e8>)
34185592:	4298      	cmp	r0, r3
34185594:	d020      	beq.n	341855d8 <RCCEx_GetUSARTCLKFreq+0x164>
34185596:	d813      	bhi.n	341855c0 <RCCEx_GetUSARTCLKFreq+0x14c>
34185598:	f5a3 4378 	sub.w	r3, r3, #63488	@ 0xf800
3418559c:	4298      	cmp	r0, r3
3418559e:	d008      	beq.n	341855b2 <RCCEx_GetUSARTCLKFreq+0x13e>
341855a0:	bf8e      	itee	hi
341855a2:	4b2f      	ldrhi	r3, [pc, #188]	@ (34185660 <RCCEx_GetUSARTCLKFreq+0x1ec>)
341855a4:	f020 0004 	bicls.w	r0, r0, #4
341855a8:	f5a3 6380 	subls.w	r3, r3, #1024	@ 0x400
341855ac:	4298      	cmp	r0, r3
341855ae:	f47f af7e 	bne.w	341854ae <RCCEx_GetUSARTCLKFreq+0x3a>
341855b2:	f7fd ff07 	bl	341833c4 <LL_RCC_MSI_IsReady>
341855b6:	2800      	cmp	r0, #0
341855b8:	f43f af79 	beq.w	341854ae <RCCEx_GetUSARTCLKFreq+0x3a>
341855bc:	4829      	ldr	r0, [pc, #164]	@ (34185664 <RCCEx_GetUSARTCLKFreq+0x1f0>)
341855be:	e777      	b.n	341854b0 <RCCEx_GetUSARTCLKFreq+0x3c>
341855c0:	4b29      	ldr	r3, [pc, #164]	@ (34185668 <RCCEx_GetUSARTCLKFreq+0x1f4>)
341855c2:	4298      	cmp	r0, r3
341855c4:	d008      	beq.n	341855d8 <RCCEx_GetUSARTCLKFreq+0x164>
341855c6:	bf8e      	itee	hi
341855c8:	4b28      	ldrhi	r3, [pc, #160]	@ (3418566c <RCCEx_GetUSARTCLKFreq+0x1f8>)
341855ca:	f020 0004 	bicls.w	r0, r0, #4
341855ce:	f5a3 6380 	subls.w	r3, r3, #1024	@ 0x400
341855d2:	4298      	cmp	r0, r3
341855d4:	f47f af6b 	bne.w	341854ae <RCCEx_GetUSARTCLKFreq+0x3a>
341855d8:	f7fd feec 	bl	341833b4 <LL_RCC_HSI_IsReady>
341855dc:	2800      	cmp	r0, #0
341855de:	f43f af66 	beq.w	341854ae <RCCEx_GetUSARTCLKFreq+0x3a>
341855e2:	4b19      	ldr	r3, [pc, #100]	@ (34185648 <RCCEx_GetUSARTCLKFreq+0x1d4>)
341855e4:	4822      	ldr	r0, [pc, #136]	@ (34185670 <RCCEx_GetUSARTCLKFreq+0x1fc>)
341855e6:	6c9b      	ldr	r3, [r3, #72]	@ 0x48
341855e8:	f3c3 13c1 	ubfx	r3, r3, #7, #2
341855ec:	e007      	b.n	341855fe <RCCEx_GetUSARTCLKFreq+0x18a>
341855ee:	f7fd fe71 	bl	341832d4 <HAL_RCC_GetSysClockFreq>
341855f2:	f7fd ff71 	bl	341834d8 <RCCEx_GetHCLKFreq>
341855f6:	4b14      	ldr	r3, [pc, #80]	@ (34185648 <RCCEx_GetUSARTCLKFreq+0x1d4>)
341855f8:	6a5b      	ldr	r3, [r3, #36]	@ 0x24
341855fa:	f3c3 1302 	ubfx	r3, r3, #4, #3
341855fe:	40d8      	lsrs	r0, r3
34185600:	e756      	b.n	341854b0 <RCCEx_GetUSARTCLKFreq+0x3c>
34185602:	f7fd fe67 	bl	341832d4 <HAL_RCC_GetSysClockFreq>
34185606:	f7fd ff67 	bl	341834d8 <RCCEx_GetHCLKFreq>
3418560a:	4b0f      	ldr	r3, [pc, #60]	@ (34185648 <RCCEx_GetUSARTCLKFreq+0x1d4>)
3418560c:	6a5b      	ldr	r3, [r3, #36]	@ 0x24
3418560e:	f003 0307 	and.w	r3, r3, #7
34185612:	e7f4      	b.n	341855fe <RCCEx_GetUSARTCLKFreq+0x18a>
34185614:	f1b3 5f40 	cmp.w	r3, #805306368	@ 0x30000000
34185618:	f47f af49 	bne.w	341854ae <RCCEx_GetUSARTCLKFreq+0x3a>
3418561c:	f7ff fcf4 	bl	34185008 <HAL_RCCEx_GetPLL4CLKFreq>
34185620:	e77e      	b.n	34185520 <RCCEx_GetUSARTCLKFreq+0xac>
34185622:	f7ff fc71 	bl	34184f08 <HAL_RCCEx_GetPLL2CLKFreq>
34185626:	e77b      	b.n	34185520 <RCCEx_GetUSARTCLKFreq+0xac>
34185628:	f7ff fcae 	bl	34184f88 <HAL_RCCEx_GetPLL3CLKFreq>
3418562c:	e778      	b.n	34185520 <RCCEx_GetUSARTCLKFreq+0xac>
3418562e:	bf00      	nop
34185630:	07021430 	.word	0x07021430
34185634:	07000830 	.word	0x07000830
34185638:	07011430 	.word	0x07011430
3418563c:	07010830 	.word	0x07010830
34185640:	07020434 	.word	0x07020434
34185644:	07020830 	.word	0x07020830
34185648:	56028000 	.word	0x56028000
3418564c:	07050030 	.word	0x07050030
34185650:	07030830 	.word	0x07030830
34185654:	07040830 	.word	0x07040830
34185658:	07041430 	.word	0x07041430
3418565c:	07060030 	.word	0x07060030
34185660:	07051430 	.word	0x07051430
34185664:	003d0900 	.word	0x003d0900
34185668:	07060830 	.word	0x07060830
3418566c:	07061430 	.word	0x07061430
34185670:	03d09000 	.word	0x03d09000

34185674 <RCCEx_GetUARTCLKFreq>:
34185674:	b510      	push	{r4, lr}
34185676:	f7fd fec7 	bl	34183408 <LL_RCC_GetClockSource>
3418567a:	4b76      	ldr	r3, [pc, #472]	@ (34185854 <RCCEx_GetUARTCLKFreq+0x1e0>)
3418567c:	4298      	cmp	r0, r3
3418567e:	d03e      	beq.n	341856fe <RCCEx_GetUARTCLKFreq+0x8a>
34185680:	d859      	bhi.n	34185736 <RCCEx_GetUARTCLKFreq+0xc2>
34185682:	f5a3 3300 	sub.w	r3, r3, #131072	@ 0x20000
34185686:	4298      	cmp	r0, r3
34185688:	f000 80c3 	beq.w	34185812 <RCCEx_GetUARTCLKFreq+0x19e>
3418568c:	d814      	bhi.n	341856b8 <RCCEx_GetUARTCLKFreq+0x44>
3418568e:	4b72      	ldr	r3, [pc, #456]	@ (34185858 <RCCEx_GetUARTCLKFreq+0x1e4>)
34185690:	4298      	cmp	r0, r3
34185692:	f000 80c8 	beq.w	34185826 <RCCEx_GetUARTCLKFreq+0x1b2>
34185696:	3b01      	subs	r3, #1
34185698:	4298      	cmp	r0, r3
3418569a:	d90b      	bls.n	341856b4 <RCCEx_GetUARTCLKFreq+0x40>
3418569c:	f420 6200 	bic.w	r2, r0, #2048	@ 0x800
341856a0:	f603 73fd 	addw	r3, r3, #4093	@ 0xffd
341856a4:	429a      	cmp	r2, r3
341856a6:	f000 80b4 	beq.w	34185812 <RCCEx_GetUARTCLKFreq+0x19e>
341856aa:	f5a3 6380 	sub.w	r3, r3, #1024	@ 0x400
341856ae:	4298      	cmp	r0, r3
341856b0:	f000 80af 	beq.w	34185812 <RCCEx_GetUARTCLKFreq+0x19e>
341856b4:	2000      	movs	r0, #0
341856b6:	bd10      	pop	{r4, pc}
341856b8:	4b68      	ldr	r3, [pc, #416]	@ (3418585c <RCCEx_GetUARTCLKFreq+0x1e8>)
341856ba:	4298      	cmp	r0, r3
341856bc:	d00d      	beq.n	341856da <RCCEx_GetUARTCLKFreq+0x66>
341856be:	d812      	bhi.n	341856e6 <RCCEx_GetUARTCLKFreq+0x72>
341856c0:	f5a3 6340 	sub.w	r3, r3, #3072	@ 0xc00
341856c4:	4298      	cmp	r0, r3
341856c6:	d008      	beq.n	341856da <RCCEx_GetUARTCLKFreq+0x66>
341856c8:	d80b      	bhi.n	341856e2 <RCCEx_GetUARTCLKFreq+0x6e>
341856ca:	f6a3 73fc 	subw	r3, r3, #4092	@ 0xffc
341856ce:	4298      	cmp	r0, r3
341856d0:	d003      	beq.n	341856da <RCCEx_GetUARTCLKFreq+0x66>
341856d2:	f603 33fc 	addw	r3, r3, #3068	@ 0xbfc
341856d6:	4298      	cmp	r0, r3
341856d8:	d1ec      	bne.n	341856b4 <RCCEx_GetUARTCLKFreq+0x40>
341856da:	e8bd 4010 	ldmia.w	sp!, {r4, lr}
341856de:	f7ff bcd3 	b.w	34185088 <RCCEx_GetCLKPCLKFreq.constprop.0>
341856e2:	4b5f      	ldr	r3, [pc, #380]	@ (34185860 <RCCEx_GetUARTCLKFreq+0x1ec>)
341856e4:	e7f7      	b.n	341856d6 <RCCEx_GetUARTCLKFreq+0x62>
341856e6:	4b5f      	ldr	r3, [pc, #380]	@ (34185864 <RCCEx_GetUARTCLKFreq+0x1f0>)
341856e8:	4298      	cmp	r0, r3
341856ea:	d008      	beq.n	341856fe <RCCEx_GetUARTCLKFreq+0x8a>
341856ec:	d821      	bhi.n	34185732 <RCCEx_GetUARTCLKFreq+0xbe>
341856ee:	f6a3 73fc 	subw	r3, r3, #4092	@ 0xffc
341856f2:	4298      	cmp	r0, r3
341856f4:	d003      	beq.n	341856fe <RCCEx_GetUARTCLKFreq+0x8a>
341856f6:	f603 33fc 	addw	r3, r3, #3068	@ 0xbfc
341856fa:	4298      	cmp	r0, r3
341856fc:	d1da      	bne.n	341856b4 <RCCEx_GetUARTCLKFreq+0x40>
341856fe:	f7fd feb5 	bl	3418346c <LL_RCC_IC9_IsEnabled>
34185702:	2800      	cmp	r0, #0
34185704:	d0d6      	beq.n	341856b4 <RCCEx_GetUARTCLKFreq+0x40>
34185706:	f7fd feb9 	bl	3418347c <LL_RCC_IC9_GetDivider>
3418570a:	4604      	mov	r4, r0
3418570c:	4b56      	ldr	r3, [pc, #344]	@ (34185868 <RCCEx_GetUARTCLKFreq+0x1f4>)
3418570e:	f8d3 30e4 	ldr.w	r3, [r3, #228]	@ 0xe4
34185712:	f003 5340 	and.w	r3, r3, #805306368	@ 0x30000000
34185716:	f1b3 5f00 	cmp.w	r3, #536870912	@ 0x20000000
3418571a:	f000 8097 	beq.w	3418584c <RCCEx_GetUARTCLKFreq+0x1d8>
3418571e:	f200 808b 	bhi.w	34185838 <RCCEx_GetUARTCLKFreq+0x1c4>
34185722:	2b00      	cmp	r3, #0
34185724:	f040 808f 	bne.w	34185846 <RCCEx_GetUARTCLKFreq+0x1d2>
34185728:	f7ff fbae 	bl	34184e88 <HAL_RCCEx_GetPLL1CLKFreq>
3418572c:	fbb0 f0f4 	udiv	r0, r0, r4
34185730:	e7c1      	b.n	341856b6 <RCCEx_GetUARTCLKFreq+0x42>
34185732:	4b4e      	ldr	r3, [pc, #312]	@ (3418586c <RCCEx_GetUARTCLKFreq+0x1f8>)
34185734:	e7e1      	b.n	341856fa <RCCEx_GetUARTCLKFreq+0x86>
34185736:	4b4e      	ldr	r3, [pc, #312]	@ (34185870 <RCCEx_GetUARTCLKFreq+0x1fc>)
34185738:	4298      	cmp	r0, r3
3418573a:	d047      	beq.n	341857cc <RCCEx_GetUARTCLKFreq+0x158>
3418573c:	d833      	bhi.n	341857a6 <RCCEx_GetUARTCLKFreq+0x132>
3418573e:	f5a3 3380 	sub.w	r3, r3, #65536	@ 0x10000
34185742:	4298      	cmp	r0, r3
34185744:	d029      	beq.n	3418579a <RCCEx_GetUARTCLKFreq+0x126>
34185746:	d81c      	bhi.n	34185782 <RCCEx_GetUARTCLKFreq+0x10e>
34185748:	f5a3 4370 	sub.w	r3, r3, #61440	@ 0xf000
3418574c:	3b04      	subs	r3, #4
3418574e:	4298      	cmp	r0, r3
34185750:	d008      	beq.n	34185764 <RCCEx_GetUARTCLKFreq+0xf0>
34185752:	d812      	bhi.n	3418577a <RCCEx_GetUARTCLKFreq+0x106>
34185754:	f6a3 73fc 	subw	r3, r3, #4092	@ 0xffc
34185758:	4298      	cmp	r0, r3
3418575a:	d003      	beq.n	34185764 <RCCEx_GetUARTCLKFreq+0xf0>
3418575c:	f603 33fc 	addw	r3, r3, #3068	@ 0xbfc
34185760:	4298      	cmp	r0, r3
34185762:	d1a7      	bne.n	341856b4 <RCCEx_GetUARTCLKFreq+0x40>
34185764:	f7fd fe94 	bl	34183490 <LL_RCC_IC14_IsEnabled>
34185768:	2800      	cmp	r0, #0
3418576a:	d0a3      	beq.n	341856b4 <RCCEx_GetUARTCLKFreq+0x40>
3418576c:	f7fd fe98 	bl	341834a0 <LL_RCC_IC14_GetDivider>
34185770:	4b3d      	ldr	r3, [pc, #244]	@ (34185868 <RCCEx_GetUARTCLKFreq+0x1f4>)
34185772:	4604      	mov	r4, r0
34185774:	f8d3 30f8 	ldr.w	r3, [r3, #248]	@ 0xf8
34185778:	e7cb      	b.n	34185712 <RCCEx_GetUARTCLKFreq+0x9e>
3418577a:	4b3e      	ldr	r3, [pc, #248]	@ (34185874 <RCCEx_GetUARTCLKFreq+0x200>)
3418577c:	f420 6080 	bic.w	r0, r0, #1024	@ 0x400
34185780:	e7ee      	b.n	34185760 <RCCEx_GetUARTCLKFreq+0xec>
34185782:	4b3d      	ldr	r3, [pc, #244]	@ (34185878 <RCCEx_GetUARTCLKFreq+0x204>)
34185784:	4298      	cmp	r0, r3
34185786:	d008      	beq.n	3418579a <RCCEx_GetUARTCLKFreq+0x126>
34185788:	d80b      	bhi.n	341857a2 <RCCEx_GetUARTCLKFreq+0x12e>
3418578a:	f5a3 6340 	sub.w	r3, r3, #3072	@ 0xc00
3418578e:	4298      	cmp	r0, r3
34185790:	d003      	beq.n	3418579a <RCCEx_GetUARTCLKFreq+0x126>
34185792:	f503 6380 	add.w	r3, r3, #1024	@ 0x400
34185796:	4298      	cmp	r0, r3
34185798:	d18c      	bne.n	341856b4 <RCCEx_GetUARTCLKFreq+0x40>
3418579a:	f7fd fe1b 	bl	341833d4 <LL_RCC_LSE_IsReady>
3418579e:	03c0      	lsls	r0, r0, #15
341857a0:	e789      	b.n	341856b6 <RCCEx_GetUARTCLKFreq+0x42>
341857a2:	4b36      	ldr	r3, [pc, #216]	@ (3418587c <RCCEx_GetUARTCLKFreq+0x208>)
341857a4:	e7f7      	b.n	34185796 <RCCEx_GetUARTCLKFreq+0x122>
341857a6:	4b36      	ldr	r3, [pc, #216]	@ (34185880 <RCCEx_GetUARTCLKFreq+0x20c>)
341857a8:	4298      	cmp	r0, r3
341857aa:	d025      	beq.n	341857f8 <RCCEx_GetUARTCLKFreq+0x184>
341857ac:	d817      	bhi.n	341857de <RCCEx_GetUARTCLKFreq+0x16a>
341857ae:	f5a3 4368 	sub.w	r3, r3, #59392	@ 0xe800
341857b2:	3b04      	subs	r3, #4
341857b4:	4298      	cmp	r0, r3
341857b6:	d009      	beq.n	341857cc <RCCEx_GetUARTCLKFreq+0x158>
341857b8:	d80f      	bhi.n	341857da <RCCEx_GetUARTCLKFreq+0x166>
341857ba:	f5a3 6340 	sub.w	r3, r3, #3072	@ 0xc00
341857be:	4298      	cmp	r0, r3
341857c0:	d004      	beq.n	341857cc <RCCEx_GetUARTCLKFreq+0x158>
341857c2:	f503 6380 	add.w	r3, r3, #1024	@ 0x400
341857c6:	4298      	cmp	r0, r3
341857c8:	f47f af74 	bne.w	341856b4 <RCCEx_GetUARTCLKFreq+0x40>
341857cc:	f7fd fdfa 	bl	341833c4 <LL_RCC_MSI_IsReady>
341857d0:	2800      	cmp	r0, #0
341857d2:	f43f af6f 	beq.w	341856b4 <RCCEx_GetUARTCLKFreq+0x40>
341857d6:	482b      	ldr	r0, [pc, #172]	@ (34185884 <RCCEx_GetUARTCLKFreq+0x210>)
341857d8:	e76d      	b.n	341856b6 <RCCEx_GetUARTCLKFreq+0x42>
341857da:	4b2b      	ldr	r3, [pc, #172]	@ (34185888 <RCCEx_GetUARTCLKFreq+0x214>)
341857dc:	e7f3      	b.n	341857c6 <RCCEx_GetUARTCLKFreq+0x152>
341857de:	4b2b      	ldr	r3, [pc, #172]	@ (3418588c <RCCEx_GetUARTCLKFreq+0x218>)
341857e0:	4298      	cmp	r0, r3
341857e2:	d009      	beq.n	341857f8 <RCCEx_GetUARTCLKFreq+0x184>
341857e4:	d813      	bhi.n	3418580e <RCCEx_GetUARTCLKFreq+0x19a>
341857e6:	f5a3 6340 	sub.w	r3, r3, #3072	@ 0xc00
341857ea:	4298      	cmp	r0, r3
341857ec:	d004      	beq.n	341857f8 <RCCEx_GetUARTCLKFreq+0x184>
341857ee:	f503 6380 	add.w	r3, r3, #1024	@ 0x400
341857f2:	4298      	cmp	r0, r3
341857f4:	f47f af5e 	bne.w	341856b4 <RCCEx_GetUARTCLKFreq+0x40>
341857f8:	f7fd fddc 	bl	341833b4 <LL_RCC_HSI_IsReady>
341857fc:	2800      	cmp	r0, #0
341857fe:	f43f af59 	beq.w	341856b4 <RCCEx_GetUARTCLKFreq+0x40>
34185802:	4b19      	ldr	r3, [pc, #100]	@ (34185868 <RCCEx_GetUARTCLKFreq+0x1f4>)
34185804:	4822      	ldr	r0, [pc, #136]	@ (34185890 <RCCEx_GetUARTCLKFreq+0x21c>)
34185806:	6c9b      	ldr	r3, [r3, #72]	@ 0x48
34185808:	f3c3 13c1 	ubfx	r3, r3, #7, #2
3418580c:	e009      	b.n	34185822 <RCCEx_GetUARTCLKFreq+0x1ae>
3418580e:	4b21      	ldr	r3, [pc, #132]	@ (34185894 <RCCEx_GetUARTCLKFreq+0x220>)
34185810:	e7ef      	b.n	341857f2 <RCCEx_GetUARTCLKFreq+0x17e>
34185812:	f7fd fd5f 	bl	341832d4 <HAL_RCC_GetSysClockFreq>
34185816:	f7fd fe5f 	bl	341834d8 <RCCEx_GetHCLKFreq>
3418581a:	4b13      	ldr	r3, [pc, #76]	@ (34185868 <RCCEx_GetUARTCLKFreq+0x1f4>)
3418581c:	6a5b      	ldr	r3, [r3, #36]	@ 0x24
3418581e:	f003 0307 	and.w	r3, r3, #7
34185822:	40d8      	lsrs	r0, r3
34185824:	e747      	b.n	341856b6 <RCCEx_GetUARTCLKFreq+0x42>
34185826:	f7fd fd55 	bl	341832d4 <HAL_RCC_GetSysClockFreq>
3418582a:	f7fd fe55 	bl	341834d8 <RCCEx_GetHCLKFreq>
3418582e:	4b0e      	ldr	r3, [pc, #56]	@ (34185868 <RCCEx_GetUARTCLKFreq+0x1f4>)
34185830:	6a5b      	ldr	r3, [r3, #36]	@ 0x24
34185832:	f3c3 1302 	ubfx	r3, r3, #4, #3
34185836:	e7f4      	b.n	34185822 <RCCEx_GetUARTCLKFreq+0x1ae>
34185838:	f1b3 5f40 	cmp.w	r3, #805306368	@ 0x30000000
3418583c:	f47f af3a 	bne.w	341856b4 <RCCEx_GetUARTCLKFreq+0x40>
34185840:	f7ff fbe2 	bl	34185008 <HAL_RCCEx_GetPLL4CLKFreq>
34185844:	e772      	b.n	3418572c <RCCEx_GetUARTCLKFreq+0xb8>
34185846:	f7ff fb5f 	bl	34184f08 <HAL_RCCEx_GetPLL2CLKFreq>
3418584a:	e76f      	b.n	3418572c <RCCEx_GetUARTCLKFreq+0xb8>
3418584c:	f7ff fb9c 	bl	34184f88 <HAL_RCCEx_GetPLL3CLKFreq>
34185850:	e76c      	b.n	3418572c <RCCEx_GetUARTCLKFreq+0xb8>
34185852:	bf00      	nop
34185854:	07021c30 	.word	0x07021c30
34185858:	07000034 	.word	0x07000034
3418585c:	07011c30 	.word	0x07011c30
34185860:	07011830 	.word	0x07011830
34185864:	07021030 	.word	0x07021030
34185868:	56028000 	.word	0x56028000
3418586c:	07021830 	.word	0x07021830
34185870:	07050034 	.word	0x07050034
34185874:	07031830 	.word	0x07031830
34185878:	07041830 	.word	0x07041830
3418587c:	07041c30 	.word	0x07041c30
34185880:	07060034 	.word	0x07060034
34185884:	003d0900 	.word	0x003d0900
34185888:	07051c30 	.word	0x07051c30
3418588c:	07061830 	.word	0x07061830
34185890:	03d09000 	.word	0x03d09000
34185894:	07061c30 	.word	0x07061c30

34185898 <RCCEx_GetSPICLKFreq>:
34185898:	b510      	push	{r4, lr}
3418589a:	f7fd fdb5 	bl	34183408 <LL_RCC_GetClockSource>
3418589e:	4b89      	ldr	r3, [pc, #548]	@ (34185ac4 <RCCEx_GetSPICLKFreq+0x22c>)
341858a0:	4298      	cmp	r0, r3
341858a2:	d055      	beq.n	34185950 <RCCEx_GetSPICLKFreq+0xb8>
341858a4:	d865      	bhi.n	34185972 <RCCEx_GetSPICLKFreq+0xda>
341858a6:	f5a3 333c 	sub.w	r3, r3, #192512	@ 0x2f000
341858aa:	4298      	cmp	r0, r3
341858ac:	f000 80ca 	beq.w	34185a44 <RCCEx_GetSPICLKFreq+0x1ac>
341858b0:	d81e      	bhi.n	341858f0 <RCCEx_GetSPICLKFreq+0x58>
341858b2:	f5a3 6340 	sub.w	r3, r3, #3072	@ 0xc00
341858b6:	4298      	cmp	r0, r3
341858b8:	f000 80ba 	beq.w	34185a30 <RCCEx_GetSPICLKFreq+0x198>
341858bc:	d80a      	bhi.n	341858d4 <RCCEx_GetSPICLKFreq+0x3c>
341858be:	f5a3 6300 	sub.w	r3, r3, #2048	@ 0x800
341858c2:	4298      	cmp	r0, r3
341858c4:	d00b      	beq.n	341858de <RCCEx_GetSPICLKFreq+0x46>
341858c6:	f503 6380 	add.w	r3, r3, #1024	@ 0x400
341858ca:	4298      	cmp	r0, r3
341858cc:	f000 80b0 	beq.w	34185a30 <RCCEx_GetSPICLKFreq+0x198>
341858d0:	2000      	movs	r0, #0
341858d2:	bd10      	pop	{r4, pc}
341858d4:	4b7c      	ldr	r3, [pc, #496]	@ (34185ac8 <RCCEx_GetSPICLKFreq+0x230>)
341858d6:	f420 6080 	bic.w	r0, r0, #1024	@ 0x400
341858da:	4298      	cmp	r0, r3
341858dc:	d1f8      	bne.n	341858d0 <RCCEx_GetSPICLKFreq+0x38>
341858de:	f7fd fcf9 	bl	341832d4 <HAL_RCC_GetSysClockFreq>
341858e2:	f7fd fdf9 	bl	341834d8 <RCCEx_GetHCLKFreq>
341858e6:	4b79      	ldr	r3, [pc, #484]	@ (34185acc <RCCEx_GetSPICLKFreq+0x234>)
341858e8:	6a5b      	ldr	r3, [r3, #36]	@ 0x24
341858ea:	f3c3 1302 	ubfx	r3, r3, #4, #3
341858ee:	e0a7      	b.n	34185a40 <RCCEx_GetSPICLKFreq+0x1a8>
341858f0:	4b77      	ldr	r3, [pc, #476]	@ (34185ad0 <RCCEx_GetSPICLKFreq+0x238>)
341858f2:	4298      	cmp	r0, r3
341858f4:	f000 80af 	beq.w	34185a56 <RCCEx_GetSPICLKFreq+0x1be>
341858f8:	d81d      	bhi.n	34185936 <RCCEx_GetSPICLKFreq+0x9e>
341858fa:	f5a3 4378 	sub.w	r3, r3, #63488	@ 0xf800
341858fe:	4298      	cmp	r0, r3
34185900:	d00a      	beq.n	34185918 <RCCEx_GetSPICLKFreq+0x80>
34185902:	d80d      	bhi.n	34185920 <RCCEx_GetSPICLKFreq+0x88>
34185904:	f5a3 6300 	sub.w	r3, r3, #2048	@ 0x800
34185908:	4298      	cmp	r0, r3
3418590a:	d005      	beq.n	34185918 <RCCEx_GetSPICLKFreq+0x80>
3418590c:	f420 6000 	bic.w	r0, r0, #2048	@ 0x800
34185910:	f5a3 6380 	sub.w	r3, r3, #1024	@ 0x400
34185914:	4298      	cmp	r0, r3
34185916:	d1db      	bne.n	341858d0 <RCCEx_GetSPICLKFreq+0x38>
34185918:	e8bd 4010 	ldmia.w	sp!, {r4, lr}
3418591c:	f7ff bbb4 	b.w	34185088 <RCCEx_GetCLKPCLKFreq.constprop.0>
34185920:	4b6c      	ldr	r3, [pc, #432]	@ (34185ad4 <RCCEx_GetSPICLKFreq+0x23c>)
34185922:	4298      	cmp	r0, r3
34185924:	d0f8      	beq.n	34185918 <RCCEx_GetSPICLKFreq+0x80>
34185926:	f503 436c 	add.w	r3, r3, #60416	@ 0xec00
3418592a:	4298      	cmp	r0, r3
3418592c:	f000 8093 	beq.w	34185a56 <RCCEx_GetSPICLKFreq+0x1be>
34185930:	f5a3 4370 	sub.w	r3, r3, #61440	@ 0xf000
34185934:	e7ee      	b.n	34185914 <RCCEx_GetSPICLKFreq+0x7c>
34185936:	4b68      	ldr	r3, [pc, #416]	@ (34185ad8 <RCCEx_GetSPICLKFreq+0x240>)
34185938:	4298      	cmp	r0, r3
3418593a:	d009      	beq.n	34185950 <RCCEx_GetSPICLKFreq+0xb8>
3418593c:	d813      	bhi.n	34185966 <RCCEx_GetSPICLKFreq+0xce>
3418593e:	f5a3 6300 	sub.w	r3, r3, #2048	@ 0x800
34185942:	4298      	cmp	r0, r3
34185944:	f000 8087 	beq.w	34185a56 <RCCEx_GetSPICLKFreq+0x1be>
34185948:	f503 6380 	add.w	r3, r3, #1024	@ 0x400
3418594c:	4298      	cmp	r0, r3
3418594e:	d1bf      	bne.n	341858d0 <RCCEx_GetSPICLKFreq+0x38>
34185950:	f7fd fd8c 	bl	3418346c <LL_RCC_IC9_IsEnabled>
34185954:	2800      	cmp	r0, #0
34185956:	d0bb      	beq.n	341858d0 <RCCEx_GetSPICLKFreq+0x38>
34185958:	f7fd fd90 	bl	3418347c <LL_RCC_IC9_GetDivider>
3418595c:	4b5b      	ldr	r3, [pc, #364]	@ (34185acc <RCCEx_GetSPICLKFreq+0x234>)
3418595e:	4604      	mov	r4, r0
34185960:	f8d3 30e4 	ldr.w	r3, [r3, #228]	@ 0xe4
34185964:	e082      	b.n	34185a6c <RCCEx_GetSPICLKFreq+0x1d4>
34185966:	4b5d      	ldr	r3, [pc, #372]	@ (34185adc <RCCEx_GetSPICLKFreq+0x244>)
34185968:	4298      	cmp	r0, r3
3418596a:	d074      	beq.n	34185a56 <RCCEx_GetSPICLKFreq+0x1be>
3418596c:	f503 436c 	add.w	r3, r3, #60416	@ 0xec00
34185970:	e7ec      	b.n	3418594c <RCCEx_GetSPICLKFreq+0xb4>
34185972:	4b5b      	ldr	r3, [pc, #364]	@ (34185ae0 <RCCEx_GetSPICLKFreq+0x248>)
34185974:	4298      	cmp	r0, r3
34185976:	d043      	beq.n	34185a00 <RCCEx_GetSPICLKFreq+0x168>
34185978:	d830      	bhi.n	341859dc <RCCEx_GetSPICLKFreq+0x144>
3418597a:	f5a3 33fa 	sub.w	r3, r3, #128000	@ 0x1f400
3418597e:	4298      	cmp	r0, r3
34185980:	d0e6      	beq.n	34185950 <RCCEx_GetSPICLKFreq+0xb8>
34185982:	d808      	bhi.n	34185996 <RCCEx_GetSPICLKFreq+0xfe>
34185984:	f420 6280 	bic.w	r2, r0, #1024	@ 0x400
34185988:	f5a3 6300 	sub.w	r3, r3, #2048	@ 0x800
3418598c:	429a      	cmp	r2, r3
3418598e:	d079      	beq.n	34185a84 <RCCEx_GetSPICLKFreq+0x1ec>
34185990:	f5a3 6380 	sub.w	r3, r3, #1024	@ 0x400
34185994:	e7da      	b.n	3418594c <RCCEx_GetSPICLKFreq+0xb4>
34185996:	4b53      	ldr	r3, [pc, #332]	@ (34185ae4 <RCCEx_GetSPICLKFreq+0x24c>)
34185998:	4298      	cmp	r0, r3
3418599a:	d00d      	beq.n	341859b8 <RCCEx_GetSPICLKFreq+0x120>
3418599c:	d814      	bhi.n	341859c8 <RCCEx_GetSPICLKFreq+0x130>
3418599e:	f5a3 6300 	sub.w	r3, r3, #2048	@ 0x800
341859a2:	4298      	cmp	r0, r3
341859a4:	d008      	beq.n	341859b8 <RCCEx_GetSPICLKFreq+0x120>
341859a6:	d80d      	bhi.n	341859c4 <RCCEx_GetSPICLKFreq+0x12c>
341859a8:	f5a3 6300 	sub.w	r3, r3, #2048	@ 0x800
341859ac:	4298      	cmp	r0, r3
341859ae:	d003      	beq.n	341859b8 <RCCEx_GetSPICLKFreq+0x120>
341859b0:	f503 6380 	add.w	r3, r3, #1024	@ 0x400
341859b4:	4298      	cmp	r0, r3
341859b6:	d18b      	bne.n	341858d0 <RCCEx_GetSPICLKFreq+0x38>
341859b8:	f7fd fd04 	bl	341833c4 <LL_RCC_MSI_IsReady>
341859bc:	2800      	cmp	r0, #0
341859be:	d087      	beq.n	341858d0 <RCCEx_GetSPICLKFreq+0x38>
341859c0:	4849      	ldr	r0, [pc, #292]	@ (34185ae8 <RCCEx_GetSPICLKFreq+0x250>)
341859c2:	e786      	b.n	341858d2 <RCCEx_GetSPICLKFreq+0x3a>
341859c4:	4b49      	ldr	r3, [pc, #292]	@ (34185aec <RCCEx_GetSPICLKFreq+0x254>)
341859c6:	e7f5      	b.n	341859b4 <RCCEx_GetSPICLKFreq+0x11c>
341859c8:	4b49      	ldr	r3, [pc, #292]	@ (34185af0 <RCCEx_GetSPICLKFreq+0x258>)
341859ca:	4298      	cmp	r0, r3
341859cc:	d018      	beq.n	34185a00 <RCCEx_GetSPICLKFreq+0x168>
341859ce:	f503 6380 	add.w	r3, r3, #1024	@ 0x400
341859d2:	4298      	cmp	r0, r3
341859d4:	d014      	beq.n	34185a00 <RCCEx_GetSPICLKFreq+0x168>
341859d6:	f5a3 4370 	sub.w	r3, r3, #61440	@ 0xf000
341859da:	e7eb      	b.n	341859b4 <RCCEx_GetSPICLKFreq+0x11c>
341859dc:	4b45      	ldr	r3, [pc, #276]	@ (34185af4 <RCCEx_GetSPICLKFreq+0x25c>)
341859de:	4298      	cmp	r0, r3
341859e0:	d069      	beq.n	34185ab6 <RCCEx_GetSPICLKFreq+0x21e>
341859e2:	d81e      	bhi.n	34185a22 <RCCEx_GetSPICLKFreq+0x18a>
341859e4:	f5a3 6340 	sub.w	r3, r3, #3072	@ 0xc00
341859e8:	4298      	cmp	r0, r3
341859ea:	d018      	beq.n	34185a1e <RCCEx_GetSPICLKFreq+0x186>
341859ec:	f420 6380 	bic.w	r3, r0, #1024	@ 0x400
341859f0:	d811      	bhi.n	34185a16 <RCCEx_GetSPICLKFreq+0x17e>
341859f2:	4a41      	ldr	r2, [pc, #260]	@ (34185af8 <RCCEx_GetSPICLKFreq+0x260>)
341859f4:	4293      	cmp	r3, r2
341859f6:	d003      	beq.n	34185a00 <RCCEx_GetSPICLKFreq+0x168>
341859f8:	4b40      	ldr	r3, [pc, #256]	@ (34185afc <RCCEx_GetSPICLKFreq+0x264>)
341859fa:	4298      	cmp	r0, r3
341859fc:	f47f af68 	bne.w	341858d0 <RCCEx_GetSPICLKFreq+0x38>
34185a00:	f7fd fcd8 	bl	341833b4 <LL_RCC_HSI_IsReady>
34185a04:	2800      	cmp	r0, #0
34185a06:	f43f af63 	beq.w	341858d0 <RCCEx_GetSPICLKFreq+0x38>
34185a0a:	4b30      	ldr	r3, [pc, #192]	@ (34185acc <RCCEx_GetSPICLKFreq+0x234>)
34185a0c:	483c      	ldr	r0, [pc, #240]	@ (34185b00 <RCCEx_GetSPICLKFreq+0x268>)
34185a0e:	6c9b      	ldr	r3, [r3, #72]	@ 0x48
34185a10:	f3c3 13c1 	ubfx	r3, r3, #7, #2
34185a14:	e014      	b.n	34185a40 <RCCEx_GetSPICLKFreq+0x1a8>
34185a16:	4a3b      	ldr	r2, [pc, #236]	@ (34185b04 <RCCEx_GetSPICLKFreq+0x26c>)
34185a18:	4293      	cmp	r3, r2
34185a1a:	f47f af59 	bne.w	341858d0 <RCCEx_GetSPICLKFreq+0x38>
34185a1e:	483a      	ldr	r0, [pc, #232]	@ (34185b08 <RCCEx_GetSPICLKFreq+0x270>)
34185a20:	e757      	b.n	341858d2 <RCCEx_GetSPICLKFreq+0x3a>
34185a22:	4b3a      	ldr	r3, [pc, #232]	@ (34185b0c <RCCEx_GetSPICLKFreq+0x274>)
34185a24:	4298      	cmp	r0, r3
34185a26:	d046      	beq.n	34185ab6 <RCCEx_GetSPICLKFreq+0x21e>
34185a28:	f503 6380 	add.w	r3, r3, #1024	@ 0x400
34185a2c:	4298      	cmp	r0, r3
34185a2e:	e7f4      	b.n	34185a1a <RCCEx_GetSPICLKFreq+0x182>
34185a30:	f7fd fc50 	bl	341832d4 <HAL_RCC_GetSysClockFreq>
34185a34:	f7fd fd50 	bl	341834d8 <RCCEx_GetHCLKFreq>
34185a38:	4b24      	ldr	r3, [pc, #144]	@ (34185acc <RCCEx_GetSPICLKFreq+0x234>)
34185a3a:	6a5b      	ldr	r3, [r3, #36]	@ 0x24
34185a3c:	f003 0307 	and.w	r3, r3, #7
34185a40:	40d8      	lsrs	r0, r3
34185a42:	e746      	b.n	341858d2 <RCCEx_GetSPICLKFreq+0x3a>
34185a44:	f7fd fc46 	bl	341832d4 <HAL_RCC_GetSysClockFreq>
34185a48:	f7fd fd46 	bl	341834d8 <RCCEx_GetHCLKFreq>
34185a4c:	4b1f      	ldr	r3, [pc, #124]	@ (34185acc <RCCEx_GetSPICLKFreq+0x234>)
34185a4e:	6a5b      	ldr	r3, [r3, #36]	@ 0x24
34185a50:	f3c3 3302 	ubfx	r3, r3, #12, #3
34185a54:	e7f4      	b.n	34185a40 <RCCEx_GetSPICLKFreq+0x1a8>
34185a56:	f7fd fcf7 	bl	34183448 <LL_RCC_IC8_IsEnabled>
34185a5a:	2800      	cmp	r0, #0
34185a5c:	f43f af38 	beq.w	341858d0 <RCCEx_GetSPICLKFreq+0x38>
34185a60:	f7fd fcfa 	bl	34183458 <LL_RCC_IC8_GetDivider>
34185a64:	4604      	mov	r4, r0
34185a66:	4b19      	ldr	r3, [pc, #100]	@ (34185acc <RCCEx_GetSPICLKFreq+0x234>)
34185a68:	f8d3 30e0 	ldr.w	r3, [r3, #224]	@ 0xe0
34185a6c:	f003 5340 	and.w	r3, r3, #805306368	@ 0x30000000
34185a70:	f1b3 5f00 	cmp.w	r3, #536870912	@ 0x20000000
34185a74:	d01c      	beq.n	34185ab0 <RCCEx_GetSPICLKFreq+0x218>
34185a76:	d811      	bhi.n	34185a9c <RCCEx_GetSPICLKFreq+0x204>
34185a78:	b9bb      	cbnz	r3, 34185aaa <RCCEx_GetSPICLKFreq+0x212>
34185a7a:	f7ff fa05 	bl	34184e88 <HAL_RCCEx_GetPLL1CLKFreq>
34185a7e:	fbb0 f0f4 	udiv	r0, r0, r4
34185a82:	e726      	b.n	341858d2 <RCCEx_GetSPICLKFreq+0x3a>
34185a84:	f7fd fd04 	bl	34183490 <LL_RCC_IC14_IsEnabled>
34185a88:	2800      	cmp	r0, #0
34185a8a:	f43f af21 	beq.w	341858d0 <RCCEx_GetSPICLKFreq+0x38>
34185a8e:	f7fd fd07 	bl	341834a0 <LL_RCC_IC14_GetDivider>
34185a92:	4b0e      	ldr	r3, [pc, #56]	@ (34185acc <RCCEx_GetSPICLKFreq+0x234>)
34185a94:	4604      	mov	r4, r0
34185a96:	f8d3 30f8 	ldr.w	r3, [r3, #248]	@ 0xf8
34185a9a:	e7e7      	b.n	34185a6c <RCCEx_GetSPICLKFreq+0x1d4>
34185a9c:	f1b3 5f40 	cmp.w	r3, #805306368	@ 0x30000000
34185aa0:	f47f af16 	bne.w	341858d0 <RCCEx_GetSPICLKFreq+0x38>
34185aa4:	f7ff fab0 	bl	34185008 <HAL_RCCEx_GetPLL4CLKFreq>
34185aa8:	e7e9      	b.n	34185a7e <RCCEx_GetSPICLKFreq+0x1e6>
34185aaa:	f7ff fa2d 	bl	34184f08 <HAL_RCCEx_GetPLL2CLKFreq>
34185aae:	e7e6      	b.n	34185a7e <RCCEx_GetSPICLKFreq+0x1e6>
34185ab0:	f7ff fa6a 	bl	34184f88 <HAL_RCCEx_GetPLL3CLKFreq>
34185ab4:	e7e3      	b.n	34185a7e <RCCEx_GetSPICLKFreq+0x1e6>
34185ab6:	f7fd fc75 	bl	341833a4 <LL_RCC_HSE_IsReady>
34185aba:	2800      	cmp	r0, #0
34185abc:	f43f af08 	beq.w	341858d0 <RCCEx_GetSPICLKFreq+0x38>
34185ac0:	4813      	ldr	r0, [pc, #76]	@ (34185b10 <RCCEx_GetSPICLKFreq+0x278>)
34185ac2:	e706      	b.n	341858d2 <RCCEx_GetSPICLKFreq+0x3a>
34185ac4:	07030820 	.word	0x07030820
34185ac8:	07001020 	.word	0x07001020
34185acc:	56028000 	.word	0x56028000
34185ad0:	07020820 	.word	0x07020820
34185ad4:	07011820 	.word	0x07011820
34185ad8:	07021420 	.word	0x07021420
34185adc:	07021820 	.word	0x07021820
34185ae0:	07050c20 	.word	0x07050c20
34185ae4:	07041420 	.word	0x07041420
34185ae8:	003d0900 	.word	0x003d0900
34185aec:	07041020 	.word	0x07041020
34185af0:	07050420 	.word	0x07050420
34185af4:	07061020 	.word	0x07061020
34185af8:	07051020 	.word	0x07051020
34185afc:	07051820 	.word	0x07051820
34185b00:	03d09000 	.word	0x03d09000
34185b04:	07060820 	.word	0x07060820
34185b08:	00bb8000 	.word	0x00bb8000
34185b0c:	07061420 	.word	0x07061420
34185b10:	016e3600 	.word	0x016e3600

34185b14 <RCCEx_GetSAICLKFreq>:
34185b14:	b510      	push	{r4, lr}
34185b16:	f7fd fc77 	bl	34183408 <LL_RCC_GetClockSource>
34185b1a:	4b49      	ldr	r3, [pc, #292]	@ (34185c40 <RCCEx_GetSAICLKFreq+0x12c>)
34185b1c:	4298      	cmp	r0, r3
34185b1e:	d04a      	beq.n	34185bb6 <RCCEx_GetSAICLKFreq+0xa2>
34185b20:	d839      	bhi.n	34185b96 <RCCEx_GetSAICLKFreq+0x82>
34185b22:	f5a3 3300 	sub.w	r3, r3, #131072	@ 0x20000
34185b26:	4298      	cmp	r0, r3
34185b28:	d021      	beq.n	34185b6e <RCCEx_GetSAICLKFreq+0x5a>
34185b2a:	d815      	bhi.n	34185b58 <RCCEx_GetSAICLKFreq+0x44>
34185b2c:	f5a3 3380 	sub.w	r3, r3, #65536	@ 0x10000
34185b30:	4298      	cmp	r0, r3
34185b32:	d00d      	beq.n	34185b50 <RCCEx_GetSAICLKFreq+0x3c>
34185b34:	d809      	bhi.n	34185b4a <RCCEx_GetSAICLKFreq+0x36>
34185b36:	f5a3 3380 	sub.w	r3, r3, #65536	@ 0x10000
34185b3a:	4298      	cmp	r0, r3
34185b3c:	d04e      	beq.n	34185bdc <RCCEx_GetSAICLKFreq+0xc8>
34185b3e:	f503 6380 	add.w	r3, r3, #1024	@ 0x400
34185b42:	4298      	cmp	r0, r3
34185b44:	d04a      	beq.n	34185bdc <RCCEx_GetSAICLKFreq+0xc8>
34185b46:	2000      	movs	r0, #0
34185b48:	bd10      	pop	{r4, pc}
34185b4a:	4b3e      	ldr	r3, [pc, #248]	@ (34185c44 <RCCEx_GetSAICLKFreq+0x130>)
34185b4c:	4298      	cmp	r0, r3
34185b4e:	d1fa      	bne.n	34185b46 <RCCEx_GetSAICLKFreq+0x32>
34185b50:	e8bd 4010 	ldmia.w	sp!, {r4, lr}
34185b54:	f7ff ba98 	b.w	34185088 <RCCEx_GetCLKPCLKFreq.constprop.0>
34185b58:	4b3b      	ldr	r3, [pc, #236]	@ (34185c48 <RCCEx_GetSAICLKFreq+0x134>)
34185b5a:	4298      	cmp	r0, r3
34185b5c:	d04d      	beq.n	34185bfa <RCCEx_GetSAICLKFreq+0xe6>
34185b5e:	f503 6380 	add.w	r3, r3, #1024	@ 0x400
34185b62:	4298      	cmp	r0, r3
34185b64:	d049      	beq.n	34185bfa <RCCEx_GetSAICLKFreq+0xe6>
34185b66:	f5a3 3380 	sub.w	r3, r3, #65536	@ 0x10000
34185b6a:	4298      	cmp	r0, r3
34185b6c:	d1eb      	bne.n	34185b46 <RCCEx_GetSAICLKFreq+0x32>
34185b6e:	f7fd fc59 	bl	34183424 <LL_RCC_IC7_IsEnabled>
34185b72:	2800      	cmp	r0, #0
34185b74:	d0e7      	beq.n	34185b46 <RCCEx_GetSAICLKFreq+0x32>
34185b76:	f7fd fc5d 	bl	34183434 <LL_RCC_IC7_GetDivider>
34185b7a:	4604      	mov	r4, r0
34185b7c:	4b33      	ldr	r3, [pc, #204]	@ (34185c4c <RCCEx_GetSAICLKFreq+0x138>)
34185b7e:	f8d3 30dc 	ldr.w	r3, [r3, #220]	@ 0xdc
34185b82:	f003 5340 	and.w	r3, r3, #805306368	@ 0x30000000
34185b86:	f1b3 5f00 	cmp.w	r3, #536870912	@ 0x20000000
34185b8a:	d047      	beq.n	34185c1c <RCCEx_GetSAICLKFreq+0x108>
34185b8c:	d840      	bhi.n	34185c10 <RCCEx_GetSAICLKFreq+0xfc>
34185b8e:	bb7b      	cbnz	r3, 34185bf0 <RCCEx_GetSAICLKFreq+0xdc>
34185b90:	f7ff f97a 	bl	34184e88 <HAL_RCCEx_GetPLL1CLKFreq>
34185b94:	e02e      	b.n	34185bf4 <RCCEx_GetSAICLKFreq+0xe0>
34185b96:	4b2e      	ldr	r3, [pc, #184]	@ (34185c50 <RCCEx_GetSAICLKFreq+0x13c>)
34185b98:	4298      	cmp	r0, r3
34185b9a:	d01d      	beq.n	34185bd8 <RCCEx_GetSAICLKFreq+0xc4>
34185b9c:	d811      	bhi.n	34185bc2 <RCCEx_GetSAICLKFreq+0xae>
34185b9e:	f5a3 3380 	sub.w	r3, r3, #65536	@ 0x10000
34185ba2:	4298      	cmp	r0, r3
34185ba4:	d03d      	beq.n	34185c22 <RCCEx_GetSAICLKFreq+0x10e>
34185ba6:	f503 6380 	add.w	r3, r3, #1024	@ 0x400
34185baa:	4298      	cmp	r0, r3
34185bac:	d039      	beq.n	34185c22 <RCCEx_GetSAICLKFreq+0x10e>
34185bae:	f5a3 3380 	sub.w	r3, r3, #65536	@ 0x10000
34185bb2:	4298      	cmp	r0, r3
34185bb4:	d1c7      	bne.n	34185b46 <RCCEx_GetSAICLKFreq+0x32>
34185bb6:	f7fd fc05 	bl	341833c4 <LL_RCC_MSI_IsReady>
34185bba:	2800      	cmp	r0, #0
34185bbc:	d0c3      	beq.n	34185b46 <RCCEx_GetSAICLKFreq+0x32>
34185bbe:	4825      	ldr	r0, [pc, #148]	@ (34185c54 <RCCEx_GetSAICLKFreq+0x140>)
34185bc0:	e7c2      	b.n	34185b48 <RCCEx_GetSAICLKFreq+0x34>
34185bc2:	4b25      	ldr	r3, [pc, #148]	@ (34185c58 <RCCEx_GetSAICLKFreq+0x144>)
34185bc4:	4298      	cmp	r0, r3
34185bc6:	d036      	beq.n	34185c36 <RCCEx_GetSAICLKFreq+0x122>
34185bc8:	f503 6380 	add.w	r3, r3, #1024	@ 0x400
34185bcc:	4298      	cmp	r0, r3
34185bce:	d032      	beq.n	34185c36 <RCCEx_GetSAICLKFreq+0x122>
34185bd0:	f5a3 3380 	sub.w	r3, r3, #65536	@ 0x10000
34185bd4:	4298      	cmp	r0, r3
34185bd6:	d1b6      	bne.n	34185b46 <RCCEx_GetSAICLKFreq+0x32>
34185bd8:	4820      	ldr	r0, [pc, #128]	@ (34185c5c <RCCEx_GetSAICLKFreq+0x148>)
34185bda:	e7b5      	b.n	34185b48 <RCCEx_GetSAICLKFreq+0x34>
34185bdc:	f7fd fb7a 	bl	341832d4 <HAL_RCC_GetSysClockFreq>
34185be0:	f7fd fc7a 	bl	341834d8 <RCCEx_GetHCLKFreq>
34185be4:	4b19      	ldr	r3, [pc, #100]	@ (34185c4c <RCCEx_GetSAICLKFreq+0x138>)
34185be6:	6a5b      	ldr	r3, [r3, #36]	@ 0x24
34185be8:	f3c3 1302 	ubfx	r3, r3, #4, #3
34185bec:	40d8      	lsrs	r0, r3
34185bee:	e7ab      	b.n	34185b48 <RCCEx_GetSAICLKFreq+0x34>
34185bf0:	f7ff f98a 	bl	34184f08 <HAL_RCCEx_GetPLL2CLKFreq>
34185bf4:	fbb0 f0f4 	udiv	r0, r0, r4
34185bf8:	e7a6      	b.n	34185b48 <RCCEx_GetSAICLKFreq+0x34>
34185bfa:	f7fd fc25 	bl	34183448 <LL_RCC_IC8_IsEnabled>
34185bfe:	2800      	cmp	r0, #0
34185c00:	d0a1      	beq.n	34185b46 <RCCEx_GetSAICLKFreq+0x32>
34185c02:	f7fd fc29 	bl	34183458 <LL_RCC_IC8_GetDivider>
34185c06:	4b11      	ldr	r3, [pc, #68]	@ (34185c4c <RCCEx_GetSAICLKFreq+0x138>)
34185c08:	4604      	mov	r4, r0
34185c0a:	f8d3 30e0 	ldr.w	r3, [r3, #224]	@ 0xe0
34185c0e:	e7b8      	b.n	34185b82 <RCCEx_GetSAICLKFreq+0x6e>
34185c10:	f1b3 5f40 	cmp.w	r3, #805306368	@ 0x30000000
34185c14:	d197      	bne.n	34185b46 <RCCEx_GetSAICLKFreq+0x32>
34185c16:	f7ff f9f7 	bl	34185008 <HAL_RCCEx_GetPLL4CLKFreq>
34185c1a:	e7eb      	b.n	34185bf4 <RCCEx_GetSAICLKFreq+0xe0>
34185c1c:	f7ff f9b4 	bl	34184f88 <HAL_RCCEx_GetPLL3CLKFreq>
34185c20:	e7e8      	b.n	34185bf4 <RCCEx_GetSAICLKFreq+0xe0>
34185c22:	f7fd fbc7 	bl	341833b4 <LL_RCC_HSI_IsReady>
34185c26:	2800      	cmp	r0, #0
34185c28:	d08d      	beq.n	34185b46 <RCCEx_GetSAICLKFreq+0x32>
34185c2a:	4b08      	ldr	r3, [pc, #32]	@ (34185c4c <RCCEx_GetSAICLKFreq+0x138>)
34185c2c:	480c      	ldr	r0, [pc, #48]	@ (34185c60 <RCCEx_GetSAICLKFreq+0x14c>)
34185c2e:	6c9b      	ldr	r3, [r3, #72]	@ 0x48
34185c30:	f3c3 13c1 	ubfx	r3, r3, #7, #2
34185c34:	e7da      	b.n	34185bec <RCCEx_GetSAICLKFreq+0xd8>
34185c36:	e8bd 4010 	ldmia.w	sp!, {r4, lr}
34185c3a:	f7ff baab 	b.w	34185194 <RCCEx_GetSPDIFRXCLKFreq.constprop.0>
34185c3e:	bf00      	nop
34185c40:	07041418 	.word	0x07041418
34185c44:	07011818 	.word	0x07011818
34185c48:	07031418 	.word	0x07031418
34185c4c:	56028000 	.word	0x56028000
34185c50:	07061418 	.word	0x07061418
34185c54:	003d0900 	.word	0x003d0900
34185c58:	07071418 	.word	0x07071418
34185c5c:	00bb8000 	.word	0x00bb8000
34185c60:	03d09000 	.word	0x03d09000

34185c64 <RCCEx_GetI3CCLKFreq>:
34185c64:	b510      	push	{r4, lr}
34185c66:	f7fd fbcf 	bl	34183408 <LL_RCC_GetClockSource>
34185c6a:	4b3d      	ldr	r3, [pc, #244]	@ (34185d60 <RCCEx_GetI3CCLKFreq+0xfc>)
34185c6c:	4298      	cmp	r0, r3
34185c6e:	d060      	beq.n	34185d32 <RCCEx_GetI3CCLKFreq+0xce>
34185c70:	d830      	bhi.n	34185cd4 <RCCEx_GetI3CCLKFreq+0x70>
34185c72:	f5a3 33fe 	sub.w	r3, r3, #130048	@ 0x1fc00
34185c76:	4298      	cmp	r0, r3
34185c78:	d057      	beq.n	34185d2a <RCCEx_GetI3CCLKFreq+0xc6>
34185c7a:	d80d      	bhi.n	34185c98 <RCCEx_GetI3CCLKFreq+0x34>
34185c7c:	f5a3 3380 	sub.w	r3, r3, #65536	@ 0x10000
34185c80:	4298      	cmp	r0, r3
34185c82:	d048      	beq.n	34185d16 <RCCEx_GetI3CCLKFreq+0xb2>
34185c84:	f503 437c 	add.w	r3, r3, #64512	@ 0xfc00
34185c88:	4298      	cmp	r0, r3
34185c8a:	d04e      	beq.n	34185d2a <RCCEx_GetI3CCLKFreq+0xc6>
34185c8c:	f5a3 3380 	sub.w	r3, r3, #65536	@ 0x10000
34185c90:	4298      	cmp	r0, r3
34185c92:	d040      	beq.n	34185d16 <RCCEx_GetI3CCLKFreq+0xb2>
34185c94:	2000      	movs	r0, #0
34185c96:	bd10      	pop	{r4, pc}
34185c98:	4b32      	ldr	r3, [pc, #200]	@ (34185d64 <RCCEx_GetI3CCLKFreq+0x100>)
34185c9a:	f420 6080 	bic.w	r0, r0, #1024	@ 0x400
34185c9e:	4298      	cmp	r0, r3
34185ca0:	d1f8      	bne.n	34185c94 <RCCEx_GetI3CCLKFreq+0x30>
34185ca2:	4b31      	ldr	r3, [pc, #196]	@ (34185d68 <RCCEx_GetI3CCLKFreq+0x104>)
34185ca4:	f8d3 2240 	ldr.w	r2, [r3, #576]	@ 0x240
34185ca8:	0592      	lsls	r2, r2, #22
34185caa:	d5f3      	bpl.n	34185c94 <RCCEx_GetI3CCLKFreq+0x30>
34185cac:	f8d3 00e8 	ldr.w	r0, [r3, #232]	@ 0xe8
34185cb0:	f8d3 30e8 	ldr.w	r3, [r3, #232]	@ 0xe8
34185cb4:	f3c0 4007 	ubfx	r0, r0, #16, #8
34185cb8:	1c44      	adds	r4, r0, #1
34185cba:	f003 5340 	and.w	r3, r3, #805306368	@ 0x30000000
34185cbe:	f1b3 5f00 	cmp.w	r3, #536870912	@ 0x20000000
34185cc2:	d04a      	beq.n	34185d5a <RCCEx_GetI3CCLKFreq+0xf6>
34185cc4:	d840      	bhi.n	34185d48 <RCCEx_GetI3CCLKFreq+0xe4>
34185cc6:	2b00      	cmp	r3, #0
34185cc8:	d144      	bne.n	34185d54 <RCCEx_GetI3CCLKFreq+0xf0>
34185cca:	f7ff f8dd 	bl	34184e88 <HAL_RCCEx_GetPLL1CLKFreq>
34185cce:	fbb0 f0f4 	udiv	r0, r0, r4
34185cd2:	e7e0      	b.n	34185c96 <RCCEx_GetI3CCLKFreq+0x32>
34185cd4:	4b25      	ldr	r3, [pc, #148]	@ (34185d6c <RCCEx_GetI3CCLKFreq+0x108>)
34185cd6:	4298      	cmp	r0, r3
34185cd8:	d008      	beq.n	34185cec <RCCEx_GetI3CCLKFreq+0x88>
34185cda:	d80d      	bhi.n	34185cf8 <RCCEx_GetI3CCLKFreq+0x94>
34185cdc:	f5a3 3380 	sub.w	r3, r3, #65536	@ 0x10000
34185ce0:	4298      	cmp	r0, r3
34185ce2:	d026      	beq.n	34185d32 <RCCEx_GetI3CCLKFreq+0xce>
34185ce4:	f503 437c 	add.w	r3, r3, #64512	@ 0xfc00
34185ce8:	4298      	cmp	r0, r3
34185cea:	d1d3      	bne.n	34185c94 <RCCEx_GetI3CCLKFreq+0x30>
34185cec:	f7fd fb6a 	bl	341833c4 <LL_RCC_MSI_IsReady>
34185cf0:	2800      	cmp	r0, #0
34185cf2:	d0cf      	beq.n	34185c94 <RCCEx_GetI3CCLKFreq+0x30>
34185cf4:	481e      	ldr	r0, [pc, #120]	@ (34185d70 <RCCEx_GetI3CCLKFreq+0x10c>)
34185cf6:	e7ce      	b.n	34185c96 <RCCEx_GetI3CCLKFreq+0x32>
34185cf8:	4b1e      	ldr	r3, [pc, #120]	@ (34185d74 <RCCEx_GetI3CCLKFreq+0x110>)
34185cfa:	f420 6080 	bic.w	r0, r0, #1024	@ 0x400
34185cfe:	4298      	cmp	r0, r3
34185d00:	d1c8      	bne.n	34185c94 <RCCEx_GetI3CCLKFreq+0x30>
34185d02:	f7fd fb57 	bl	341833b4 <LL_RCC_HSI_IsReady>
34185d06:	2800      	cmp	r0, #0
34185d08:	d0c4      	beq.n	34185c94 <RCCEx_GetI3CCLKFreq+0x30>
34185d0a:	4b17      	ldr	r3, [pc, #92]	@ (34185d68 <RCCEx_GetI3CCLKFreq+0x104>)
34185d0c:	481a      	ldr	r0, [pc, #104]	@ (34185d78 <RCCEx_GetI3CCLKFreq+0x114>)
34185d0e:	6c9b      	ldr	r3, [r3, #72]	@ 0x48
34185d10:	f3c3 13c1 	ubfx	r3, r3, #7, #2
34185d14:	e007      	b.n	34185d26 <RCCEx_GetI3CCLKFreq+0xc2>
34185d16:	f7fd fadd 	bl	341832d4 <HAL_RCC_GetSysClockFreq>
34185d1a:	f7fd fbdd 	bl	341834d8 <RCCEx_GetHCLKFreq>
34185d1e:	4b12      	ldr	r3, [pc, #72]	@ (34185d68 <RCCEx_GetI3CCLKFreq+0x104>)
34185d20:	6a5b      	ldr	r3, [r3, #36]	@ 0x24
34185d22:	f003 0307 	and.w	r3, r3, #7
34185d26:	40d8      	lsrs	r0, r3
34185d28:	e7b5      	b.n	34185c96 <RCCEx_GetI3CCLKFreq+0x32>
34185d2a:	e8bd 4010 	ldmia.w	sp!, {r4, lr}
34185d2e:	f7ff b9ab 	b.w	34185088 <RCCEx_GetCLKPCLKFreq.constprop.0>
34185d32:	f7fd fbbf 	bl	341834b4 <LL_RCC_IC15_IsEnabled>
34185d36:	2800      	cmp	r0, #0
34185d38:	d0ac      	beq.n	34185c94 <RCCEx_GetI3CCLKFreq+0x30>
34185d3a:	f7fd fbc3 	bl	341834c4 <LL_RCC_IC15_GetDivider>
34185d3e:	4b0a      	ldr	r3, [pc, #40]	@ (34185d68 <RCCEx_GetI3CCLKFreq+0x104>)
34185d40:	4604      	mov	r4, r0
34185d42:	f8d3 30fc 	ldr.w	r3, [r3, #252]	@ 0xfc
34185d46:	e7b8      	b.n	34185cba <RCCEx_GetI3CCLKFreq+0x56>
34185d48:	f1b3 5f40 	cmp.w	r3, #805306368	@ 0x30000000
34185d4c:	d1a2      	bne.n	34185c94 <RCCEx_GetI3CCLKFreq+0x30>
34185d4e:	f7ff f95b 	bl	34185008 <HAL_RCCEx_GetPLL4CLKFreq>
34185d52:	e7bc      	b.n	34185cce <RCCEx_GetI3CCLKFreq+0x6a>
34185d54:	f7ff f8d8 	bl	34184f08 <HAL_RCCEx_GetPLL2CLKFreq>
34185d58:	e7b9      	b.n	34185cce <RCCEx_GetI3CCLKFreq+0x6a>
34185d5a:	f7ff f915 	bl	34184f88 <HAL_RCCEx_GetPLL3CLKFreq>
34185d5e:	e7b6      	b.n	34185cce <RCCEx_GetI3CCLKFreq+0x6a>
34185d60:	0703100c 	.word	0x0703100c
34185d64:	0702100c 	.word	0x0702100c
34185d68:	56028000 	.word	0x56028000
34185d6c:	0704140c 	.word	0x0704140c
34185d70:	003d0900 	.word	0x003d0900
34185d74:	0705100c 	.word	0x0705100c
34185d78:	03d09000 	.word	0x03d09000

34185d7c <RCCEx_GetSDMMCCLKFreq>:
34185d7c:	b510      	push	{r4, lr}
34185d7e:	f7fd fb43 	bl	34183408 <LL_RCC_GetClockSource>
34185d82:	4b2d      	ldr	r3, [pc, #180]	@ (34185e38 <RCCEx_GetSDMMCCLKFreq+0xbc>)
34185d84:	4298      	cmp	r0, r3
34185d86:	d01d      	beq.n	34185dc4 <RCCEx_GetSDMMCCLKFreq+0x48>
34185d88:	d813      	bhi.n	34185db2 <RCCEx_GetSDMMCCLKFreq+0x36>
34185d8a:	f5a3 3380 	sub.w	r3, r3, #65536	@ 0x10000
34185d8e:	4298      	cmp	r0, r3
34185d90:	d00b      	beq.n	34185daa <RCCEx_GetSDMMCCLKFreq+0x2e>
34185d92:	d807      	bhi.n	34185da4 <RCCEx_GetSDMMCCLKFreq+0x28>
34185d94:	f420 6080 	bic.w	r0, r0, #1024	@ 0x400
34185d98:	f5a3 3380 	sub.w	r3, r3, #65536	@ 0x10000
34185d9c:	4298      	cmp	r0, r3
34185d9e:	d02a      	beq.n	34185df6 <RCCEx_GetSDMMCCLKFreq+0x7a>
34185da0:	2000      	movs	r0, #0
34185da2:	bd10      	pop	{r4, pc}
34185da4:	4b25      	ldr	r3, [pc, #148]	@ (34185e3c <RCCEx_GetSDMMCCLKFreq+0xc0>)
34185da6:	4298      	cmp	r0, r3
34185da8:	d1fa      	bne.n	34185da0 <RCCEx_GetSDMMCCLKFreq+0x24>
34185daa:	e8bd 4010 	ldmia.w	sp!, {r4, lr}
34185dae:	f7ff b96b 	b.w	34185088 <RCCEx_GetCLKPCLKFreq.constprop.0>
34185db2:	4b23      	ldr	r3, [pc, #140]	@ (34185e40 <RCCEx_GetSDMMCCLKFreq+0xc4>)
34185db4:	f420 6280 	bic.w	r2, r0, #1024	@ 0x400
34185db8:	429a      	cmp	r2, r3
34185dba:	d022      	beq.n	34185e02 <RCCEx_GetSDMMCCLKFreq+0x86>
34185dbc:	f5a3 437c 	sub.w	r3, r3, #64512	@ 0xfc00
34185dc0:	4298      	cmp	r0, r3
34185dc2:	d1ed      	bne.n	34185da0 <RCCEx_GetSDMMCCLKFreq+0x24>
34185dc4:	4b1f      	ldr	r3, [pc, #124]	@ (34185e44 <RCCEx_GetSDMMCCLKFreq+0xc8>)
34185dc6:	f8d3 0240 	ldr.w	r0, [r3, #576]	@ 0x240
34185dca:	f010 0008 	ands.w	r0, r0, #8
34185dce:	d0e8      	beq.n	34185da2 <RCCEx_GetSDMMCCLKFreq+0x26>
34185dd0:	f8d3 00d0 	ldr.w	r0, [r3, #208]	@ 0xd0
34185dd4:	f8d3 30d0 	ldr.w	r3, [r3, #208]	@ 0xd0
34185dd8:	f3c0 4007 	ubfx	r0, r0, #16, #8
34185ddc:	1c44      	adds	r4, r0, #1
34185dde:	f003 5340 	and.w	r3, r3, #805306368	@ 0x30000000
34185de2:	f1b3 5f00 	cmp.w	r3, #536870912	@ 0x20000000
34185de6:	d023      	beq.n	34185e30 <RCCEx_GetSDMMCCLKFreq+0xb4>
34185de8:	d819      	bhi.n	34185e1e <RCCEx_GetSDMMCCLKFreq+0xa2>
34185dea:	b9f3      	cbnz	r3, 34185e2a <RCCEx_GetSDMMCCLKFreq+0xae>
34185dec:	f7ff f84c 	bl	34184e88 <HAL_RCCEx_GetPLL1CLKFreq>
34185df0:	fbb0 f0f4 	udiv	r0, r0, r4
34185df4:	e7d5      	b.n	34185da2 <RCCEx_GetSDMMCCLKFreq+0x26>
34185df6:	f7fd fa6d 	bl	341832d4 <HAL_RCC_GetSysClockFreq>
34185dfa:	e8bd 4010 	ldmia.w	sp!, {r4, lr}
34185dfe:	f7fd bb6b 	b.w	341834d8 <RCCEx_GetHCLKFreq>
34185e02:	4b10      	ldr	r3, [pc, #64]	@ (34185e44 <RCCEx_GetSDMMCCLKFreq+0xc8>)
34185e04:	f8d3 0240 	ldr.w	r0, [r3, #576]	@ 0x240
34185e08:	f010 0010 	ands.w	r0, r0, #16
34185e0c:	d0c9      	beq.n	34185da2 <RCCEx_GetSDMMCCLKFreq+0x26>
34185e0e:	f8d3 00d4 	ldr.w	r0, [r3, #212]	@ 0xd4
34185e12:	f8d3 30d4 	ldr.w	r3, [r3, #212]	@ 0xd4
34185e16:	f3c0 4007 	ubfx	r0, r0, #16, #8
34185e1a:	1c44      	adds	r4, r0, #1
34185e1c:	e7df      	b.n	34185dde <RCCEx_GetSDMMCCLKFreq+0x62>
34185e1e:	f1b3 5f40 	cmp.w	r3, #805306368	@ 0x30000000
34185e22:	d1bd      	bne.n	34185da0 <RCCEx_GetSDMMCCLKFreq+0x24>
34185e24:	f7ff f8f0 	bl	34185008 <HAL_RCCEx_GetPLL4CLKFreq>
34185e28:	e7e2      	b.n	34185df0 <RCCEx_GetSDMMCCLKFreq+0x74>
34185e2a:	f7ff f86d 	bl	34184f08 <HAL_RCCEx_GetPLL2CLKFreq>
34185e2e:	e7df      	b.n	34185df0 <RCCEx_GetSDMMCCLKFreq+0x74>
34185e30:	f7ff f8aa 	bl	34184f88 <HAL_RCCEx_GetPLL3CLKFreq>
34185e34:	e7dc      	b.n	34185df0 <RCCEx_GetSDMMCCLKFreq+0x74>
34185e36:	bf00      	nop
34185e38:	0302001c 	.word	0x0302001c
34185e3c:	0301041c 	.word	0x0301041c
34185e40:	0303001c 	.word	0x0303001c
34185e44:	56028000 	.word	0x56028000

34185e48 <RCCEx_GetI2CCLKFreq>:
34185e48:	b510      	push	{r4, lr}
34185e4a:	f7fd fadd 	bl	34183408 <LL_RCC_GetClockSource>
34185e4e:	4b50      	ldr	r3, [pc, #320]	@ (34185f90 <RCCEx_GetI2CCLKFreq+0x148>)
34185e50:	4298      	cmp	r0, r3
34185e52:	f000 8085 	beq.w	34185f60 <RCCEx_GetI2CCLKFreq+0x118>
34185e56:	d84b      	bhi.n	34185ef0 <RCCEx_GetI2CCLKFreq+0xa8>
34185e58:	f5a3 33fc 	sub.w	r3, r3, #129024	@ 0x1f800
34185e5c:	4298      	cmp	r0, r3
34185e5e:	d01a      	beq.n	34185e96 <RCCEx_GetI2CCLKFreq+0x4e>
34185e60:	d81d      	bhi.n	34185e9e <RCCEx_GetI2CCLKFreq+0x56>
34185e62:	f5a3 437c 	sub.w	r3, r3, #64512	@ 0xfc00
34185e66:	4298      	cmp	r0, r3
34185e68:	d008      	beq.n	34185e7c <RCCEx_GetI2CCLKFreq+0x34>
34185e6a:	f420 6380 	bic.w	r3, r0, #1024	@ 0x400
34185e6e:	d80f      	bhi.n	34185e90 <RCCEx_GetI2CCLKFreq+0x48>
34185e70:	4a48      	ldr	r2, [pc, #288]	@ (34185f94 <RCCEx_GetI2CCLKFreq+0x14c>)
34185e72:	4293      	cmp	r3, r2
34185e74:	d002      	beq.n	34185e7c <RCCEx_GetI2CCLKFreq+0x34>
34185e76:	4b48      	ldr	r3, [pc, #288]	@ (34185f98 <RCCEx_GetI2CCLKFreq+0x150>)
34185e78:	4298      	cmp	r0, r3
34185e7a:	d14a      	bne.n	34185f12 <RCCEx_GetI2CCLKFreq+0xca>
34185e7c:	f7fd fa2a 	bl	341832d4 <HAL_RCC_GetSysClockFreq>
34185e80:	f7fd fb2a 	bl	341834d8 <RCCEx_GetHCLKFreq>
34185e84:	4b45      	ldr	r3, [pc, #276]	@ (34185f9c <RCCEx_GetI2CCLKFreq+0x154>)
34185e86:	6a5b      	ldr	r3, [r3, #36]	@ 0x24
34185e88:	f003 0307 	and.w	r3, r3, #7
34185e8c:	40d8      	lsrs	r0, r3
34185e8e:	e041      	b.n	34185f14 <RCCEx_GetI2CCLKFreq+0xcc>
34185e90:	4a43      	ldr	r2, [pc, #268]	@ (34185fa0 <RCCEx_GetI2CCLKFreq+0x158>)
34185e92:	4293      	cmp	r3, r2
34185e94:	d13d      	bne.n	34185f12 <RCCEx_GetI2CCLKFreq+0xca>
34185e96:	e8bd 4010 	ldmia.w	sp!, {r4, lr}
34185e9a:	f7ff b8f5 	b.w	34185088 <RCCEx_GetCLKPCLKFreq.constprop.0>
34185e9e:	4b41      	ldr	r3, [pc, #260]	@ (34185fa4 <RCCEx_GetI2CCLKFreq+0x15c>)
34185ea0:	4298      	cmp	r0, r3
34185ea2:	d008      	beq.n	34185eb6 <RCCEx_GetI2CCLKFreq+0x6e>
34185ea4:	d820      	bhi.n	34185ee8 <RCCEx_GetI2CCLKFreq+0xa0>
34185ea6:	f5a3 4378 	sub.w	r3, r3, #63488	@ 0xf800
34185eaa:	4298      	cmp	r0, r3
34185eac:	d0f3      	beq.n	34185e96 <RCCEx_GetI2CCLKFreq+0x4e>
34185eae:	f503 4374 	add.w	r3, r3, #62464	@ 0xf400
34185eb2:	4298      	cmp	r0, r3
34185eb4:	d12d      	bne.n	34185f12 <RCCEx_GetI2CCLKFreq+0xca>
34185eb6:	4b39      	ldr	r3, [pc, #228]	@ (34185f9c <RCCEx_GetI2CCLKFreq+0x154>)
34185eb8:	f8d3 2240 	ldr.w	r2, [r3, #576]	@ 0x240
34185ebc:	0592      	lsls	r2, r2, #22
34185ebe:	d528      	bpl.n	34185f12 <RCCEx_GetI2CCLKFreq+0xca>
34185ec0:	f8d3 00e8 	ldr.w	r0, [r3, #232]	@ 0xe8
34185ec4:	f8d3 30e8 	ldr.w	r3, [r3, #232]	@ 0xe8
34185ec8:	f3c0 4007 	ubfx	r0, r0, #16, #8
34185ecc:	1c44      	adds	r4, r0, #1
34185ece:	f003 5340 	and.w	r3, r3, #805306368	@ 0x30000000
34185ed2:	f1b3 5f00 	cmp.w	r3, #536870912	@ 0x20000000
34185ed6:	d057      	beq.n	34185f88 <RCCEx_GetI2CCLKFreq+0x140>
34185ed8:	d84d      	bhi.n	34185f76 <RCCEx_GetI2CCLKFreq+0x12e>
34185eda:	2b00      	cmp	r3, #0
34185edc:	d151      	bne.n	34185f82 <RCCEx_GetI2CCLKFreq+0x13a>
34185ede:	f7fe ffd3 	bl	34184e88 <HAL_RCCEx_GetPLL1CLKFreq>
34185ee2:	fbb0 f0f4 	udiv	r0, r0, r4
34185ee6:	e015      	b.n	34185f14 <RCCEx_GetI2CCLKFreq+0xcc>
34185ee8:	4b2f      	ldr	r3, [pc, #188]	@ (34185fa8 <RCCEx_GetI2CCLKFreq+0x160>)
34185eea:	f420 6080 	bic.w	r0, r0, #1024	@ 0x400
34185eee:	e7e0      	b.n	34185eb2 <RCCEx_GetI2CCLKFreq+0x6a>
34185ef0:	4b2e      	ldr	r3, [pc, #184]	@ (34185fac <RCCEx_GetI2CCLKFreq+0x164>)
34185ef2:	4298      	cmp	r0, r3
34185ef4:	d014      	beq.n	34185f20 <RCCEx_GetI2CCLKFreq+0xd8>
34185ef6:	d819      	bhi.n	34185f2c <RCCEx_GetI2CCLKFreq+0xe4>
34185ef8:	f5a3 437c 	sub.w	r3, r3, #64512	@ 0xfc00
34185efc:	4298      	cmp	r0, r3
34185efe:	d02f      	beq.n	34185f60 <RCCEx_GetI2CCLKFreq+0x118>
34185f00:	d809      	bhi.n	34185f16 <RCCEx_GetI2CCLKFreq+0xce>
34185f02:	f5a3 6300 	sub.w	r3, r3, #2048	@ 0x800
34185f06:	4298      	cmp	r0, r3
34185f08:	d02a      	beq.n	34185f60 <RCCEx_GetI2CCLKFreq+0x118>
34185f0a:	f503 6380 	add.w	r3, r3, #1024	@ 0x400
34185f0e:	4298      	cmp	r0, r3
34185f10:	d026      	beq.n	34185f60 <RCCEx_GetI2CCLKFreq+0x118>
34185f12:	2000      	movs	r0, #0
34185f14:	bd10      	pop	{r4, pc}
34185f16:	4b26      	ldr	r3, [pc, #152]	@ (34185fb0 <RCCEx_GetI2CCLKFreq+0x168>)
34185f18:	f420 6080 	bic.w	r0, r0, #1024	@ 0x400
34185f1c:	4298      	cmp	r0, r3
34185f1e:	d1f8      	bne.n	34185f12 <RCCEx_GetI2CCLKFreq+0xca>
34185f20:	f7fd fa50 	bl	341833c4 <LL_RCC_MSI_IsReady>
34185f24:	2800      	cmp	r0, #0
34185f26:	d0f4      	beq.n	34185f12 <RCCEx_GetI2CCLKFreq+0xca>
34185f28:	4822      	ldr	r0, [pc, #136]	@ (34185fb4 <RCCEx_GetI2CCLKFreq+0x16c>)
34185f2a:	e7f3      	b.n	34185f14 <RCCEx_GetI2CCLKFreq+0xcc>
34185f2c:	4b22      	ldr	r3, [pc, #136]	@ (34185fb8 <RCCEx_GetI2CCLKFreq+0x170>)
34185f2e:	4298      	cmp	r0, r3
34185f30:	d008      	beq.n	34185f44 <RCCEx_GetI2CCLKFreq+0xfc>
34185f32:	d811      	bhi.n	34185f58 <RCCEx_GetI2CCLKFreq+0x110>
34185f34:	f5a3 4378 	sub.w	r3, r3, #63488	@ 0xf800
34185f38:	4298      	cmp	r0, r3
34185f3a:	d0f1      	beq.n	34185f20 <RCCEx_GetI2CCLKFreq+0xd8>
34185f3c:	f503 4374 	add.w	r3, r3, #62464	@ 0xf400
34185f40:	4298      	cmp	r0, r3
34185f42:	d1e6      	bne.n	34185f12 <RCCEx_GetI2CCLKFreq+0xca>
34185f44:	f7fd fa36 	bl	341833b4 <LL_RCC_HSI_IsReady>
34185f48:	2800      	cmp	r0, #0
34185f4a:	d0e2      	beq.n	34185f12 <RCCEx_GetI2CCLKFreq+0xca>
34185f4c:	4b13      	ldr	r3, [pc, #76]	@ (34185f9c <RCCEx_GetI2CCLKFreq+0x154>)
34185f4e:	481b      	ldr	r0, [pc, #108]	@ (34185fbc <RCCEx_GetI2CCLKFreq+0x174>)
34185f50:	6c9b      	ldr	r3, [r3, #72]	@ 0x48
34185f52:	f3c3 13c1 	ubfx	r3, r3, #7, #2
34185f56:	e799      	b.n	34185e8c <RCCEx_GetI2CCLKFreq+0x44>
34185f58:	4b19      	ldr	r3, [pc, #100]	@ (34185fc0 <RCCEx_GetI2CCLKFreq+0x178>)
34185f5a:	f420 6080 	bic.w	r0, r0, #1024	@ 0x400
34185f5e:	e7ef      	b.n	34185f40 <RCCEx_GetI2CCLKFreq+0xf8>
34185f60:	f7fd faa8 	bl	341834b4 <LL_RCC_IC15_IsEnabled>
34185f64:	2800      	cmp	r0, #0
34185f66:	d0d4      	beq.n	34185f12 <RCCEx_GetI2CCLKFreq+0xca>
34185f68:	f7fd faac 	bl	341834c4 <LL_RCC_IC15_GetDivider>
34185f6c:	4b0b      	ldr	r3, [pc, #44]	@ (34185f9c <RCCEx_GetI2CCLKFreq+0x154>)
34185f6e:	4604      	mov	r4, r0
34185f70:	f8d3 30fc 	ldr.w	r3, [r3, #252]	@ 0xfc
34185f74:	e7ab      	b.n	34185ece <RCCEx_GetI2CCLKFreq+0x86>
34185f76:	f1b3 5f40 	cmp.w	r3, #805306368	@ 0x30000000
34185f7a:	d1ca      	bne.n	34185f12 <RCCEx_GetI2CCLKFreq+0xca>
34185f7c:	f7ff f844 	bl	34185008 <HAL_RCCEx_GetPLL4CLKFreq>
34185f80:	e7af      	b.n	34185ee2 <RCCEx_GetI2CCLKFreq+0x9a>
34185f82:	f7fe ffc1 	bl	34184f08 <HAL_RCCEx_GetPLL2CLKFreq>
34185f86:	e7ac      	b.n	34185ee2 <RCCEx_GetI2CCLKFreq+0x9a>
34185f88:	f7fe fffe 	bl	34184f88 <HAL_RCCEx_GetPLL3CLKFreq>
34185f8c:	e7a9      	b.n	34185ee2 <RCCEx_GetI2CCLKFreq+0x9a>
34185f8e:	bf00      	nop
34185f90:	0703000c 	.word	0x0703000c
34185f94:	0700000c 	.word	0x0700000c
34185f98:	0700080c 	.word	0x0700080c
34185f9c:	56028000 	.word	0x56028000
34185fa0:	0701000c 	.word	0x0701000c
34185fa4:	0702040c 	.word	0x0702040c
34185fa8:	0702080c 	.word	0x0702080c
34185fac:	0704080c 	.word	0x0704080c
34185fb0:	0704000c 	.word	0x0704000c
34185fb4:	003d0900 	.word	0x003d0900
34185fb8:	0705040c 	.word	0x0705040c
34185fbc:	03d09000 	.word	0x03d09000
34185fc0:	0705080c 	.word	0x0705080c

34185fc4 <RCCEx_GetLPTIMCLKFreq>:
34185fc4:	b510      	push	{r4, lr}
34185fc6:	f7fd fa1f 	bl	34183408 <LL_RCC_GetClockSource>
34185fca:	4b61      	ldr	r3, [pc, #388]	@ (34186150 <RCCEx_GetLPTIMCLKFreq+0x18c>)
34185fcc:	4298      	cmp	r0, r3
34185fce:	d03a      	beq.n	34186046 <RCCEx_GetLPTIMCLKFreq+0x82>
34185fd0:	d850      	bhi.n	34186074 <RCCEx_GetLPTIMCLKFreq+0xb0>
34185fd2:	f5a3 33fe 	sub.w	r3, r3, #130048	@ 0x1fc00
34185fd6:	4298      	cmp	r0, r3
34185fd8:	f000 80a4 	beq.w	34186124 <RCCEx_GetLPTIMCLKFreq+0x160>
34185fdc:	d813      	bhi.n	34186006 <RCCEx_GetLPTIMCLKFreq+0x42>
34185fde:	f5a3 6340 	sub.w	r3, r3, #3072	@ 0xc00
34185fe2:	4298      	cmp	r0, r3
34185fe4:	f000 8094 	beq.w	34186110 <RCCEx_GetLPTIMCLKFreq+0x14c>
34185fe8:	3b01      	subs	r3, #1
34185fea:	4298      	cmp	r0, r3
34185fec:	d909      	bls.n	34186002 <RCCEx_GetLPTIMCLKFreq+0x3e>
34185fee:	f203 4301 	addw	r3, r3, #1025	@ 0x401
34185ff2:	4298      	cmp	r0, r3
34185ff4:	f000 8096 	beq.w	34186124 <RCCEx_GetLPTIMCLKFreq+0x160>
34185ff8:	f503 6380 	add.w	r3, r3, #1024	@ 0x400
34185ffc:	4298      	cmp	r0, r3
34185ffe:	f000 8091 	beq.w	34186124 <RCCEx_GetLPTIMCLKFreq+0x160>
34186002:	2000      	movs	r0, #0
34186004:	bd10      	pop	{r4, pc}
34186006:	4b53      	ldr	r3, [pc, #332]	@ (34186154 <RCCEx_GetLPTIMCLKFreq+0x190>)
34186008:	4298      	cmp	r0, r3
3418600a:	d015      	beq.n	34186038 <RCCEx_GetLPTIMCLKFreq+0x74>
3418600c:	d808      	bhi.n	34186020 <RCCEx_GetLPTIMCLKFreq+0x5c>
3418600e:	f420 6280 	bic.w	r2, r0, #1024	@ 0x400
34186012:	f5a3 6300 	sub.w	r3, r3, #2048	@ 0x800
34186016:	429a      	cmp	r2, r3
34186018:	d00e      	beq.n	34186038 <RCCEx_GetLPTIMCLKFreq+0x74>
3418601a:	f5a3 4370 	sub.w	r3, r3, #61440	@ 0xf000
3418601e:	e7ed      	b.n	34185ffc <RCCEx_GetLPTIMCLKFreq+0x38>
34186020:	4b4d      	ldr	r3, [pc, #308]	@ (34186158 <RCCEx_GetLPTIMCLKFreq+0x194>)
34186022:	4298      	cmp	r0, r3
34186024:	d00f      	beq.n	34186046 <RCCEx_GetLPTIMCLKFreq+0x82>
34186026:	d80b      	bhi.n	34186040 <RCCEx_GetLPTIMCLKFreq+0x7c>
34186028:	f5a3 4374 	sub.w	r3, r3, #62464	@ 0xf400
3418602c:	4298      	cmp	r0, r3
3418602e:	d003      	beq.n	34186038 <RCCEx_GetLPTIMCLKFreq+0x74>
34186030:	f503 6380 	add.w	r3, r3, #1024	@ 0x400
34186034:	4298      	cmp	r0, r3
34186036:	d1e4      	bne.n	34186002 <RCCEx_GetLPTIMCLKFreq+0x3e>
34186038:	e8bd 4010 	ldmia.w	sp!, {r4, lr}
3418603c:	f7ff b824 	b.w	34185088 <RCCEx_GetCLKPCLKFreq.constprop.0>
34186040:	4b46      	ldr	r3, [pc, #280]	@ (3418615c <RCCEx_GetLPTIMCLKFreq+0x198>)
34186042:	4298      	cmp	r0, r3
34186044:	d1dd      	bne.n	34186002 <RCCEx_GetLPTIMCLKFreq+0x3e>
34186046:	f7fd fa35 	bl	341834b4 <LL_RCC_IC15_IsEnabled>
3418604a:	2800      	cmp	r0, #0
3418604c:	d0d9      	beq.n	34186002 <RCCEx_GetLPTIMCLKFreq+0x3e>
3418604e:	f7fd fa39 	bl	341834c4 <LL_RCC_IC15_GetDivider>
34186052:	4b43      	ldr	r3, [pc, #268]	@ (34186160 <RCCEx_GetLPTIMCLKFreq+0x19c>)
34186054:	4604      	mov	r4, r0
34186056:	f8d3 30fc 	ldr.w	r3, [r3, #252]	@ 0xfc
3418605a:	f003 5340 	and.w	r3, r3, #805306368	@ 0x30000000
3418605e:	f1b3 5f00 	cmp.w	r3, #536870912	@ 0x20000000
34186062:	d072      	beq.n	3418614a <RCCEx_GetLPTIMCLKFreq+0x186>
34186064:	d867      	bhi.n	34186136 <RCCEx_GetLPTIMCLKFreq+0x172>
34186066:	2b00      	cmp	r3, #0
34186068:	d16c      	bne.n	34186144 <RCCEx_GetLPTIMCLKFreq+0x180>
3418606a:	f7fe ff0d 	bl	34184e88 <HAL_RCCEx_GetPLL1CLKFreq>
3418606e:	fbb0 f0f4 	udiv	r0, r0, r4
34186072:	e7c7      	b.n	34186004 <RCCEx_GetLPTIMCLKFreq+0x40>
34186074:	4b3b      	ldr	r3, [pc, #236]	@ (34186164 <RCCEx_GetLPTIMCLKFreq+0x1a0>)
34186076:	4298      	cmp	r0, r3
34186078:	d031      	beq.n	341860de <RCCEx_GetLPTIMCLKFreq+0x11a>
3418607a:	d821      	bhi.n	341860c0 <RCCEx_GetLPTIMCLKFreq+0xfc>
3418607c:	f5a3 437c 	sub.w	r3, r3, #64512	@ 0xfc00
34186080:	4298      	cmp	r0, r3
34186082:	d00f      	beq.n	341860a4 <RCCEx_GetLPTIMCLKFreq+0xe0>
34186084:	d812      	bhi.n	341860ac <RCCEx_GetLPTIMCLKFreq+0xe8>
34186086:	f5a3 6300 	sub.w	r3, r3, #2048	@ 0x800
3418608a:	4298      	cmp	r0, r3
3418608c:	d00a      	beq.n	341860a4 <RCCEx_GetLPTIMCLKFreq+0xe0>
3418608e:	d806      	bhi.n	3418609e <RCCEx_GetLPTIMCLKFreq+0xda>
34186090:	f5a3 4374 	sub.w	r3, r3, #62464	@ 0xf400
34186094:	4298      	cmp	r0, r3
34186096:	d0d6      	beq.n	34186046 <RCCEx_GetLPTIMCLKFreq+0x82>
34186098:	f503 6380 	add.w	r3, r3, #1024	@ 0x400
3418609c:	e7d1      	b.n	34186042 <RCCEx_GetLPTIMCLKFreq+0x7e>
3418609e:	4b32      	ldr	r3, [pc, #200]	@ (34186168 <RCCEx_GetLPTIMCLKFreq+0x1a4>)
341860a0:	4298      	cmp	r0, r3
341860a2:	d1ae      	bne.n	34186002 <RCCEx_GetLPTIMCLKFreq+0x3e>
341860a4:	f7fd f996 	bl	341833d4 <LL_RCC_LSE_IsReady>
341860a8:	03c0      	lsls	r0, r0, #15
341860aa:	e7ab      	b.n	34186004 <RCCEx_GetLPTIMCLKFreq+0x40>
341860ac:	4b2f      	ldr	r3, [pc, #188]	@ (3418616c <RCCEx_GetLPTIMCLKFreq+0x1a8>)
341860ae:	4298      	cmp	r0, r3
341860b0:	d0f8      	beq.n	341860a4 <RCCEx_GetLPTIMCLKFreq+0xe0>
341860b2:	f503 4370 	add.w	r3, r3, #61440	@ 0xf000
341860b6:	4298      	cmp	r0, r3
341860b8:	d011      	beq.n	341860de <RCCEx_GetLPTIMCLKFreq+0x11a>
341860ba:	f5a3 4374 	sub.w	r3, r3, #62464	@ 0xf400
341860be:	e7ef      	b.n	341860a0 <RCCEx_GetLPTIMCLKFreq+0xdc>
341860c0:	4b2b      	ldr	r3, [pc, #172]	@ (34186170 <RCCEx_GetLPTIMCLKFreq+0x1ac>)
341860c2:	4298      	cmp	r0, r3
341860c4:	d015      	beq.n	341860f2 <RCCEx_GetLPTIMCLKFreq+0x12e>
341860c6:	d81b      	bhi.n	34186100 <RCCEx_GetLPTIMCLKFreq+0x13c>
341860c8:	f5a3 4374 	sub.w	r3, r3, #62464	@ 0xf400
341860cc:	4298      	cmp	r0, r3
341860ce:	d006      	beq.n	341860de <RCCEx_GetLPTIMCLKFreq+0x11a>
341860d0:	d80c      	bhi.n	341860ec <RCCEx_GetLPTIMCLKFreq+0x128>
341860d2:	f420 6080 	bic.w	r0, r0, #1024	@ 0x400
341860d6:	f5a3 6300 	sub.w	r3, r3, #2048	@ 0x800
341860da:	4298      	cmp	r0, r3
341860dc:	d191      	bne.n	34186002 <RCCEx_GetLPTIMCLKFreq+0x3e>
341860de:	4b20      	ldr	r3, [pc, #128]	@ (34186160 <RCCEx_GetLPTIMCLKFreq+0x19c>)
341860e0:	685b      	ldr	r3, [r3, #4]
341860e2:	07db      	lsls	r3, r3, #31
341860e4:	d58d      	bpl.n	34186002 <RCCEx_GetLPTIMCLKFreq+0x3e>
341860e6:	f44f 40fa 	mov.w	r0, #32000	@ 0x7d00
341860ea:	e78b      	b.n	34186004 <RCCEx_GetLPTIMCLKFreq+0x40>
341860ec:	4b21      	ldr	r3, [pc, #132]	@ (34186174 <RCCEx_GetLPTIMCLKFreq+0x1b0>)
341860ee:	4298      	cmp	r0, r3
341860f0:	d187      	bne.n	34186002 <RCCEx_GetLPTIMCLKFreq+0x3e>
341860f2:	f7fd f8ef 	bl	341832d4 <HAL_RCC_GetSysClockFreq>
341860f6:	4b1a      	ldr	r3, [pc, #104]	@ (34186160 <RCCEx_GetLPTIMCLKFreq+0x19c>)
341860f8:	6a5b      	ldr	r3, [r3, #36]	@ 0x24
341860fa:	f3c3 6301 	ubfx	r3, r3, #24, #2
341860fe:	e00f      	b.n	34186120 <RCCEx_GetLPTIMCLKFreq+0x15c>
34186100:	4b1d      	ldr	r3, [pc, #116]	@ (34186178 <RCCEx_GetLPTIMCLKFreq+0x1b4>)
34186102:	f420 6280 	bic.w	r2, r0, #1024	@ 0x400
34186106:	429a      	cmp	r2, r3
34186108:	d0f3      	beq.n	341860f2 <RCCEx_GetLPTIMCLKFreq+0x12e>
3418610a:	f503 6300 	add.w	r3, r3, #2048	@ 0x800
3418610e:	e7ee      	b.n	341860ee <RCCEx_GetLPTIMCLKFreq+0x12a>
34186110:	f7fd f8e0 	bl	341832d4 <HAL_RCC_GetSysClockFreq>
34186114:	f7fd f9e0 	bl	341834d8 <RCCEx_GetHCLKFreq>
34186118:	4b11      	ldr	r3, [pc, #68]	@ (34186160 <RCCEx_GetLPTIMCLKFreq+0x19c>)
3418611a:	6a5b      	ldr	r3, [r3, #36]	@ 0x24
3418611c:	f003 0307 	and.w	r3, r3, #7
34186120:	40d8      	lsrs	r0, r3
34186122:	e76f      	b.n	34186004 <RCCEx_GetLPTIMCLKFreq+0x40>
34186124:	f7fd f8d6 	bl	341832d4 <HAL_RCC_GetSysClockFreq>
34186128:	f7fd f9d6 	bl	341834d8 <RCCEx_GetHCLKFreq>
3418612c:	4b0c      	ldr	r3, [pc, #48]	@ (34186160 <RCCEx_GetLPTIMCLKFreq+0x19c>)
3418612e:	6a5b      	ldr	r3, [r3, #36]	@ 0x24
34186130:	f3c3 3302 	ubfx	r3, r3, #12, #3
34186134:	e7f4      	b.n	34186120 <RCCEx_GetLPTIMCLKFreq+0x15c>
34186136:	f1b3 5f40 	cmp.w	r3, #805306368	@ 0x30000000
3418613a:	f47f af62 	bne.w	34186002 <RCCEx_GetLPTIMCLKFreq+0x3e>
3418613e:	f7fe ff63 	bl	34185008 <HAL_RCCEx_GetPLL4CLKFreq>
34186142:	e794      	b.n	3418606e <RCCEx_GetLPTIMCLKFreq+0xaa>
34186144:	f7fe fee0 	bl	34184f08 <HAL_RCCEx_GetPLL2CLKFreq>
34186148:	e791      	b.n	3418606e <RCCEx_GetLPTIMCLKFreq+0xaa>
3418614a:	f7fe ff1d 	bl	34184f88 <HAL_RCCEx_GetPLL3CLKFreq>
3418614e:	e78e      	b.n	3418606e <RCCEx_GetLPTIMCLKFreq+0xaa>
34186150:	0702102c 	.word	0x0702102c
34186154:	0701102c 	.word	0x0701102c
34186158:	0702082c 	.word	0x0702082c
3418615c:	07020c2c 	.word	0x07020c2c
34186160:	56028000 	.word	0x56028000
34186164:	07040c2c 	.word	0x07040c2c
34186168:	07030c2c 	.word	0x07030c2c
3418616c:	0703182c 	.word	0x0703182c
34186170:	07050c2c 	.word	0x07050c2c
34186174:	0705082c 	.word	0x0705082c
34186178:	0705102c 	.word	0x0705102c

3418617c <HAL_RCCEx_GetPeriphCLKFreq>:
3418617c:	b538      	push	{r3, r4, r5, lr}
3418617e:	f100 4360 	add.w	r3, r0, #3758096384	@ 0xe0000000
34186182:	430b      	orrs	r3, r1
34186184:	f000 8444 	beq.w	34186a10 <HAL_RCCEx_GetPeriphCLKFreq+0x894>
34186188:	4bbf      	ldr	r3, [pc, #764]	@ (34186488 <HAL_RCCEx_GetPeriphCLKFreq+0x30c>)
3418618a:	4298      	cmp	r0, r3
3418618c:	f171 0300 	sbcs.w	r3, r1, #0
34186190:	f080 80e6 	bcs.w	34186360 <HAL_RCCEx_GetPeriphCLKFreq+0x1e4>
34186194:	f5a0 3380 	sub.w	r3, r0, #65536	@ 0x10000
34186198:	430b      	orrs	r3, r1
3418619a:	f000 835b 	beq.w	34186854 <HAL_RCCEx_GetPeriphCLKFreq+0x6d8>
3418619e:	f1b0 1f01 	cmp.w	r0, #65537	@ 0x10001
341861a2:	f171 0300 	sbcs.w	r3, r1, #0
341861a6:	d26a      	bcs.n	3418627e <HAL_RCCEx_GetPeriphCLKFreq+0x102>
341861a8:	f5a0 7300 	sub.w	r3, r0, #512	@ 0x200
341861ac:	430b      	orrs	r3, r1
341861ae:	f000 82b9 	beq.w	34186724 <HAL_RCCEx_GetPeriphCLKFreq+0x5a8>
341861b2:	f240 2301 	movw	r3, #513	@ 0x201
341861b6:	4298      	cmp	r0, r3
341861b8:	f171 0300 	sbcs.w	r3, r1, #0
341861bc:	d224      	bcs.n	34186208 <HAL_RCCEx_GetPeriphCLKFreq+0x8c>
341861be:	2809      	cmp	r0, #9
341861c0:	f171 0300 	sbcs.w	r3, r1, #0
341861c4:	d215      	bcs.n	341861f2 <HAL_RCCEx_GetPeriphCLKFreq+0x76>
341861c6:	ea50 0301 	orrs.w	r3, r0, r1
341861ca:	d01b      	beq.n	34186204 <HAL_RCCEx_GetPeriphCLKFreq+0x88>
341861cc:	3801      	subs	r0, #1
341861ce:	f141 31ff 	adc.w	r1, r1, #4294967295
341861d2:	2808      	cmp	r0, #8
341861d4:	f171 0100 	sbcs.w	r1, r1, #0
341861d8:	d214      	bcs.n	34186204 <HAL_RCCEx_GetPeriphCLKFreq+0x88>
341861da:	2807      	cmp	r0, #7
341861dc:	d812      	bhi.n	34186204 <HAL_RCCEx_GetPeriphCLKFreq+0x88>
341861de:	e8df f010 	tbh	[pc, r0, lsl #1]
341861e2:	01a6      	.short	0x01a6
341861e4:	0011020f 	.word	0x0011020f
341861e8:	00110285 	.word	0x00110285
341861ec:	00110011 	.word	0x00110011
341861f0:	0235      	.short	0x0235
341861f2:	f1a0 0310 	sub.w	r3, r0, #16
341861f6:	430b      	orrs	r3, r1
341861f8:	f000 8242 	beq.w	34186680 <HAL_RCCEx_GetPeriphCLKFreq+0x504>
341861fc:	3820      	subs	r0, #32
341861fe:	4308      	orrs	r0, r1
34186200:	f000 8268 	beq.w	341866d4 <HAL_RCCEx_GetPeriphCLKFreq+0x558>
34186204:	2000      	movs	r0, #0
34186206:	e219      	b.n	3418663c <HAL_RCCEx_GetPeriphCLKFreq+0x4c0>
34186208:	f5a0 5300 	sub.w	r3, r0, #8192	@ 0x2000
3418620c:	430b      	orrs	r3, r1
3418620e:	f000 831d 	beq.w	3418684c <HAL_RCCEx_GetPeriphCLKFreq+0x6d0>
34186212:	f242 0301 	movw	r3, #8193	@ 0x2001
34186216:	4298      	cmp	r0, r3
34186218:	f171 0300 	sbcs.w	r3, r1, #0
3418621c:	d224      	bcs.n	34186268 <HAL_RCCEx_GetPeriphCLKFreq+0xec>
3418621e:	f5a0 6300 	sub.w	r3, r0, #2048	@ 0x800
34186222:	430b      	orrs	r3, r1
34186224:	f000 82df 	beq.w	341867e6 <HAL_RCCEx_GetPeriphCLKFreq+0x66a>
34186228:	f5a0 5380 	sub.w	r3, r0, #4096	@ 0x1000
3418622c:	430b      	orrs	r3, r1
3418622e:	f000 8308 	beq.w	34186842 <HAL_RCCEx_GetPeriphCLKFreq+0x6c6>
34186232:	f5a0 6080 	sub.w	r0, r0, #1024	@ 0x400
34186236:	4308      	orrs	r0, r1
34186238:	d1e4      	bne.n	34186204 <HAL_RCCEx_GetPeriphCLKFreq+0x88>
3418623a:	4d94      	ldr	r5, [pc, #592]	@ (3418648c <HAL_RCCEx_GetPeriphCLKFreq+0x310>)
3418623c:	f8d5 314c 	ldr.w	r3, [r5, #332]	@ 0x14c
34186240:	f003 0303 	and.w	r3, r3, #3
34186244:	2b02      	cmp	r3, #2
34186246:	f000 82c1 	beq.w	341867cc <HAL_RCCEx_GetPeriphCLKFreq+0x650>
3418624a:	2b03      	cmp	r3, #3
3418624c:	f000 8256 	beq.w	341866fc <HAL_RCCEx_GetPeriphCLKFreq+0x580>
34186250:	2b01      	cmp	r3, #1
34186252:	f000 824b 	beq.w	341866ec <HAL_RCCEx_GetPeriphCLKFreq+0x570>
34186256:	f7fd f83d 	bl	341832d4 <HAL_RCC_GetSysClockFreq>
3418625a:	f7fd f93d 	bl	341834d8 <RCCEx_GetHCLKFreq>
3418625e:	6a6b      	ldr	r3, [r5, #36]	@ 0x24
34186260:	f003 0307 	and.w	r3, r3, #7
34186264:	40d8      	lsrs	r0, r3
34186266:	e1e9      	b.n	3418663c <HAL_RCCEx_GetPeriphCLKFreq+0x4c0>
34186268:	f5a0 4380 	sub.w	r3, r0, #16384	@ 0x4000
3418626c:	430b      	orrs	r3, r1
3418626e:	f000 82ef 	beq.w	34186850 <HAL_RCCEx_GetPeriphCLKFreq+0x6d4>
34186272:	f5a0 4000 	sub.w	r0, r0, #32768	@ 0x8000
34186276:	4308      	orrs	r0, r1
34186278:	d1c4      	bne.n	34186204 <HAL_RCCEx_GetPeriphCLKFreq+0x88>
3418627a:	4885      	ldr	r0, [pc, #532]	@ (34186490 <HAL_RCCEx_GetPeriphCLKFreq+0x314>)
3418627c:	e2e2      	b.n	34186844 <HAL_RCCEx_GetPeriphCLKFreq+0x6c8>
3418627e:	f5a0 0300 	sub.w	r3, r0, #8388608	@ 0x800000
34186282:	430b      	orrs	r3, r1
34186284:	f000 82f6 	beq.w	34186874 <HAL_RCCEx_GetPeriphCLKFreq+0x6f8>
34186288:	4b82      	ldr	r3, [pc, #520]	@ (34186494 <HAL_RCCEx_GetPeriphCLKFreq+0x318>)
3418628a:	4298      	cmp	r0, r3
3418628c:	f171 0300 	sbcs.w	r3, r1, #0
34186290:	d224      	bcs.n	341862dc <HAL_RCCEx_GetPeriphCLKFreq+0x160>
34186292:	f5a0 1380 	sub.w	r3, r0, #1048576	@ 0x100000
34186296:	430b      	orrs	r3, r1
34186298:	f000 82e8 	beq.w	3418686c <HAL_RCCEx_GetPeriphCLKFreq+0x6f0>
3418629c:	4b7e      	ldr	r3, [pc, #504]	@ (34186498 <HAL_RCCEx_GetPeriphCLKFreq+0x31c>)
3418629e:	4298      	cmp	r0, r3
341862a0:	f171 0300 	sbcs.w	r3, r1, #0
341862a4:	d20f      	bcs.n	341862c6 <HAL_RCCEx_GetPeriphCLKFreq+0x14a>
341862a6:	f5a0 2380 	sub.w	r3, r0, #262144	@ 0x40000
341862aa:	430b      	orrs	r3, r1
341862ac:	f000 82d7 	beq.w	3418685e <HAL_RCCEx_GetPeriphCLKFreq+0x6e2>
341862b0:	f5a0 2300 	sub.w	r3, r0, #524288	@ 0x80000
341862b4:	430b      	orrs	r3, r1
341862b6:	f000 82d7 	beq.w	34186868 <HAL_RCCEx_GetPeriphCLKFreq+0x6ec>
341862ba:	f5a0 3000 	sub.w	r0, r0, #131072	@ 0x20000
341862be:	4308      	orrs	r0, r1
341862c0:	d1a0      	bne.n	34186204 <HAL_RCCEx_GetPeriphCLKFreq+0x88>
341862c2:	4876      	ldr	r0, [pc, #472]	@ (3418649c <HAL_RCCEx_GetPeriphCLKFreq+0x320>)
341862c4:	e2c7      	b.n	34186856 <HAL_RCCEx_GetPeriphCLKFreq+0x6da>
341862c6:	f5a0 1300 	sub.w	r3, r0, #2097152	@ 0x200000
341862ca:	430b      	orrs	r3, r1
341862cc:	f000 82d0 	beq.w	34186870 <HAL_RCCEx_GetPeriphCLKFreq+0x6f4>
341862d0:	f5a0 0080 	sub.w	r0, r0, #4194304	@ 0x400000
341862d4:	4308      	orrs	r0, r1
341862d6:	d195      	bne.n	34186204 <HAL_RCCEx_GetPeriphCLKFreq+0x88>
341862d8:	4871      	ldr	r0, [pc, #452]	@ (341864a0 <HAL_RCCEx_GetPeriphCLKFreq+0x324>)
341862da:	e2c1      	b.n	34186860 <HAL_RCCEx_GetPeriphCLKFreq+0x6e4>
341862dc:	f100 437c 	add.w	r3, r0, #4227858432	@ 0xfc000000
341862e0:	430b      	orrs	r3, r1
341862e2:	f000 834a 	beq.w	3418697a <HAL_RCCEx_GetPeriphCLKFreq+0x7fe>
341862e6:	4b6f      	ldr	r3, [pc, #444]	@ (341864a4 <HAL_RCCEx_GetPeriphCLKFreq+0x328>)
341862e8:	4298      	cmp	r0, r3
341862ea:	f171 0300 	sbcs.w	r3, r1, #0
341862ee:	d228      	bcs.n	34186342 <HAL_RCCEx_GetPeriphCLKFreq+0x1c6>
341862f0:	f100 437f 	add.w	r3, r0, #4278190080	@ 0xff000000
341862f4:	430b      	orrs	r3, r1
341862f6:	f000 82ff 	beq.w	341868f8 <HAL_RCCEx_GetPeriphCLKFreq+0x77c>
341862fa:	f100 407e 	add.w	r0, r0, #4261412864	@ 0xfe000000
341862fe:	4308      	orrs	r0, r1
34186300:	d180      	bne.n	34186204 <HAL_RCCEx_GetPeriphCLKFreq+0x88>
34186302:	4d62      	ldr	r5, [pc, #392]	@ (3418648c <HAL_RCCEx_GetPeriphCLKFreq+0x310>)
34186304:	f8d5 3154 	ldr.w	r3, [r5, #340]	@ 0x154
34186308:	f403 23e0 	and.w	r3, r3, #458752	@ 0x70000
3418630c:	f5b3 2f80 	cmp.w	r3, #262144	@ 0x40000
34186310:	f000 8195 	beq.w	3418663e <HAL_RCCEx_GetPeriphCLKFreq+0x4c2>
34186314:	f200 8316 	bhi.w	34186944 <HAL_RCCEx_GetPeriphCLKFreq+0x7c8>
34186318:	f5b3 3f00 	cmp.w	r3, #131072	@ 0x20000
3418631c:	f000 831c 	beq.w	34186958 <HAL_RCCEx_GetPeriphCLKFreq+0x7dc>
34186320:	f240 81e1 	bls.w	341866e6 <HAL_RCCEx_GetPeriphCLKFreq+0x56a>
34186324:	f5b3 3f40 	cmp.w	r3, #196608	@ 0x30000
34186328:	f47f af6c 	bne.w	34186204 <HAL_RCCEx_GetPeriphCLKFreq+0x88>
3418632c:	f7fd f88c 	bl	34183448 <LL_RCC_IC8_IsEnabled>
34186330:	2800      	cmp	r0, #0
34186332:	f43f af67 	beq.w	34186204 <HAL_RCCEx_GetPeriphCLKFreq+0x88>
34186336:	f7fd f88f 	bl	34183458 <LL_RCC_IC8_GetDivider>
3418633a:	f8d5 30e0 	ldr.w	r3, [r5, #224]	@ 0xe0
3418633e:	4604      	mov	r4, r0
34186340:	e191      	b.n	34186666 <HAL_RCCEx_GetPeriphCLKFreq+0x4ea>
34186342:	f100 4378 	add.w	r3, r0, #4160749568	@ 0xf8000000
34186346:	430b      	orrs	r3, r1
34186348:	f000 8341 	beq.w	341869ce <HAL_RCCEx_GetPeriphCLKFreq+0x852>
3418634c:	f100 4070 	add.w	r0, r0, #4026531840	@ 0xf0000000
34186350:	4308      	orrs	r0, r1
34186352:	f47f af57 	bne.w	34186204 <HAL_RCCEx_GetPeriphCLKFreq+0x88>
34186356:	4854      	ldr	r0, [pc, #336]	@ (341864a8 <HAL_RCCEx_GetPeriphCLKFreq+0x32c>)
34186358:	e8bd 4038 	ldmia.w	sp!, {r3, r4, r5, lr}
3418635c:	f7ff bbda 	b.w	34185b14 <RCCEx_GetSAICLKFreq>
34186360:	2300      	movs	r3, #0
34186362:	f44f 5280 	mov.w	r2, #4096	@ 0x1000
34186366:	4291      	cmp	r1, r2
34186368:	bf08      	it	eq
3418636a:	4298      	cmpeq	r0, r3
3418636c:	f000 836c 	beq.w	34186a48 <HAL_RCCEx_GetPeriphCLKFreq+0x8cc>
34186370:	4283      	cmp	r3, r0
34186372:	418a      	sbcs	r2, r1
34186374:	d35f      	bcc.n	34186436 <HAL_RCCEx_GetPeriphCLKFreq+0x2ba>
34186376:	2210      	movs	r2, #16
34186378:	4291      	cmp	r1, r2
3418637a:	bf08      	it	eq
3418637c:	4298      	cmpeq	r0, r3
3418637e:	f000 8356 	beq.w	34186a2e <HAL_RCCEx_GetPeriphCLKFreq+0x8b2>
34186382:	4283      	cmp	r3, r0
34186384:	418a      	sbcs	r2, r1
34186386:	d329      	bcc.n	341863dc <HAL_RCCEx_GetPeriphCLKFreq+0x260>
34186388:	2202      	movs	r2, #2
3418638a:	4291      	cmp	r1, r2
3418638c:	bf08      	it	eq
3418638e:	4298      	cmpeq	r0, r3
34186390:	f000 8346 	beq.w	34186a20 <HAL_RCCEx_GetPeriphCLKFreq+0x8a4>
34186394:	4283      	cmp	r3, r0
34186396:	418a      	sbcs	r2, r1
34186398:	d314      	bcc.n	341863c4 <HAL_RCCEx_GetPeriphCLKFreq+0x248>
3418639a:	4299      	cmp	r1, r3
3418639c:	bf08      	it	eq
3418639e:	f1b0 4f00 	cmpeq.w	r0, #2147483648	@ 0x80000000
341863a2:	f000 8337 	beq.w	34186a14 <HAL_RCCEx_GetPeriphCLKFreq+0x898>
341863a6:	2901      	cmp	r1, #1
341863a8:	bf08      	it	eq
341863aa:	4298      	cmpeq	r0, r3
341863ac:	f000 8334 	beq.w	34186a18 <HAL_RCCEx_GetPeriphCLKFreq+0x89c>
341863b0:	f100 4040 	add.w	r0, r0, #3221225472	@ 0xc0000000
341863b4:	4308      	orrs	r0, r1
341863b6:	f47f af25 	bne.w	34186204 <HAL_RCCEx_GetPeriphCLKFreq+0x88>
341863ba:	483c      	ldr	r0, [pc, #240]	@ (341864ac <HAL_RCCEx_GetPeriphCLKFreq+0x330>)
341863bc:	e8bd 4038 	ldmia.w	sp!, {r3, r4, r5, lr}
341863c0:	f7ff bcdc 	b.w	34185d7c <RCCEx_GetSDMMCCLKFreq>
341863c4:	2904      	cmp	r1, #4
341863c6:	bf08      	it	eq
341863c8:	4298      	cmpeq	r0, r3
341863ca:	f000 832e 	beq.w	34186a2a <HAL_RCCEx_GetPeriphCLKFreq+0x8ae>
341863ce:	2908      	cmp	r1, #8
341863d0:	bf08      	it	eq
341863d2:	4298      	cmpeq	r0, r3
341863d4:	f47f af16 	bne.w	34186204 <HAL_RCCEx_GetPeriphCLKFreq+0x88>
341863d8:	4835      	ldr	r0, [pc, #212]	@ (341864b0 <HAL_RCCEx_GetPeriphCLKFreq+0x334>)
341863da:	e322      	b.n	34186a22 <HAL_RCCEx_GetPeriphCLKFreq+0x8a6>
341863dc:	f44f 7200 	mov.w	r2, #512	@ 0x200
341863e0:	4291      	cmp	r1, r2
341863e2:	bf08      	it	eq
341863e4:	4298      	cmpeq	r0, r3
341863e6:	f000 832b 	beq.w	34186a40 <HAL_RCCEx_GetPeriphCLKFreq+0x8c4>
341863ea:	4283      	cmp	r3, r0
341863ec:	418a      	sbcs	r2, r1
341863ee:	d311      	bcc.n	34186414 <HAL_RCCEx_GetPeriphCLKFreq+0x298>
341863f0:	2940      	cmp	r1, #64	@ 0x40
341863f2:	bf08      	it	eq
341863f4:	4298      	cmpeq	r0, r3
341863f6:	f000 831c 	beq.w	34186a32 <HAL_RCCEx_GetPeriphCLKFreq+0x8b6>
341863fa:	f5b1 7f80 	cmp.w	r1, #256	@ 0x100
341863fe:	bf08      	it	eq
34186400:	4298      	cmpeq	r0, r3
34186402:	f000 8318 	beq.w	34186a36 <HAL_RCCEx_GetPeriphCLKFreq+0x8ba>
34186406:	2920      	cmp	r1, #32
34186408:	bf08      	it	eq
3418640a:	2800      	cmpeq	r0, #0
3418640c:	f47f aefa 	bne.w	34186204 <HAL_RCCEx_GetPeriphCLKFreq+0x88>
34186410:	4828      	ldr	r0, [pc, #160]	@ (341864b4 <HAL_RCCEx_GetPeriphCLKFreq+0x338>)
34186412:	e306      	b.n	34186a22 <HAL_RCCEx_GetPeriphCLKFreq+0x8a6>
34186414:	f5b1 6f80 	cmp.w	r1, #1024	@ 0x400
34186418:	bf08      	it	eq
3418641a:	4298      	cmpeq	r0, r3
3418641c:	f000 8312 	beq.w	34186a44 <HAL_RCCEx_GetPeriphCLKFreq+0x8c8>
34186420:	f5b1 6f00 	cmp.w	r1, #2048	@ 0x800
34186424:	bf08      	it	eq
34186426:	4298      	cmpeq	r0, r3
34186428:	f47f aeec 	bne.w	34186204 <HAL_RCCEx_GetPeriphCLKFreq+0x88>
3418642c:	4822      	ldr	r0, [pc, #136]	@ (341864b8 <HAL_RCCEx_GetPeriphCLKFreq+0x33c>)
3418642e:	e8bd 4038 	ldmia.w	sp!, {r3, r4, r5, lr}
34186432:	f7ff b91f 	b.w	34185674 <RCCEx_GetUARTCLKFreq>
34186436:	f44f 2200 	mov.w	r2, #524288	@ 0x80000
3418643a:	4291      	cmp	r1, r2
3418643c:	bf08      	it	eq
3418643e:	4298      	cmpeq	r0, r3
34186440:	f000 830c 	beq.w	34186a5c <HAL_RCCEx_GetPeriphCLKFreq+0x8e0>
34186444:	4283      	cmp	r3, r0
34186446:	418a      	sbcs	r2, r1
34186448:	d34b      	bcc.n	341864e2 <HAL_RCCEx_GetPeriphCLKFreq+0x366>
3418644a:	f44f 3280 	mov.w	r2, #65536	@ 0x10000
3418644e:	4291      	cmp	r1, r2
34186450:	bf08      	it	eq
34186452:	4298      	cmpeq	r0, r3
34186454:	f000 82fe 	beq.w	34186a54 <HAL_RCCEx_GetPeriphCLKFreq+0x8d8>
34186458:	4283      	cmp	r3, r0
3418645a:	418a      	sbcs	r2, r1
3418645c:	d330      	bcc.n	341864c0 <HAL_RCCEx_GetPeriphCLKFreq+0x344>
3418645e:	f5b1 4f80 	cmp.w	r1, #16384	@ 0x4000
34186462:	bf08      	it	eq
34186464:	4298      	cmpeq	r0, r3
34186466:	f000 82f1 	beq.w	34186a4c <HAL_RCCEx_GetPeriphCLKFreq+0x8d0>
3418646a:	f5b1 4f00 	cmp.w	r1, #32768	@ 0x8000
3418646e:	bf08      	it	eq
34186470:	4298      	cmpeq	r0, r3
34186472:	f000 82ed 	beq.w	34186a50 <HAL_RCCEx_GetPeriphCLKFreq+0x8d4>
34186476:	f5b1 5f00 	cmp.w	r1, #8192	@ 0x2000
3418647a:	bf08      	it	eq
3418647c:	2800      	cmpeq	r0, #0
3418647e:	f47f aec1 	bne.w	34186204 <HAL_RCCEx_GetPeriphCLKFreq+0x88>
34186482:	480e      	ldr	r0, [pc, #56]	@ (341864bc <HAL_RCCEx_GetPeriphCLKFreq+0x340>)
34186484:	e2d8      	b.n	34186a38 <HAL_RCCEx_GetPeriphCLKFreq+0x8bc>
34186486:	bf00      	nop
34186488:	20000001 	.word	0x20000001
3418648c:	56028000 	.word	0x56028000
34186490:	07000c0c 	.word	0x07000c0c
34186494:	00800001 	.word	0x00800001
34186498:	00100001 	.word	0x00100001
3418649c:	0700140c 	.word	0x0700140c
341864a0:	0700182c 	.word	0x0700182c
341864a4:	04000001 	.word	0x04000001
341864a8:	07001418 	.word	0x07001418
341864ac:	0300001c 	.word	0x0300001c
341864b0:	07000c20 	.word	0x07000c20
341864b4:	07001420 	.word	0x07001420
341864b8:	07000c30 	.word	0x07000c30
341864bc:	07001430 	.word	0x07001430
341864c0:	f5b1 3f00 	cmp.w	r1, #131072	@ 0x20000
341864c4:	bf08      	it	eq
341864c6:	4298      	cmpeq	r0, r3
341864c8:	f000 82c6 	beq.w	34186a58 <HAL_RCCEx_GetPeriphCLKFreq+0x8dc>
341864cc:	f5b1 2f80 	cmp.w	r1, #262144	@ 0x40000
341864d0:	bf08      	it	eq
341864d2:	4298      	cmpeq	r0, r3
341864d4:	f47f ae96 	bne.w	34186204 <HAL_RCCEx_GetPeriphCLKFreq+0x88>
341864d8:	48b4      	ldr	r0, [pc, #720]	@ (341867ac <HAL_RCCEx_GetPeriphCLKFreq+0x630>)
341864da:	e8bd 4038 	ldmia.w	sp!, {r3, r4, r5, lr}
341864de:	f7fe bf33 	b.w	34185348 <RCCEx_GetOTGPHYCLKFreq>
341864e2:	f44f 0280 	mov.w	r2, #4194304	@ 0x400000
341864e6:	4291      	cmp	r1, r2
341864e8:	bf08      	it	eq
341864ea:	4298      	cmpeq	r0, r3
341864ec:	f000 82bd 	beq.w	34186a6a <HAL_RCCEx_GetPeriphCLKFreq+0x8ee>
341864f0:	4283      	cmp	r3, r0
341864f2:	418a      	sbcs	r2, r1
341864f4:	d30d      	bcc.n	34186512 <HAL_RCCEx_GetPeriphCLKFreq+0x396>
341864f6:	f5b1 1f80 	cmp.w	r1, #1048576	@ 0x100000
341864fa:	bf08      	it	eq
341864fc:	4298      	cmpeq	r0, r3
341864fe:	f000 82b2 	beq.w	34186a66 <HAL_RCCEx_GetPeriphCLKFreq+0x8ea>
34186502:	f5b1 1f00 	cmp.w	r1, #2097152	@ 0x200000
34186506:	bf08      	it	eq
34186508:	4298      	cmpeq	r0, r3
3418650a:	f47f ae7b 	bne.w	34186204 <HAL_RCCEx_GetPeriphCLKFreq+0x88>
3418650e:	48a8      	ldr	r0, [pc, #672]	@ (341867b0 <HAL_RCCEx_GetPeriphCLKFreq+0x634>)
34186510:	e2a5      	b.n	34186a5e <HAL_RCCEx_GetPeriphCLKFreq+0x8e2>
34186512:	f5b1 0f00 	cmp.w	r1, #8388608	@ 0x800000
34186516:	bf08      	it	eq
34186518:	4298      	cmpeq	r0, r3
3418651a:	f000 82ab 	beq.w	34186a74 <HAL_RCCEx_GetPeriphCLKFreq+0x8f8>
3418651e:	f1b1 7f80 	cmp.w	r1, #16777216	@ 0x1000000
34186522:	bf08      	it	eq
34186524:	4298      	cmpeq	r0, r3
34186526:	f47f ae6d 	bne.w	34186204 <HAL_RCCEx_GetPeriphCLKFreq+0x88>
3418652a:	48a2      	ldr	r0, [pc, #648]	@ (341867b4 <HAL_RCCEx_GetPeriphCLKFreq+0x638>)
3418652c:	e29e      	b.n	34186a6c <HAL_RCCEx_GetPeriphCLKFreq+0x8f0>
3418652e:	4da2      	ldr	r5, [pc, #648]	@ (341867b8 <HAL_RCCEx_GetPeriphCLKFreq+0x63c>)
34186530:	f8d5 3144 	ldr.w	r3, [r5, #324]	@ 0x144
34186534:	f003 0370 	and.w	r3, r3, #112	@ 0x70
34186538:	2b40      	cmp	r3, #64	@ 0x40
3418653a:	d053      	beq.n	341865e4 <HAL_RCCEx_GetPeriphCLKFreq+0x468>
3418653c:	d814      	bhi.n	34186568 <HAL_RCCEx_GetPeriphCLKFreq+0x3ec>
3418653e:	2b20      	cmp	r3, #32
34186540:	d025      	beq.n	3418658e <HAL_RCCEx_GetPeriphCLKFreq+0x412>
34186542:	d805      	bhi.n	34186550 <HAL_RCCEx_GetPeriphCLKFreq+0x3d4>
34186544:	bb03      	cbnz	r3, 34186588 <HAL_RCCEx_GetPeriphCLKFreq+0x40c>
34186546:	f7fc fec5 	bl	341832d4 <HAL_RCC_GetSysClockFreq>
3418654a:	f7fc ffc5 	bl	341834d8 <RCCEx_GetHCLKFreq>
3418654e:	e002      	b.n	34186556 <HAL_RCCEx_GetPeriphCLKFreq+0x3da>
34186550:	2b30      	cmp	r3, #48	@ 0x30
34186552:	d034      	beq.n	341865be <HAL_RCCEx_GetPeriphCLKFreq+0x442>
34186554:	2000      	movs	r0, #0
34186556:	4b98      	ldr	r3, [pc, #608]	@ (341867b8 <HAL_RCCEx_GetPeriphCLKFreq+0x63c>)
34186558:	f8d3 3144 	ldr.w	r3, [r3, #324]	@ 0x144
3418655c:	f3c3 2307 	ubfx	r3, r3, #8, #8
34186560:	3301      	adds	r3, #1
34186562:	fbb0 f0f3 	udiv	r0, r0, r3
34186566:	e069      	b.n	3418663c <HAL_RCCEx_GetPeriphCLKFreq+0x4c0>
34186568:	2b60      	cmp	r3, #96	@ 0x60
3418656a:	d047      	beq.n	341865fc <HAL_RCCEx_GetPeriphCLKFreq+0x480>
3418656c:	2b70      	cmp	r3, #112	@ 0x70
3418656e:	d03f      	beq.n	341865f0 <HAL_RCCEx_GetPeriphCLKFreq+0x474>
34186570:	2b50      	cmp	r3, #80	@ 0x50
34186572:	d1ef      	bne.n	34186554 <HAL_RCCEx_GetPeriphCLKFreq+0x3d8>
34186574:	f7fc ff1e 	bl	341833b4 <LL_RCC_HSI_IsReady>
34186578:	2800      	cmp	r0, #0
3418657a:	d0eb      	beq.n	34186554 <HAL_RCCEx_GetPeriphCLKFreq+0x3d8>
3418657c:	6cab      	ldr	r3, [r5, #72]	@ 0x48
3418657e:	488f      	ldr	r0, [pc, #572]	@ (341867bc <HAL_RCCEx_GetPeriphCLKFreq+0x640>)
34186580:	f3c3 13c1 	ubfx	r3, r3, #7, #2
34186584:	40d8      	lsrs	r0, r3
34186586:	e7e6      	b.n	34186556 <HAL_RCCEx_GetPeriphCLKFreq+0x3da>
34186588:	f7fe fd7e 	bl	34185088 <RCCEx_GetCLKPCLKFreq.constprop.0>
3418658c:	e7e3      	b.n	34186556 <HAL_RCCEx_GetPeriphCLKFreq+0x3da>
3418658e:	f7fc ff49 	bl	34183424 <LL_RCC_IC7_IsEnabled>
34186592:	2800      	cmp	r0, #0
34186594:	d0de      	beq.n	34186554 <HAL_RCCEx_GetPeriphCLKFreq+0x3d8>
34186596:	f7fc ff4d 	bl	34183434 <LL_RCC_IC7_GetDivider>
3418659a:	4604      	mov	r4, r0
3418659c:	f8d5 30dc 	ldr.w	r3, [r5, #220]	@ 0xdc
341865a0:	f003 5340 	and.w	r3, r3, #805306368	@ 0x30000000
341865a4:	f1b3 5f00 	cmp.w	r3, #536870912	@ 0x20000000
341865a8:	d019      	beq.n	341865de <HAL_RCCEx_GetPeriphCLKFreq+0x462>
341865aa:	d812      	bhi.n	341865d2 <HAL_RCCEx_GetPeriphCLKFreq+0x456>
341865ac:	b913      	cbnz	r3, 341865b4 <HAL_RCCEx_GetPeriphCLKFreq+0x438>
341865ae:	f7fe fc6b 	bl	34184e88 <HAL_RCCEx_GetPLL1CLKFreq>
341865b2:	e001      	b.n	341865b8 <HAL_RCCEx_GetPeriphCLKFreq+0x43c>
341865b4:	f7fe fca8 	bl	34184f08 <HAL_RCCEx_GetPLL2CLKFreq>
341865b8:	fbb0 f0f4 	udiv	r0, r0, r4
341865bc:	e7cb      	b.n	34186556 <HAL_RCCEx_GetPeriphCLKFreq+0x3da>
341865be:	f7fc ff43 	bl	34183448 <LL_RCC_IC8_IsEnabled>
341865c2:	2800      	cmp	r0, #0
341865c4:	d0c6      	beq.n	34186554 <HAL_RCCEx_GetPeriphCLKFreq+0x3d8>
341865c6:	f7fc ff47 	bl	34183458 <LL_RCC_IC8_GetDivider>
341865ca:	f8d5 30e0 	ldr.w	r3, [r5, #224]	@ 0xe0
341865ce:	4604      	mov	r4, r0
341865d0:	e7e6      	b.n	341865a0 <HAL_RCCEx_GetPeriphCLKFreq+0x424>
341865d2:	f1b3 5f40 	cmp.w	r3, #805306368	@ 0x30000000
341865d6:	d1bd      	bne.n	34186554 <HAL_RCCEx_GetPeriphCLKFreq+0x3d8>
341865d8:	f7fe fd16 	bl	34185008 <HAL_RCCEx_GetPLL4CLKFreq>
341865dc:	e7ec      	b.n	341865b8 <HAL_RCCEx_GetPeriphCLKFreq+0x43c>
341865de:	f7fe fcd3 	bl	34184f88 <HAL_RCCEx_GetPLL3CLKFreq>
341865e2:	e7e9      	b.n	341865b8 <HAL_RCCEx_GetPeriphCLKFreq+0x43c>
341865e4:	f7fc feee 	bl	341833c4 <LL_RCC_MSI_IsReady>
341865e8:	2800      	cmp	r0, #0
341865ea:	d0b3      	beq.n	34186554 <HAL_RCCEx_GetPeriphCLKFreq+0x3d8>
341865ec:	4874      	ldr	r0, [pc, #464]	@ (341867c0 <HAL_RCCEx_GetPeriphCLKFreq+0x644>)
341865ee:	e7b2      	b.n	34186556 <HAL_RCCEx_GetPeriphCLKFreq+0x3da>
341865f0:	f7fc fe70 	bl	341832d4 <HAL_RCC_GetSysClockFreq>
341865f4:	6a6b      	ldr	r3, [r5, #36]	@ 0x24
341865f6:	f3c3 6301 	ubfx	r3, r3, #24, #2
341865fa:	e7c3      	b.n	34186584 <HAL_RCCEx_GetPeriphCLKFreq+0x408>
341865fc:	4871      	ldr	r0, [pc, #452]	@ (341867c4 <HAL_RCCEx_GetPeriphCLKFreq+0x648>)
341865fe:	e7aa      	b.n	34186556 <HAL_RCCEx_GetPeriphCLKFreq+0x3da>
34186600:	4d6d      	ldr	r5, [pc, #436]	@ (341867b8 <HAL_RCCEx_GetPeriphCLKFreq+0x63c>)
34186602:	f8d5 3144 	ldr.w	r3, [r5, #324]	@ 0x144
34186606:	f003 0307 	and.w	r3, r3, #7
3418660a:	3b01      	subs	r3, #1
3418660c:	2b06      	cmp	r3, #6
3418660e:	f200 80f5 	bhi.w	341867fc <HAL_RCCEx_GetPeriphCLKFreq+0x680>
34186612:	a201      	add	r2, pc, #4	@ (adr r2, 34186618 <HAL_RCCEx_GetPeriphCLKFreq+0x49c>)
34186614:	f852 f023 	ldr.w	pc, [r2, r3, lsl #2]
34186618:	341866ed 	.word	0x341866ed
3418661c:	34186959 	.word	0x34186959
34186620:	3418632d 	.word	0x3418632d
34186624:	3418663f 	.word	0x3418663f
34186628:	341866ad 	.word	0x341866ad
3418662c:	34186a79 	.word	0x34186a79
34186630:	3418696f 	.word	0x3418696f
34186634:	f7fe fc68 	bl	34184f08 <HAL_RCCEx_GetPLL2CLKFreq>
34186638:	fbb0 f0f4 	udiv	r0, r0, r4
3418663c:	bd38      	pop	{r3, r4, r5, pc}
3418663e:	f7fc fec1 	bl	341833c4 <LL_RCC_MSI_IsReady>
34186642:	2800      	cmp	r0, #0
34186644:	f43f adde 	beq.w	34186204 <HAL_RCCEx_GetPeriphCLKFreq+0x88>
34186648:	485d      	ldr	r0, [pc, #372]	@ (341867c0 <HAL_RCCEx_GetPeriphCLKFreq+0x644>)
3418664a:	e7f7      	b.n	3418663c <HAL_RCCEx_GetPeriphCLKFreq+0x4c0>
3418664c:	4b5a      	ldr	r3, [pc, #360]	@ (341867b8 <HAL_RCCEx_GetPeriphCLKFreq+0x63c>)
3418664e:	f8d3 2240 	ldr.w	r2, [r3, #576]	@ 0x240
34186652:	0395      	lsls	r5, r2, #14
34186654:	f57f add6 	bpl.w	34186204 <HAL_RCCEx_GetPeriphCLKFreq+0x88>
34186658:	f8d3 0108 	ldr.w	r0, [r3, #264]	@ 0x108
3418665c:	f8d3 3108 	ldr.w	r3, [r3, #264]	@ 0x108
34186660:	f3c0 4007 	ubfx	r0, r0, #16, #8
34186664:	1c44      	adds	r4, r0, #1
34186666:	f003 5340 	and.w	r3, r3, #805306368	@ 0x30000000
3418666a:	f1b3 5f00 	cmp.w	r3, #536870912	@ 0x20000000
3418666e:	f000 81ab 	beq.w	341869c8 <HAL_RCCEx_GetPeriphCLKFreq+0x84c>
34186672:	f200 81a2 	bhi.w	341869ba <HAL_RCCEx_GetPeriphCLKFreq+0x83e>
34186676:	2b00      	cmp	r3, #0
34186678:	d1dc      	bne.n	34186634 <HAL_RCCEx_GetPeriphCLKFreq+0x4b8>
3418667a:	f7fe fc05 	bl	34184e88 <HAL_RCCEx_GetPLL1CLKFreq>
3418667e:	e7db      	b.n	34186638 <HAL_RCCEx_GetPeriphCLKFreq+0x4bc>
34186680:	4d4d      	ldr	r5, [pc, #308]	@ (341867b8 <HAL_RCCEx_GetPeriphCLKFreq+0x63c>)
34186682:	f8d5 3144 	ldr.w	r3, [r5, #324]	@ 0x144
34186686:	f403 1340 	and.w	r3, r3, #3145728	@ 0x300000
3418668a:	f5b3 1f00 	cmp.w	r3, #2097152	@ 0x200000
3418668e:	d014      	beq.n	341866ba <HAL_RCCEx_GetPeriphCLKFreq+0x53e>
34186690:	d808      	bhi.n	341866a4 <HAL_RCCEx_GetPeriphCLKFreq+0x528>
34186692:	bb5b      	cbnz	r3, 341866ec <HAL_RCCEx_GetPeriphCLKFreq+0x570>
34186694:	f7fc fe1e 	bl	341832d4 <HAL_RCC_GetSysClockFreq>
34186698:	f7fc ff1e 	bl	341834d8 <RCCEx_GetHCLKFreq>
3418669c:	6a6b      	ldr	r3, [r5, #36]	@ 0x24
3418669e:	f3c3 4302 	ubfx	r3, r3, #16, #3
341866a2:	e5df      	b.n	34186264 <HAL_RCCEx_GetPeriphCLKFreq+0xe8>
341866a4:	f5b3 1f40 	cmp.w	r3, #3145728	@ 0x300000
341866a8:	f47f adac 	bne.w	34186204 <HAL_RCCEx_GetPeriphCLKFreq+0x88>
341866ac:	f7fc fe82 	bl	341833b4 <LL_RCC_HSI_IsReady>
341866b0:	2800      	cmp	r0, #0
341866b2:	f43f ada7 	beq.w	34186204 <HAL_RCCEx_GetPeriphCLKFreq+0x88>
341866b6:	6cab      	ldr	r3, [r5, #72]	@ 0x48
341866b8:	e133      	b.n	34186922 <HAL_RCCEx_GetPeriphCLKFreq+0x7a6>
341866ba:	f8d5 3240 	ldr.w	r3, [r5, #576]	@ 0x240
341866be:	03dc      	lsls	r4, r3, #15
341866c0:	f57f ada0 	bpl.w	34186204 <HAL_RCCEx_GetPeriphCLKFreq+0x88>
341866c4:	f8d5 0104 	ldr.w	r0, [r5, #260]	@ 0x104
341866c8:	f8d5 3104 	ldr.w	r3, [r5, #260]	@ 0x104
341866cc:	f3c0 4007 	ubfx	r0, r0, #16, #8
341866d0:	1c44      	adds	r4, r0, #1
341866d2:	e7c8      	b.n	34186666 <HAL_RCCEx_GetPeriphCLKFreq+0x4ea>
341866d4:	4a38      	ldr	r2, [pc, #224]	@ (341867b8 <HAL_RCCEx_GetPeriphCLKFreq+0x63c>)
341866d6:	f8d2 3148 	ldr.w	r3, [r2, #328]	@ 0x148
341866da:	f403 5340 	and.w	r3, r3, #12288	@ 0x3000
341866de:	f5b3 5f00 	cmp.w	r3, #8192	@ 0x2000
341866e2:	d012      	beq.n	3418670a <HAL_RCCEx_GetPeriphCLKFreq+0x58e>
341866e4:	d806      	bhi.n	341866f4 <HAL_RCCEx_GetPeriphCLKFreq+0x578>
341866e6:	2b00      	cmp	r3, #0
341866e8:	f000 8088 	beq.w	341867fc <HAL_RCCEx_GetPeriphCLKFreq+0x680>
341866ec:	e8bd 4038 	ldmia.w	sp!, {r3, r4, r5, lr}
341866f0:	f7fe bcca 	b.w	34185088 <RCCEx_GetCLKPCLKFreq.constprop.0>
341866f4:	f5b3 5f40 	cmp.w	r3, #12288	@ 0x3000
341866f8:	f47f ad84 	bne.w	34186204 <HAL_RCCEx_GetPeriphCLKFreq+0x88>
341866fc:	f7fc fe52 	bl	341833a4 <LL_RCC_HSE_IsReady>
34186700:	2800      	cmp	r0, #0
34186702:	f43f ad7f 	beq.w	34186204 <HAL_RCCEx_GetPeriphCLKFreq+0x88>
34186706:	4830      	ldr	r0, [pc, #192]	@ (341867c8 <HAL_RCCEx_GetPeriphCLKFreq+0x64c>)
34186708:	e798      	b.n	3418663c <HAL_RCCEx_GetPeriphCLKFreq+0x4c0>
3418670a:	f8d2 3240 	ldr.w	r3, [r2, #576]	@ 0x240
3418670e:	0518      	lsls	r0, r3, #20
34186710:	f57f ad78 	bpl.w	34186204 <HAL_RCCEx_GetPeriphCLKFreq+0x88>
34186714:	f8d2 00f0 	ldr.w	r0, [r2, #240]	@ 0xf0
34186718:	f8d2 30f0 	ldr.w	r3, [r2, #240]	@ 0xf0
3418671c:	f3c0 4007 	ubfx	r0, r0, #16, #8
34186720:	1c44      	adds	r4, r0, #1
34186722:	e7a0      	b.n	34186666 <HAL_RCCEx_GetPeriphCLKFreq+0x4ea>
34186724:	4a24      	ldr	r2, [pc, #144]	@ (341867b8 <HAL_RCCEx_GetPeriphCLKFreq+0x63c>)
34186726:	f8d2 3148 	ldr.w	r3, [r2, #328]	@ 0x148
3418672a:	f003 0303 	and.w	r3, r3, #3
3418672e:	2b02      	cmp	r3, #2
34186730:	d010      	beq.n	34186754 <HAL_RCCEx_GetPeriphCLKFreq+0x5d8>
34186732:	2b03      	cmp	r3, #3
34186734:	d034      	beq.n	341867a0 <HAL_RCCEx_GetPeriphCLKFreq+0x624>
34186736:	2b01      	cmp	r3, #1
34186738:	d009      	beq.n	3418674e <HAL_RCCEx_GetPeriphCLKFreq+0x5d2>
3418673a:	f7fc fdcb 	bl	341832d4 <HAL_RCC_GetSysClockFreq>
3418673e:	f7fc fecb 	bl	341834d8 <RCCEx_GetHCLKFreq>
34186742:	4b1d      	ldr	r3, [pc, #116]	@ (341867b8 <HAL_RCCEx_GetPeriphCLKFreq+0x63c>)
34186744:	f8d3 3148 	ldr.w	r3, [r3, #328]	@ 0x148
34186748:	f3c3 1303 	ubfx	r3, r3, #4, #4
3418674c:	e708      	b.n	34186560 <HAL_RCCEx_GetPeriphCLKFreq+0x3e4>
3418674e:	f7fe fc9b 	bl	34185088 <RCCEx_GetCLKPCLKFreq.constprop.0>
34186752:	e7f6      	b.n	34186742 <HAL_RCCEx_GetPeriphCLKFreq+0x5c6>
34186754:	f8d2 3240 	ldr.w	r3, [r2, #576]	@ 0x240
34186758:	04d9      	lsls	r1, r3, #19
3418675a:	d516      	bpl.n	3418678a <HAL_RCCEx_GetPeriphCLKFreq+0x60e>
3418675c:	f8d2 00f4 	ldr.w	r0, [r2, #244]	@ 0xf4
34186760:	f8d2 30f4 	ldr.w	r3, [r2, #244]	@ 0xf4
34186764:	f3c0 4007 	ubfx	r0, r0, #16, #8
34186768:	f003 5340 	and.w	r3, r3, #805306368	@ 0x30000000
3418676c:	f1b3 5f00 	cmp.w	r3, #536870912	@ 0x20000000
34186770:	f100 0401 	add.w	r4, r0, #1
34186774:	d00e      	beq.n	34186794 <HAL_RCCEx_GetPeriphCLKFreq+0x618>
34186776:	d805      	bhi.n	34186784 <HAL_RCCEx_GetPeriphCLKFreq+0x608>
34186778:	b94b      	cbnz	r3, 3418678e <HAL_RCCEx_GetPeriphCLKFreq+0x612>
3418677a:	f7fe fb85 	bl	34184e88 <HAL_RCCEx_GetPLL1CLKFreq>
3418677e:	fbb0 f0f4 	udiv	r0, r0, r4
34186782:	e7de      	b.n	34186742 <HAL_RCCEx_GetPeriphCLKFreq+0x5c6>
34186784:	f1b3 5f40 	cmp.w	r3, #805306368	@ 0x30000000
34186788:	d007      	beq.n	3418679a <HAL_RCCEx_GetPeriphCLKFreq+0x61e>
3418678a:	2000      	movs	r0, #0
3418678c:	e7d9      	b.n	34186742 <HAL_RCCEx_GetPeriphCLKFreq+0x5c6>
3418678e:	f7fe fbbb 	bl	34184f08 <HAL_RCCEx_GetPLL2CLKFreq>
34186792:	e7f4      	b.n	3418677e <HAL_RCCEx_GetPeriphCLKFreq+0x602>
34186794:	f7fe fbf8 	bl	34184f88 <HAL_RCCEx_GetPLL3CLKFreq>
34186798:	e7f1      	b.n	3418677e <HAL_RCCEx_GetPeriphCLKFreq+0x602>
3418679a:	f7fe fc35 	bl	34185008 <HAL_RCCEx_GetPLL4CLKFreq>
3418679e:	e7ee      	b.n	3418677e <HAL_RCCEx_GetPeriphCLKFreq+0x602>
341867a0:	f7fc fe00 	bl	341833a4 <LL_RCC_HSE_IsReady>
341867a4:	2800      	cmp	r0, #0
341867a6:	d0f0      	beq.n	3418678a <HAL_RCCEx_GetPeriphCLKFreq+0x60e>
341867a8:	4807      	ldr	r0, [pc, #28]	@ (341867c8 <HAL_RCCEx_GetPeriphCLKFreq+0x64c>)
341867aa:	e7ca      	b.n	34186742 <HAL_RCCEx_GetPeriphCLKFreq+0x5c6>
341867ac:	03000c14 	.word	0x03000c14
341867b0:	01001814 	.word	0x01001814
341867b4:	03000814 	.word	0x03000814
341867b8:	56028000 	.word	0x56028000
341867bc:	03d09000 	.word	0x03d09000
341867c0:	003d0900 	.word	0x003d0900
341867c4:	00bb8000 	.word	0x00bb8000
341867c8:	016e3600 	.word	0x016e3600
341867cc:	f8d5 3240 	ldr.w	r3, [r5, #576]	@ 0x240
341867d0:	035b      	lsls	r3, r3, #13
341867d2:	f57f ad17 	bpl.w	34186204 <HAL_RCCEx_GetPeriphCLKFreq+0x88>
341867d6:	f8d5 010c 	ldr.w	r0, [r5, #268]	@ 0x10c
341867da:	f8d5 310c 	ldr.w	r3, [r5, #268]	@ 0x10c
341867de:	f3c0 4007 	ubfx	r0, r0, #16, #8
341867e2:	1c44      	adds	r4, r0, #1
341867e4:	e73f      	b.n	34186666 <HAL_RCCEx_GetPeriphCLKFreq+0x4ea>
341867e6:	4ba5      	ldr	r3, [pc, #660]	@ (34186a7c <HAL_RCCEx_GetPeriphCLKFreq+0x900>)
341867e8:	f8d3 214c 	ldr.w	r2, [r3, #332]	@ 0x14c
341867ec:	f002 0230 	and.w	r2, r2, #48	@ 0x30
341867f0:	2a20      	cmp	r2, #32
341867f2:	d019      	beq.n	34186828 <HAL_RCCEx_GetPeriphCLKFreq+0x6ac>
341867f4:	d808      	bhi.n	34186808 <HAL_RCCEx_GetPeriphCLKFreq+0x68c>
341867f6:	2a00      	cmp	r2, #0
341867f8:	f47f af78 	bne.w	341866ec <HAL_RCCEx_GetPeriphCLKFreq+0x570>
341867fc:	f7fc fd6a 	bl	341832d4 <HAL_RCC_GetSysClockFreq>
34186800:	e8bd 4038 	ldmia.w	sp!, {r3, r4, r5, lr}
34186804:	f7fc be68 	b.w	341834d8 <RCCEx_GetHCLKFreq>
34186808:	2a30      	cmp	r2, #48	@ 0x30
3418680a:	f47f acfb 	bne.w	34186204 <HAL_RCCEx_GetPeriphCLKFreq+0x88>
3418680e:	f8d3 2240 	ldr.w	r2, [r3, #576]	@ 0x240
34186812:	0714      	lsls	r4, r2, #28
34186814:	f57f acf6 	bpl.w	34186204 <HAL_RCCEx_GetPeriphCLKFreq+0x88>
34186818:	f8d3 00d0 	ldr.w	r0, [r3, #208]	@ 0xd0
3418681c:	f8d3 30d0 	ldr.w	r3, [r3, #208]	@ 0xd0
34186820:	f3c0 4007 	ubfx	r0, r0, #16, #8
34186824:	1c44      	adds	r4, r0, #1
34186826:	e71e      	b.n	34186666 <HAL_RCCEx_GetPeriphCLKFreq+0x4ea>
34186828:	f8d3 2240 	ldr.w	r2, [r3, #576]	@ 0x240
3418682c:	0755      	lsls	r5, r2, #29
3418682e:	f57f ace9 	bpl.w	34186204 <HAL_RCCEx_GetPeriphCLKFreq+0x88>
34186832:	f8d3 00cc 	ldr.w	r0, [r3, #204]	@ 0xcc
34186836:	f8d3 30cc 	ldr.w	r3, [r3, #204]	@ 0xcc
3418683a:	f3c0 4007 	ubfx	r0, r0, #16, #8
3418683e:	1c44      	adds	r4, r0, #1
34186840:	e711      	b.n	34186666 <HAL_RCCEx_GetPeriphCLKFreq+0x4ea>
34186842:	488f      	ldr	r0, [pc, #572]	@ (34186a80 <HAL_RCCEx_GetPeriphCLKFreq+0x904>)
34186844:	e8bd 4038 	ldmia.w	sp!, {r3, r4, r5, lr}
34186848:	f7ff bafe 	b.w	34185e48 <RCCEx_GetI2CCLKFreq>
3418684c:	488d      	ldr	r0, [pc, #564]	@ (34186a84 <HAL_RCCEx_GetPeriphCLKFreq+0x908>)
3418684e:	e7f9      	b.n	34186844 <HAL_RCCEx_GetPeriphCLKFreq+0x6c8>
34186850:	488d      	ldr	r0, [pc, #564]	@ (34186a88 <HAL_RCCEx_GetPeriphCLKFreq+0x90c>)
34186852:	e7f7      	b.n	34186844 <HAL_RCCEx_GetPeriphCLKFreq+0x6c8>
34186854:	488d      	ldr	r0, [pc, #564]	@ (34186a8c <HAL_RCCEx_GetPeriphCLKFreq+0x910>)
34186856:	e8bd 4038 	ldmia.w	sp!, {r3, r4, r5, lr}
3418685a:	f7ff ba03 	b.w	34185c64 <RCCEx_GetI3CCLKFreq>
3418685e:	488c      	ldr	r0, [pc, #560]	@ (34186a90 <HAL_RCCEx_GetPeriphCLKFreq+0x914>)
34186860:	e8bd 4038 	ldmia.w	sp!, {r3, r4, r5, lr}
34186864:	f7ff bbae 	b.w	34185fc4 <RCCEx_GetLPTIMCLKFreq>
34186868:	488a      	ldr	r0, [pc, #552]	@ (34186a94 <HAL_RCCEx_GetPeriphCLKFreq+0x918>)
3418686a:	e7f9      	b.n	34186860 <HAL_RCCEx_GetPeriphCLKFreq+0x6e4>
3418686c:	488a      	ldr	r0, [pc, #552]	@ (34186a98 <HAL_RCCEx_GetPeriphCLKFreq+0x91c>)
3418686e:	e7f7      	b.n	34186860 <HAL_RCCEx_GetPeriphCLKFreq+0x6e4>
34186870:	488a      	ldr	r0, [pc, #552]	@ (34186a9c <HAL_RCCEx_GetPeriphCLKFreq+0x920>)
34186872:	e7f5      	b.n	34186860 <HAL_RCCEx_GetPeriphCLKFreq+0x6e4>
34186874:	4a81      	ldr	r2, [pc, #516]	@ (34186a7c <HAL_RCCEx_GetPeriphCLKFreq+0x900>)
34186876:	f8d2 3178 	ldr.w	r3, [r2, #376]	@ 0x178
3418687a:	f403 63e0 	and.w	r3, r3, #1792	@ 0x700
3418687e:	f5b3 7f40 	cmp.w	r3, #768	@ 0x300
34186882:	d02e      	beq.n	341868e2 <HAL_RCCEx_GetPeriphCLKFreq+0x766>
34186884:	d812      	bhi.n	341868ac <HAL_RCCEx_GetPeriphCLKFreq+0x730>
34186886:	f5b3 7f80 	cmp.w	r3, #256	@ 0x100
3418688a:	f43f af2f 	beq.w	341866ec <HAL_RCCEx_GetPeriphCLKFreq+0x570>
3418688e:	f5b3 7f00 	cmp.w	r3, #512	@ 0x200
34186892:	d01a      	beq.n	341868ca <HAL_RCCEx_GetPeriphCLKFreq+0x74e>
34186894:	2b00      	cmp	r3, #0
34186896:	f47f acb5 	bne.w	34186204 <HAL_RCCEx_GetPeriphCLKFreq+0x88>
3418689a:	f7fc fd1b 	bl	341832d4 <HAL_RCC_GetSysClockFreq>
3418689e:	f7fc fe1b 	bl	341834d8 <RCCEx_GetHCLKFreq>
341868a2:	4b76      	ldr	r3, [pc, #472]	@ (34186a7c <HAL_RCCEx_GetPeriphCLKFreq+0x900>)
341868a4:	6a5b      	ldr	r3, [r3, #36]	@ 0x24
341868a6:	f3c3 3302 	ubfx	r3, r3, #12, #3
341868aa:	e4db      	b.n	34186264 <HAL_RCCEx_GetPeriphCLKFreq+0xe8>
341868ac:	f5b3 6fa0 	cmp.w	r3, #1280	@ 0x500
341868b0:	f43f aec5 	beq.w	3418663e <HAL_RCCEx_GetPeriphCLKFreq+0x4c2>
341868b4:	f5b3 6fc0 	cmp.w	r3, #1536	@ 0x600
341868b8:	d02c      	beq.n	34186914 <HAL_RCCEx_GetPeriphCLKFreq+0x798>
341868ba:	f5b3 6f80 	cmp.w	r3, #1024	@ 0x400
341868be:	f47f aca1 	bne.w	34186204 <HAL_RCCEx_GetPeriphCLKFreq+0x88>
341868c2:	f7fc fd87 	bl	341833d4 <LL_RCC_LSE_IsReady>
341868c6:	03c0      	lsls	r0, r0, #15
341868c8:	e6b8      	b.n	3418663c <HAL_RCCEx_GetPeriphCLKFreq+0x4c0>
341868ca:	f7fc fdcf 	bl	3418346c <LL_RCC_IC9_IsEnabled>
341868ce:	2800      	cmp	r0, #0
341868d0:	f43f ac98 	beq.w	34186204 <HAL_RCCEx_GetPeriphCLKFreq+0x88>
341868d4:	f7fc fdd2 	bl	3418347c <LL_RCC_IC9_GetDivider>
341868d8:	4b68      	ldr	r3, [pc, #416]	@ (34186a7c <HAL_RCCEx_GetPeriphCLKFreq+0x900>)
341868da:	4604      	mov	r4, r0
341868dc:	f8d3 30e4 	ldr.w	r3, [r3, #228]	@ 0xe4
341868e0:	e6c1      	b.n	34186666 <HAL_RCCEx_GetPeriphCLKFreq+0x4ea>
341868e2:	f7fc fdd5 	bl	34183490 <LL_RCC_IC14_IsEnabled>
341868e6:	2800      	cmp	r0, #0
341868e8:	f43f ac8c 	beq.w	34186204 <HAL_RCCEx_GetPeriphCLKFreq+0x88>
341868ec:	f7fc fdd8 	bl	341834a0 <LL_RCC_IC14_GetDivider>
341868f0:	f8d2 30f8 	ldr.w	r3, [r2, #248]	@ 0xf8
341868f4:	4604      	mov	r4, r0
341868f6:	e6b6      	b.n	34186666 <HAL_RCCEx_GetPeriphCLKFreq+0x4ea>
341868f8:	4d60      	ldr	r5, [pc, #384]	@ (34186a7c <HAL_RCCEx_GetPeriphCLKFreq+0x900>)
341868fa:	f8d5 3150 	ldr.w	r3, [r5, #336]	@ 0x150
341868fe:	f003 7340 	and.w	r3, r3, #50331648	@ 0x3000000
34186902:	f1b3 7f00 	cmp.w	r3, #33554432	@ 0x2000000
34186906:	d010      	beq.n	3418692a <HAL_RCCEx_GetPeriphCLKFreq+0x7ae>
34186908:	f67f aec3 	bls.w	34186692 <HAL_RCCEx_GetPeriphCLKFreq+0x516>
3418690c:	f1b3 7f40 	cmp.w	r3, #50331648	@ 0x3000000
34186910:	f47f ac78 	bne.w	34186204 <HAL_RCCEx_GetPeriphCLKFreq+0x88>
34186914:	f7fc fd4e 	bl	341833b4 <LL_RCC_HSI_IsReady>
34186918:	2800      	cmp	r0, #0
3418691a:	f43f ac73 	beq.w	34186204 <HAL_RCCEx_GetPeriphCLKFreq+0x88>
3418691e:	4b57      	ldr	r3, [pc, #348]	@ (34186a7c <HAL_RCCEx_GetPeriphCLKFreq+0x900>)
34186920:	6c9b      	ldr	r3, [r3, #72]	@ 0x48
34186922:	485f      	ldr	r0, [pc, #380]	@ (34186aa0 <HAL_RCCEx_GetPeriphCLKFreq+0x924>)
34186924:	f3c3 13c1 	ubfx	r3, r3, #7, #2
34186928:	e49c      	b.n	34186264 <HAL_RCCEx_GetPeriphCLKFreq+0xe8>
3418692a:	f8d5 3240 	ldr.w	r3, [r5, #576]	@ 0x240
3418692e:	0418      	lsls	r0, r3, #16
34186930:	f57f ac68 	bpl.w	34186204 <HAL_RCCEx_GetPeriphCLKFreq+0x88>
34186934:	f8d5 0100 	ldr.w	r0, [r5, #256]	@ 0x100
34186938:	f8d5 3100 	ldr.w	r3, [r5, #256]	@ 0x100
3418693c:	f3c0 4007 	ubfx	r0, r0, #16, #8
34186940:	1c44      	adds	r4, r0, #1
34186942:	e690      	b.n	34186666 <HAL_RCCEx_GetPeriphCLKFreq+0x4ea>
34186944:	f5b3 2fc0 	cmp.w	r3, #393216	@ 0x60000
34186948:	f000 8096 	beq.w	34186a78 <HAL_RCCEx_GetPeriphCLKFreq+0x8fc>
3418694c:	f5b3 2fe0 	cmp.w	r3, #458752	@ 0x70000
34186950:	d00d      	beq.n	3418696e <HAL_RCCEx_GetPeriphCLKFreq+0x7f2>
34186952:	f5b3 2fa0 	cmp.w	r3, #327680	@ 0x50000
34186956:	e6a7      	b.n	341866a8 <HAL_RCCEx_GetPeriphCLKFreq+0x52c>
34186958:	f7fc fd64 	bl	34183424 <LL_RCC_IC7_IsEnabled>
3418695c:	2800      	cmp	r0, #0
3418695e:	f43f ac51 	beq.w	34186204 <HAL_RCCEx_GetPeriphCLKFreq+0x88>
34186962:	f7fc fd67 	bl	34183434 <LL_RCC_IC7_GetDivider>
34186966:	f8d5 30dc 	ldr.w	r3, [r5, #220]	@ 0xdc
3418696a:	4604      	mov	r4, r0
3418696c:	e67b      	b.n	34186666 <HAL_RCCEx_GetPeriphCLKFreq+0x4ea>
3418696e:	f7fc fcb1 	bl	341832d4 <HAL_RCC_GetSysClockFreq>
34186972:	6a6b      	ldr	r3, [r5, #36]	@ 0x24
34186974:	f3c3 6301 	ubfx	r3, r3, #24, #2
34186978:	e474      	b.n	34186264 <HAL_RCCEx_GetPeriphCLKFreq+0xe8>
3418697a:	4a40      	ldr	r2, [pc, #256]	@ (34186a7c <HAL_RCCEx_GetPeriphCLKFreq+0x900>)
3418697c:	f8d2 315c 	ldr.w	r3, [r2, #348]	@ 0x15c
34186980:	f003 0330 	and.w	r3, r3, #48	@ 0x30
34186984:	2b20      	cmp	r3, #32
34186986:	d00b      	beq.n	341869a0 <HAL_RCCEx_GetPeriphCLKFreq+0x824>
34186988:	f67f aead 	bls.w	341866e6 <HAL_RCCEx_GetPeriphCLKFreq+0x56a>
3418698c:	2b30      	cmp	r3, #48	@ 0x30
3418698e:	f47f ac39 	bne.w	34186204 <HAL_RCCEx_GetPeriphCLKFreq+0x88>
34186992:	f7fc fd0f 	bl	341833b4 <LL_RCC_HSI_IsReady>
34186996:	2800      	cmp	r0, #0
34186998:	f43f ac34 	beq.w	34186204 <HAL_RCCEx_GetPeriphCLKFreq+0x88>
3418699c:	6c93      	ldr	r3, [r2, #72]	@ 0x48
3418699e:	e7c0      	b.n	34186922 <HAL_RCCEx_GetPeriphCLKFreq+0x7a6>
341869a0:	f8d2 3240 	ldr.w	r3, [r2, #576]	@ 0x240
341869a4:	0319      	lsls	r1, r3, #12
341869a6:	f57f ac2d 	bpl.w	34186204 <HAL_RCCEx_GetPeriphCLKFreq+0x88>
341869aa:	f8d2 0110 	ldr.w	r0, [r2, #272]	@ 0x110
341869ae:	f8d2 3110 	ldr.w	r3, [r2, #272]	@ 0x110
341869b2:	f3c0 4007 	ubfx	r0, r0, #16, #8
341869b6:	1c44      	adds	r4, r0, #1
341869b8:	e655      	b.n	34186666 <HAL_RCCEx_GetPeriphCLKFreq+0x4ea>
341869ba:	f1b3 5f40 	cmp.w	r3, #805306368	@ 0x30000000
341869be:	f47f ac21 	bne.w	34186204 <HAL_RCCEx_GetPeriphCLKFreq+0x88>
341869c2:	f7fe fb21 	bl	34185008 <HAL_RCCEx_GetPLL4CLKFreq>
341869c6:	e637      	b.n	34186638 <HAL_RCCEx_GetPeriphCLKFreq+0x4bc>
341869c8:	f7fe fade 	bl	34184f88 <HAL_RCCEx_GetPLL3CLKFreq>
341869cc:	e634      	b.n	34186638 <HAL_RCCEx_GetPeriphCLKFreq+0x4bc>
341869ce:	4a2b      	ldr	r2, [pc, #172]	@ (34186a7c <HAL_RCCEx_GetPeriphCLKFreq+0x900>)
341869d0:	f8d2 315c 	ldr.w	r3, [r2, #348]	@ 0x15c
341869d4:	f403 7340 	and.w	r3, r3, #768	@ 0x300
341869d8:	f5b3 7f00 	cmp.w	r3, #512	@ 0x200
341869dc:	d005      	beq.n	341869ea <HAL_RCCEx_GetPeriphCLKFreq+0x86e>
341869de:	f5b3 7f40 	cmp.w	r3, #768	@ 0x300
341869e2:	d009      	beq.n	341869f8 <HAL_RCCEx_GetPeriphCLKFreq+0x87c>
341869e4:	f5b3 7f80 	cmp.w	r3, #256	@ 0x100
341869e8:	e769      	b.n	341868be <HAL_RCCEx_GetPeriphCLKFreq+0x742>
341869ea:	6853      	ldr	r3, [r2, #4]
341869ec:	07db      	lsls	r3, r3, #31
341869ee:	f57f ac09 	bpl.w	34186204 <HAL_RCCEx_GetPeriphCLKFreq+0x88>
341869f2:	f44f 40fa 	mov.w	r0, #32000	@ 0x7d00
341869f6:	e621      	b.n	3418663c <HAL_RCCEx_GetPeriphCLKFreq+0x4c0>
341869f8:	f7fc fcd4 	bl	341833a4 <LL_RCC_HSE_IsReady>
341869fc:	2800      	cmp	r0, #0
341869fe:	f43f ac01 	beq.w	34186204 <HAL_RCCEx_GetPeriphCLKFreq+0x88>
34186a02:	f8d2 315c 	ldr.w	r3, [r2, #348]	@ 0x15c
34186a06:	4827      	ldr	r0, [pc, #156]	@ (34186aa4 <HAL_RCCEx_GetPeriphCLKFreq+0x928>)
34186a08:	f3c3 3305 	ubfx	r3, r3, #12, #6
34186a0c:	3301      	adds	r3, #1
34186a0e:	e5a8      	b.n	34186562 <HAL_RCCEx_GetPeriphCLKFreq+0x3e6>
34186a10:	4825      	ldr	r0, [pc, #148]	@ (34186aa8 <HAL_RCCEx_GetPeriphCLKFreq+0x92c>)
34186a12:	e4a1      	b.n	34186358 <HAL_RCCEx_GetPeriphCLKFreq+0x1dc>
34186a14:	4825      	ldr	r0, [pc, #148]	@ (34186aac <HAL_RCCEx_GetPeriphCLKFreq+0x930>)
34186a16:	e4d1      	b.n	341863bc <HAL_RCCEx_GetPeriphCLKFreq+0x240>
34186a18:	e8bd 4038 	ldmia.w	sp!, {r3, r4, r5, lr}
34186a1c:	f7fe bbba 	b.w	34185194 <RCCEx_GetSPDIFRXCLKFreq.constprop.0>
34186a20:	4823      	ldr	r0, [pc, #140]	@ (34186ab0 <HAL_RCCEx_GetPeriphCLKFreq+0x934>)
34186a22:	e8bd 4038 	ldmia.w	sp!, {r3, r4, r5, lr}
34186a26:	f7fe bf37 	b.w	34185898 <RCCEx_GetSPICLKFreq>
34186a2a:	4822      	ldr	r0, [pc, #136]	@ (34186ab4 <HAL_RCCEx_GetPeriphCLKFreq+0x938>)
34186a2c:	e7f9      	b.n	34186a22 <HAL_RCCEx_GetPeriphCLKFreq+0x8a6>
34186a2e:	4822      	ldr	r0, [pc, #136]	@ (34186ab8 <HAL_RCCEx_GetPeriphCLKFreq+0x93c>)
34186a30:	e7f7      	b.n	34186a22 <HAL_RCCEx_GetPeriphCLKFreq+0x8a6>
34186a32:	4822      	ldr	r0, [pc, #136]	@ (34186abc <HAL_RCCEx_GetPeriphCLKFreq+0x940>)
34186a34:	e7f5      	b.n	34186a22 <HAL_RCCEx_GetPeriphCLKFreq+0x8a6>
34186a36:	4822      	ldr	r0, [pc, #136]	@ (34186ac0 <HAL_RCCEx_GetPeriphCLKFreq+0x944>)
34186a38:	e8bd 4038 	ldmia.w	sp!, {r3, r4, r5, lr}
34186a3c:	f7fe bd1a 	b.w	34185474 <RCCEx_GetUSARTCLKFreq>
34186a40:	4820      	ldr	r0, [pc, #128]	@ (34186ac4 <HAL_RCCEx_GetPeriphCLKFreq+0x948>)
34186a42:	e7f9      	b.n	34186a38 <HAL_RCCEx_GetPeriphCLKFreq+0x8bc>
34186a44:	4820      	ldr	r0, [pc, #128]	@ (34186ac8 <HAL_RCCEx_GetPeriphCLKFreq+0x94c>)
34186a46:	e7f7      	b.n	34186a38 <HAL_RCCEx_GetPeriphCLKFreq+0x8bc>
34186a48:	4820      	ldr	r0, [pc, #128]	@ (34186acc <HAL_RCCEx_GetPeriphCLKFreq+0x950>)
34186a4a:	e4f0      	b.n	3418642e <HAL_RCCEx_GetPeriphCLKFreq+0x2b2>
34186a4c:	4820      	ldr	r0, [pc, #128]	@ (34186ad0 <HAL_RCCEx_GetPeriphCLKFreq+0x954>)
34186a4e:	e4ee      	b.n	3418642e <HAL_RCCEx_GetPeriphCLKFreq+0x2b2>
34186a50:	4820      	ldr	r0, [pc, #128]	@ (34186ad4 <HAL_RCCEx_GetPeriphCLKFreq+0x958>)
34186a52:	e4ec      	b.n	3418642e <HAL_RCCEx_GetPeriphCLKFreq+0x2b2>
34186a54:	4820      	ldr	r0, [pc, #128]	@ (34186ad8 <HAL_RCCEx_GetPeriphCLKFreq+0x95c>)
34186a56:	e4ea      	b.n	3418642e <HAL_RCCEx_GetPeriphCLKFreq+0x2b2>
34186a58:	4820      	ldr	r0, [pc, #128]	@ (34186adc <HAL_RCCEx_GetPeriphCLKFreq+0x960>)
34186a5a:	e7ed      	b.n	34186a38 <HAL_RCCEx_GetPeriphCLKFreq+0x8bc>
34186a5c:	4820      	ldr	r0, [pc, #128]	@ (34186ae0 <HAL_RCCEx_GetPeriphCLKFreq+0x964>)
34186a5e:	e8bd 4038 	ldmia.w	sp!, {r3, r4, r5, lr}
34186a62:	f7fe bcd7 	b.w	34185414 <RCCEx_GetOTGPHYCKREFCLKFreq>
34186a66:	481f      	ldr	r0, [pc, #124]	@ (34186ae4 <HAL_RCCEx_GetPeriphCLKFreq+0x968>)
34186a68:	e537      	b.n	341864da <HAL_RCCEx_GetPeriphCLKFreq+0x35e>
34186a6a:	481f      	ldr	r0, [pc, #124]	@ (34186ae8 <HAL_RCCEx_GetPeriphCLKFreq+0x96c>)
34186a6c:	e8bd 4038 	ldmia.w	sp!, {r3, r4, r5, lr}
34186a70:	f7fe bbf0 	b.w	34185254 <RCCEx_GetXSPICLKFreq>
34186a74:	481d      	ldr	r0, [pc, #116]	@ (34186aec <HAL_RCCEx_GetPeriphCLKFreq+0x970>)
34186a76:	e7f9      	b.n	34186a6c <HAL_RCCEx_GetPeriphCLKFreq+0x8f0>
34186a78:	481d      	ldr	r0, [pc, #116]	@ (34186af0 <HAL_RCCEx_GetPeriphCLKFreq+0x974>)
34186a7a:	e5df      	b.n	3418663c <HAL_RCCEx_GetPeriphCLKFreq+0x4c0>
34186a7c:	56028000 	.word	0x56028000
34186a80:	0700000c 	.word	0x0700000c
34186a84:	0700040c 	.word	0x0700040c
34186a88:	0700080c 	.word	0x0700080c
34186a8c:	0700100c 	.word	0x0700100c
34186a90:	0700082c 	.word	0x0700082c
34186a94:	07000c2c 	.word	0x07000c2c
34186a98:	0700102c 	.word	0x0700102c
34186a9c:	0700142c 	.word	0x0700142c
34186aa0:	03d09000 	.word	0x03d09000
34186aa4:	016e3600 	.word	0x016e3600
34186aa8:	07001818 	.word	0x07001818
34186aac:	0300041c 	.word	0x0300041c
34186ab0:	07000420 	.word	0x07000420
34186ab4:	07000820 	.word	0x07000820
34186ab8:	07001020 	.word	0x07001020
34186abc:	07001820 	.word	0x07001820
34186ac0:	07000030 	.word	0x07000030
34186ac4:	07000430 	.word	0x07000430
34186ac8:	07000830 	.word	0x07000830
34186acc:	07001030 	.word	0x07001030
34186ad0:	07001830 	.word	0x07001830
34186ad4:	07001c30 	.word	0x07001c30
34186ad8:	07000034 	.word	0x07000034
34186adc:	07000434 	.word	0x07000434
34186ae0:	01001014 	.word	0x01001014
34186ae4:	03001414 	.word	0x03001414
34186ae8:	03000014 	.word	0x03000014
34186aec:	03000414 	.word	0x03000414
34186af0:	00bb8000 	.word	0x00bb8000

34186af4 <XSPI_ConfigCmd>:
34186af4:	6802      	ldr	r2, [r0, #0]
34186af6:	e92d 43f0 	stmdb	sp!, {r4, r5, r6, r7, r8, r9, lr}
34186afa:	6813      	ldr	r3, [r2, #0]
34186afc:	f023 5340 	bic.w	r3, r3, #805306368	@ 0x30000000
34186b00:	6013      	str	r3, [r2, #0]
34186b02:	6883      	ldr	r3, [r0, #8]
34186b04:	b92b      	cbnz	r3, 34186b12 <XSPI_ConfigCmd+0x1e>
34186b06:	6813      	ldr	r3, [r2, #0]
34186b08:	684c      	ldr	r4, [r1, #4]
34186b0a:	f023 4340 	bic.w	r3, r3, #3221225472	@ 0xc0000000
34186b0e:	4323      	orrs	r3, r4
34186b10:	6013      	str	r3, [r2, #0]
34186b12:	680b      	ldr	r3, [r1, #0]
34186b14:	2b02      	cmp	r3, #2
34186b16:	d157      	bne.n	34186bc8 <XSPI_ConfigCmd+0xd4>
34186b18:	f502 74c0 	add.w	r4, r2, #384	@ 0x180
34186b1c:	f502 76c4 	add.w	r6, r2, #392	@ 0x188
34186b20:	f502 75c8 	add.w	r5, r2, #400	@ 0x190
34186b24:	f502 73d0 	add.w	r3, r2, #416	@ 0x1a0
34186b28:	6c8f      	ldr	r7, [r1, #72]	@ 0x48
34186b2a:	6027      	str	r7, [r4, #0]
34186b2c:	6acf      	ldr	r7, [r1, #44]	@ 0x2c
34186b2e:	b167      	cbz	r7, 34186b4a <XSPI_ConfigCmd+0x56>
34186b30:	6a8f      	ldr	r7, [r1, #40]	@ 0x28
34186b32:	601f      	str	r7, [r3, #0]
34186b34:	6b4f      	ldr	r7, [r1, #52]	@ 0x34
34186b36:	6acb      	ldr	r3, [r1, #44]	@ 0x2c
34186b38:	f8d4 c000 	ldr.w	ip, [r4]
34186b3c:	433b      	orrs	r3, r7
34186b3e:	6b0f      	ldr	r7, [r1, #48]	@ 0x30
34186b40:	433b      	orrs	r3, r7
34186b42:	f42c 177c 	bic.w	r7, ip, #4128768	@ 0x3f0000
34186b46:	433b      	orrs	r3, r7
34186b48:	6023      	str	r3, [r4, #0]
34186b4a:	6833      	ldr	r3, [r6, #0]
34186b4c:	6c4f      	ldr	r7, [r1, #68]	@ 0x44
34186b4e:	f023 031f 	bic.w	r3, r3, #31
34186b52:	433b      	orrs	r3, r7
34186b54:	6033      	str	r3, [r6, #0]
34186b56:	f8d1 8038 	ldr.w	r8, [r1, #56]	@ 0x38
34186b5a:	f1b8 0f00 	cmp.w	r8, #0
34186b5e:	d00e      	beq.n	34186b7e <XSPI_ConfigCmd+0x8a>
34186b60:	680b      	ldr	r3, [r1, #0]
34186b62:	b913      	cbnz	r3, 34186b6a <XSPI_ConfigCmd+0x76>
34186b64:	6bcb      	ldr	r3, [r1, #60]	@ 0x3c
34186b66:	3b01      	subs	r3, #1
34186b68:	6413      	str	r3, [r2, #64]	@ 0x40
34186b6a:	6c0b      	ldr	r3, [r1, #64]	@ 0x40
34186b6c:	f1b3 6f00 	cmp.w	r3, #134217728	@ 0x8000000
34186b70:	d13e      	bne.n	34186bf0 <XSPI_ConfigCmd+0xfc>
34186b72:	f8d2 3108 	ldr.w	r3, [r2, #264]	@ 0x108
34186b76:	f023 4380 	bic.w	r3, r3, #1073741824	@ 0x40000000
34186b7a:	f8c2 3108 	str.w	r3, [r2, #264]	@ 0x108
34186b7e:	68cb      	ldr	r3, [r1, #12]
34186b80:	f8d1 901c 	ldr.w	r9, [r1, #28]
34186b84:	2b00      	cmp	r3, #0
34186b86:	d06d      	beq.n	34186c64 <XSPI_ConfigCmd+0x170>
34186b88:	e9d1 ce04 	ldrd	ip, lr, [r1, #16]
34186b8c:	f1b9 0f00 	cmp.w	r9, #0
34186b90:	d045      	beq.n	34186c1e <XSPI_ConfigCmd+0x12a>
34186b92:	e9d1 0708 	ldrd	r0, r7, [r1, #32]
34186b96:	6826      	ldr	r6, [r4, #0]
34186b98:	f1b8 0f00 	cmp.w	r8, #0
34186b9c:	d031      	beq.n	34186c02 <XSPI_ConfigCmd+0x10e>
34186b9e:	ea48 0303 	orr.w	r3, r8, r3
34186ba2:	ea43 0309 	orr.w	r3, r3, r9
34186ba6:	ea43 030e 	orr.w	r3, r3, lr
34186baa:	ea43 030c 	orr.w	r3, r3, ip
34186bae:	433b      	orrs	r3, r7
34186bb0:	4303      	orrs	r3, r0
34186bb2:	6c08      	ldr	r0, [r1, #64]	@ 0x40
34186bb4:	4303      	orrs	r3, r0
34186bb6:	483d      	ldr	r0, [pc, #244]	@ (34186cac <XSPI_ConfigCmd+0x1b8>)
34186bb8:	4030      	ands	r0, r6
34186bba:	4303      	orrs	r3, r0
34186bbc:	6023      	str	r3, [r4, #0]
34186bbe:	688b      	ldr	r3, [r1, #8]
34186bc0:	602b      	str	r3, [r5, #0]
34186bc2:	698b      	ldr	r3, [r1, #24]
34186bc4:	6493      	str	r3, [r2, #72]	@ 0x48
34186bc6:	e03e      	b.n	34186c46 <XSPI_ConfigCmd+0x152>
34186bc8:	2b03      	cmp	r3, #3
34186bca:	bf01      	itttt	eq
34186bcc:	f502 74a0 	addeq.w	r4, r2, #320	@ 0x140
34186bd0:	f502 76a4 	addeq.w	r6, r2, #328	@ 0x148
34186bd4:	f502 75a8 	addeq.w	r5, r2, #336	@ 0x150
34186bd8:	f502 73b0 	addeq.w	r3, r2, #352	@ 0x160
34186bdc:	bf1f      	itttt	ne
34186bde:	f502 7480 	addne.w	r4, r2, #256	@ 0x100
34186be2:	f502 7684 	addne.w	r6, r2, #264	@ 0x108
34186be6:	f502 7588 	addne.w	r5, r2, #272	@ 0x110
34186bea:	f502 7390 	addne.w	r3, r2, #288	@ 0x120
34186bee:	e79b      	b.n	34186b28 <XSPI_ConfigCmd+0x34>
34186bf0:	6a83      	ldr	r3, [r0, #40]	@ 0x28
34186bf2:	f1b3 4f80 	cmp.w	r3, #1073741824	@ 0x40000000
34186bf6:	d1c2      	bne.n	34186b7e <XSPI_ConfigCmd+0x8a>
34186bf8:	f8d2 3108 	ldr.w	r3, [r2, #264]	@ 0x108
34186bfc:	f043 4380 	orr.w	r3, r3, #1073741824	@ 0x40000000
34186c00:	e7bb      	b.n	34186b7a <XSPI_ConfigCmd+0x86>
34186c02:	ea43 0309 	orr.w	r3, r3, r9
34186c06:	ea43 030e 	orr.w	r3, r3, lr
34186c0a:	ea43 030c 	orr.w	r3, r3, ip
34186c0e:	433b      	orrs	r3, r7
34186c10:	f426 567c 	bic.w	r6, r6, #16128	@ 0x3f00
34186c14:	4303      	orrs	r3, r0
34186c16:	f026 063f 	bic.w	r6, r6, #63	@ 0x3f
34186c1a:	4333      	orrs	r3, r6
34186c1c:	e7ce      	b.n	34186bbc <XSPI_ConfigCmd+0xc8>
34186c1e:	6820      	ldr	r0, [r4, #0]
34186c20:	f1b8 0f00 	cmp.w	r8, #0
34186c24:	d019      	beq.n	34186c5a <XSPI_ConfigCmd+0x166>
34186c26:	ea48 0303 	orr.w	r3, r8, r3
34186c2a:	6c0e      	ldr	r6, [r1, #64]	@ 0x40
34186c2c:	ea43 030e 	orr.w	r3, r3, lr
34186c30:	ea43 030c 	orr.w	r3, r3, ip
34186c34:	4333      	orrs	r3, r6
34186c36:	f020 6070 	bic.w	r0, r0, #251658240	@ 0xf000000
34186c3a:	f020 003f 	bic.w	r0, r0, #63	@ 0x3f
34186c3e:	4303      	orrs	r3, r0
34186c40:	6023      	str	r3, [r4, #0]
34186c42:	688b      	ldr	r3, [r1, #8]
34186c44:	602b      	str	r3, [r5, #0]
34186c46:	2000      	movs	r0, #0
34186c48:	6b8b      	ldr	r3, [r1, #56]	@ 0x38
34186c4a:	b123      	cbz	r3, 34186c56 <XSPI_ConfigCmd+0x162>
34186c4c:	680b      	ldr	r3, [r1, #0]
34186c4e:	b913      	cbnz	r3, 34186c56 <XSPI_ConfigCmd+0x162>
34186c50:	6bcb      	ldr	r3, [r1, #60]	@ 0x3c
34186c52:	3b01      	subs	r3, #1
34186c54:	6413      	str	r3, [r2, #64]	@ 0x40
34186c56:	e8bd 83f0 	ldmia.w	sp!, {r4, r5, r6, r7, r8, r9, pc}
34186c5a:	ea43 030e 	orr.w	r3, r3, lr
34186c5e:	ea43 030c 	orr.w	r3, r3, ip
34186c62:	e7ea      	b.n	34186c3a <XSPI_ConfigCmd+0x146>
34186c64:	f1b9 0f00 	cmp.w	r9, #0
34186c68:	d01b      	beq.n	34186ca2 <XSPI_ConfigCmd+0x1ae>
34186c6a:	e9d1 6008 	ldrd	r6, r0, [r1, #32]
34186c6e:	f1b8 0f00 	cmp.w	r8, #0
34186c72:	d00d      	beq.n	34186c90 <XSPI_ConfigCmd+0x19c>
34186c74:	ea48 0309 	orr.w	r3, r8, r9
34186c78:	6825      	ldr	r5, [r4, #0]
34186c7a:	4303      	orrs	r3, r0
34186c7c:	6c08      	ldr	r0, [r1, #64]	@ 0x40
34186c7e:	4333      	orrs	r3, r6
34186c80:	4303      	orrs	r3, r0
34186c82:	f025 6070 	bic.w	r0, r5, #251658240	@ 0xf000000
34186c86:	f420 507c 	bic.w	r0, r0, #16128	@ 0x3f00
34186c8a:	4303      	orrs	r3, r0
34186c8c:	6023      	str	r3, [r4, #0]
34186c8e:	e798      	b.n	34186bc2 <XSPI_ConfigCmd+0xce>
34186c90:	6823      	ldr	r3, [r4, #0]
34186c92:	ea40 0009 	orr.w	r0, r0, r9
34186c96:	4330      	orrs	r0, r6
34186c98:	f423 537c 	bic.w	r3, r3, #16128	@ 0x3f00
34186c9c:	4318      	orrs	r0, r3
34186c9e:	6020      	str	r0, [r4, #0]
34186ca0:	e78f      	b.n	34186bc2 <XSPI_ConfigCmd+0xce>
34186ca2:	2308      	movs	r3, #8
34186ca4:	65c3      	str	r3, [r0, #92]	@ 0x5c
34186ca6:	2001      	movs	r0, #1
34186ca8:	e7ce      	b.n	34186c48 <XSPI_ConfigCmd+0x154>
34186caa:	bf00      	nop
34186cac:	f0ffc0c0 	.word	0xf0ffc0c0

34186cb0 <XSPI_WaitFlagStateUntilTimeout>:
34186cb0:	e92d 41f0 	stmdb	sp!, {r4, r5, r6, r7, r8, lr}
34186cb4:	4604      	mov	r4, r0
34186cb6:	460e      	mov	r6, r1
34186cb8:	4615      	mov	r5, r2
34186cba:	461f      	mov	r7, r3
34186cbc:	f8dd 8018 	ldr.w	r8, [sp, #24]
34186cc0:	6823      	ldr	r3, [r4, #0]
34186cc2:	6a18      	ldr	r0, [r3, #32]
34186cc4:	4030      	ands	r0, r6
34186cc6:	3800      	subs	r0, #0
34186cc8:	bf18      	it	ne
34186cca:	2001      	movne	r0, #1
34186ccc:	42a8      	cmp	r0, r5
34186cce:	d101      	bne.n	34186cd4 <XSPI_WaitFlagStateUntilTimeout+0x24>
34186cd0:	2000      	movs	r0, #0
34186cd2:	e00e      	b.n	34186cf2 <XSPI_WaitFlagStateUntilTimeout+0x42>
34186cd4:	f1b8 3fff 	cmp.w	r8, #4294967295
34186cd8:	d0f3      	beq.n	34186cc2 <XSPI_WaitFlagStateUntilTimeout+0x12>
34186cda:	f7fb fa63 	bl	341821a4 <HAL_GetTick>
34186cde:	1bc0      	subs	r0, r0, r7
34186ce0:	4540      	cmp	r0, r8
34186ce2:	d908      	bls.n	34186cf6 <XSPI_WaitFlagStateUntilTimeout+0x46>
34186ce4:	2302      	movs	r3, #2
34186ce6:	2003      	movs	r0, #3
34186ce8:	65a3      	str	r3, [r4, #88]	@ 0x58
34186cea:	6de3      	ldr	r3, [r4, #92]	@ 0x5c
34186cec:	f043 0301 	orr.w	r3, r3, #1
34186cf0:	65e3      	str	r3, [r4, #92]	@ 0x5c
34186cf2:	e8bd 81f0 	ldmia.w	sp!, {r4, r5, r6, r7, r8, pc}
34186cf6:	f1b8 0f00 	cmp.w	r8, #0
34186cfa:	d1e1      	bne.n	34186cc0 <XSPI_WaitFlagStateUntilTimeout+0x10>
34186cfc:	e7f2      	b.n	34186ce4 <XSPI_WaitFlagStateUntilTimeout+0x34>
	...

34186d00 <HAL_XSPI_Init>:
34186d00:	b5f7      	push	{r0, r1, r2, r4, r5, r6, r7, lr}
34186d02:	4604      	mov	r4, r0
34186d04:	f7fb fa4e 	bl	341821a4 <HAL_GetTick>
34186d08:	4606      	mov	r6, r0
34186d0a:	2c00      	cmp	r4, #0
34186d0c:	f000 809a 	beq.w	34186e44 <HAL_XSPI_Init+0x144>
34186d10:	2300      	movs	r3, #0
34186d12:	65e3      	str	r3, [r4, #92]	@ 0x5c
34186d14:	6da7      	ldr	r7, [r4, #88]	@ 0x58
34186d16:	2f00      	cmp	r7, #0
34186d18:	f040 8087 	bne.w	34186e2a <HAL_XSPI_Init+0x12a>
34186d1c:	4620      	mov	r0, r4
34186d1e:	f7f9 ffe3 	bl	34180ce8 <HAL_XSPI_MspInit>
34186d22:	f241 3288 	movw	r2, #5000	@ 0x1388
34186d26:	69e3      	ldr	r3, [r4, #28]
34186d28:	68e5      	ldr	r5, [r4, #12]
34186d2a:	6821      	ldr	r1, [r4, #0]
34186d2c:	431d      	orrs	r5, r3
34186d2e:	6923      	ldr	r3, [r4, #16]
34186d30:	6888      	ldr	r0, [r1, #8]
34186d32:	ea45 4503 	orr.w	r5, r5, r3, lsl #16
34186d36:	4b44      	ldr	r3, [pc, #272]	@ (34186e48 <HAL_XSPI_Init+0x148>)
34186d38:	6622      	str	r2, [r4, #96]	@ 0x60
34186d3a:	4003      	ands	r3, r0
34186d3c:	431d      	orrs	r5, r3
34186d3e:	6963      	ldr	r3, [r4, #20]
34186d40:	6a20      	ldr	r0, [r4, #32]
34186d42:	3b01      	subs	r3, #1
34186d44:	ea45 2503 	orr.w	r5, r5, r3, lsl #8
34186d48:	608d      	str	r5, [r1, #8]
34186d4a:	68cb      	ldr	r3, [r1, #12]
34186d4c:	f423 23e0 	bic.w	r3, r3, #458752	@ 0x70000
34186d50:	4303      	orrs	r3, r0
34186d52:	60cb      	str	r3, [r1, #12]
34186d54:	690b      	ldr	r3, [r1, #16]
34186d56:	6b20      	ldr	r0, [r4, #48]	@ 0x30
34186d58:	f423 13f8 	bic.w	r3, r3, #2031616	@ 0x1f0000
34186d5c:	ea43 4300 	orr.w	r3, r3, r0, lsl #16
34186d60:	610b      	str	r3, [r1, #16]
34186d62:	690b      	ldr	r3, [r1, #16]
34186d64:	6b60      	ldr	r0, [r4, #52]	@ 0x34
34186d66:	f023 03ff 	bic.w	r3, r3, #255	@ 0xff
34186d6a:	4303      	orrs	r3, r0
34186d6c:	610b      	str	r3, [r1, #16]
34186d6e:	6ba3      	ldr	r3, [r4, #56]	@ 0x38
34186d70:	6860      	ldr	r0, [r4, #4]
34186d72:	614b      	str	r3, [r1, #20]
34186d74:	680b      	ldr	r3, [r1, #0]
34186d76:	3801      	subs	r0, #1
34186d78:	f423 537c 	bic.w	r3, r3, #16128	@ 0x3f00
34186d7c:	ea43 2300 	orr.w	r3, r3, r0, lsl #8
34186d80:	600b      	str	r3, [r1, #0]
34186d82:	4620      	mov	r0, r4
34186d84:	9200      	str	r2, [sp, #0]
34186d86:	4633      	mov	r3, r6
34186d88:	463a      	mov	r2, r7
34186d8a:	2120      	movs	r1, #32
34186d8c:	f7ff ff90 	bl	34186cb0 <XSPI_WaitFlagStateUntilTimeout>
34186d90:	b110      	cbz	r0, 34186d98 <HAL_XSPI_Init+0x98>
34186d92:	2003      	movs	r0, #3
34186d94:	b003      	add	sp, #12
34186d96:	bdf0      	pop	{r4, r5, r6, r7, pc}
34186d98:	6823      	ldr	r3, [r4, #0]
34186d9a:	6a61      	ldr	r1, [r4, #36]	@ 0x24
34186d9c:	68da      	ldr	r2, [r3, #12]
34186d9e:	f022 02ff 	bic.w	r2, r2, #255	@ 0xff
34186da2:	430a      	orrs	r2, r1
34186da4:	60da      	str	r2, [r3, #12]
34186da6:	4a29      	ldr	r2, [pc, #164]	@ (34186e4c <HAL_XSPI_Init+0x14c>)
34186da8:	4293      	cmp	r3, r2
34186daa:	d040      	beq.n	34186e2e <HAL_XSPI_Init+0x12e>
34186dac:	f102 4270 	add.w	r2, r2, #4026531840	@ 0xf0000000
34186db0:	4293      	cmp	r3, r2
34186db2:	d03c      	beq.n	34186e2e <HAL_XSPI_Init+0x12e>
34186db4:	4a26      	ldr	r2, [pc, #152]	@ (34186e50 <HAL_XSPI_Init+0x150>)
34186db6:	4293      	cmp	r3, r2
34186db8:	d039      	beq.n	34186e2e <HAL_XSPI_Init+0x12e>
34186dba:	f102 4270 	add.w	r2, r2, #4026531840	@ 0xf0000000
34186dbe:	4293      	cmp	r3, r2
34186dc0:	d035      	beq.n	34186e2e <HAL_XSPI_Init+0x12e>
34186dc2:	4a24      	ldr	r2, [pc, #144]	@ (34186e54 <HAL_XSPI_Init+0x154>)
34186dc4:	4293      	cmp	r3, r2
34186dc6:	d032      	beq.n	34186e2e <HAL_XSPI_Init+0x12e>
34186dc8:	f102 4270 	add.w	r2, r2, #4026531840	@ 0xf0000000
34186dcc:	4293      	cmp	r3, r2
34186dce:	d02e      	beq.n	34186e2e <HAL_XSPI_Init+0x12e>
34186dd0:	6823      	ldr	r3, [r4, #0]
34186dd2:	68a2      	ldr	r2, [r4, #8]
34186dd4:	6819      	ldr	r1, [r3, #0]
34186dd6:	6be0      	ldr	r0, [r4, #60]	@ 0x3c
34186dd8:	f021 7180 	bic.w	r1, r1, #16777216	@ 0x1000000
34186ddc:	f021 0140 	bic.w	r1, r1, #64	@ 0x40
34186de0:	4302      	orrs	r2, r0
34186de2:	430a      	orrs	r2, r1
34186de4:	601a      	str	r2, [r3, #0]
34186de6:	f8d3 2108 	ldr.w	r2, [r3, #264]	@ 0x108
34186dea:	6aa1      	ldr	r1, [r4, #40]	@ 0x28
34186dec:	f022 4280 	bic.w	r2, r2, #1073741824	@ 0x40000000
34186df0:	430a      	orrs	r2, r1
34186df2:	f8c3 2108 	str.w	r2, [r3, #264]	@ 0x108
34186df6:	681a      	ldr	r2, [r3, #0]
34186df8:	f042 0201 	orr.w	r2, r2, #1
34186dfc:	601a      	str	r2, [r3, #0]
34186dfe:	69a2      	ldr	r2, [r4, #24]
34186e00:	2a02      	cmp	r2, #2
34186e02:	d103      	bne.n	34186e0c <HAL_XSPI_Init+0x10c>
34186e04:	689a      	ldr	r2, [r3, #8]
34186e06:	f042 0202 	orr.w	r2, r2, #2
34186e0a:	609a      	str	r2, [r3, #8]
34186e0c:	6c22      	ldr	r2, [r4, #64]	@ 0x40
34186e0e:	f5b2 1f00 	cmp.w	r2, #2097152	@ 0x200000
34186e12:	bf02      	ittt	eq
34186e14:	689a      	ldreq	r2, [r3, #8]
34186e16:	f442 1200 	orreq.w	r2, r2, #2097152	@ 0x200000
34186e1a:	609a      	streq	r2, [r3, #8]
34186e1c:	68e3      	ldr	r3, [r4, #12]
34186e1e:	f1b3 6f80 	cmp.w	r3, #67108864	@ 0x4000000
34186e22:	bf0c      	ite	eq
34186e24:	2301      	moveq	r3, #1
34186e26:	2302      	movne	r3, #2
34186e28:	65a3      	str	r3, [r4, #88]	@ 0x58
34186e2a:	2000      	movs	r0, #0
34186e2c:	e7b2      	b.n	34186d94 <HAL_XSPI_Init+0x94>
34186e2e:	6e23      	ldr	r3, [r4, #96]	@ 0x60
34186e30:	2200      	movs	r2, #0
34186e32:	9300      	str	r3, [sp, #0]
34186e34:	2120      	movs	r1, #32
34186e36:	4633      	mov	r3, r6
34186e38:	4620      	mov	r0, r4
34186e3a:	f7ff ff39 	bl	34186cb0 <XSPI_WaitFlagStateUntilTimeout>
34186e3e:	2800      	cmp	r0, #0
34186e40:	d0c6      	beq.n	34186dd0 <HAL_XSPI_Init+0xd0>
34186e42:	e7a6      	b.n	34186d92 <HAL_XSPI_Init+0x92>
34186e44:	2001      	movs	r0, #1
34186e46:	e7a5      	b.n	34186d94 <HAL_XSPI_Init+0x94>
34186e48:	f8e0c0fc 	.word	0xf8e0c0fc
34186e4c:	58025000 	.word	0x58025000
34186e50:	5802a000 	.word	0x5802a000
34186e54:	5802d000 	.word	0x5802d000

34186e58 <HAL_XSPI_Command>:
34186e58:	b5f7      	push	{r0, r1, r2, r4, r5, r6, r7, lr}
34186e5a:	4604      	mov	r4, r0
34186e5c:	460d      	mov	r5, r1
34186e5e:	4617      	mov	r7, r2
34186e60:	f7fb f9a0 	bl	341821a4 <HAL_GetTick>
34186e64:	6da3      	ldr	r3, [r4, #88]	@ 0x58
34186e66:	4606      	mov	r6, r0
34186e68:	2b02      	cmp	r3, #2
34186e6a:	d106      	bne.n	34186e7a <HAL_XSPI_Command+0x22>
34186e6c:	68e3      	ldr	r3, [r4, #12]
34186e6e:	f1b3 6f80 	cmp.w	r3, #67108864	@ 0x4000000
34186e72:	d108      	bne.n	34186e86 <HAL_XSPI_Command+0x2e>
34186e74:	2310      	movs	r3, #16
34186e76:	65e3      	str	r3, [r4, #92]	@ 0x5c
34186e78:	e013      	b.n	34186ea2 <HAL_XSPI_Command+0x4a>
34186e7a:	2b14      	cmp	r3, #20
34186e7c:	d114      	bne.n	34186ea8 <HAL_XSPI_Command+0x50>
34186e7e:	682b      	ldr	r3, [r5, #0]
34186e80:	3b02      	subs	r3, #2
34186e82:	2b01      	cmp	r3, #1
34186e84:	d8f6      	bhi.n	34186e74 <HAL_XSPI_Command+0x1c>
34186e86:	4633      	mov	r3, r6
34186e88:	2200      	movs	r2, #0
34186e8a:	2120      	movs	r1, #32
34186e8c:	4620      	mov	r0, r4
34186e8e:	9700      	str	r7, [sp, #0]
34186e90:	f7ff ff0e 	bl	34186cb0 <XSPI_WaitFlagStateUntilTimeout>
34186e94:	bb80      	cbnz	r0, 34186ef8 <HAL_XSPI_Command+0xa0>
34186e96:	65e0      	str	r0, [r4, #92]	@ 0x5c
34186e98:	4629      	mov	r1, r5
34186e9a:	4620      	mov	r0, r4
34186e9c:	f7ff fe2a 	bl	34186af4 <XSPI_ConfigCmd>
34186ea0:	b150      	cbz	r0, 34186eb8 <HAL_XSPI_Command+0x60>
34186ea2:	2001      	movs	r0, #1
34186ea4:	b003      	add	sp, #12
34186ea6:	bdf0      	pop	{r4, r5, r6, r7, pc}
34186ea8:	2b24      	cmp	r3, #36	@ 0x24
34186eaa:	d1e3      	bne.n	34186e74 <HAL_XSPI_Command+0x1c>
34186eac:	682b      	ldr	r3, [r5, #0]
34186eae:	f023 0302 	bic.w	r3, r3, #2
34186eb2:	2b01      	cmp	r3, #1
34186eb4:	d1de      	bne.n	34186e74 <HAL_XSPI_Command+0x1c>
34186eb6:	e7e6      	b.n	34186e86 <HAL_XSPI_Command+0x2e>
34186eb8:	6bab      	ldr	r3, [r5, #56]	@ 0x38
34186eba:	b953      	cbnz	r3, 34186ed2 <HAL_XSPI_Command+0x7a>
34186ebc:	4602      	mov	r2, r0
34186ebe:	4633      	mov	r3, r6
34186ec0:	2120      	movs	r1, #32
34186ec2:	4620      	mov	r0, r4
34186ec4:	9700      	str	r7, [sp, #0]
34186ec6:	f7ff fef3 	bl	34186cb0 <XSPI_WaitFlagStateUntilTimeout>
34186eca:	2202      	movs	r2, #2
34186ecc:	6823      	ldr	r3, [r4, #0]
34186ece:	625a      	str	r2, [r3, #36]	@ 0x24
34186ed0:	e7e8      	b.n	34186ea4 <HAL_XSPI_Command+0x4c>
34186ed2:	682b      	ldr	r3, [r5, #0]
34186ed4:	b90b      	cbnz	r3, 34186eda <HAL_XSPI_Command+0x82>
34186ed6:	2304      	movs	r3, #4
34186ed8:	e005      	b.n	34186ee6 <HAL_XSPI_Command+0x8e>
34186eda:	2b01      	cmp	r3, #1
34186edc:	d105      	bne.n	34186eea <HAL_XSPI_Command+0x92>
34186ede:	6da3      	ldr	r3, [r4, #88]	@ 0x58
34186ee0:	2b24      	cmp	r3, #36	@ 0x24
34186ee2:	d0f8      	beq.n	34186ed6 <HAL_XSPI_Command+0x7e>
34186ee4:	2314      	movs	r3, #20
34186ee6:	65a3      	str	r3, [r4, #88]	@ 0x58
34186ee8:	e7dc      	b.n	34186ea4 <HAL_XSPI_Command+0x4c>
34186eea:	2b02      	cmp	r3, #2
34186eec:	d1da      	bne.n	34186ea4 <HAL_XSPI_Command+0x4c>
34186eee:	6da3      	ldr	r3, [r4, #88]	@ 0x58
34186ef0:	2b14      	cmp	r3, #20
34186ef2:	d0f0      	beq.n	34186ed6 <HAL_XSPI_Command+0x7e>
34186ef4:	2324      	movs	r3, #36	@ 0x24
34186ef6:	e7f6      	b.n	34186ee6 <HAL_XSPI_Command+0x8e>
34186ef8:	2002      	movs	r0, #2
34186efa:	e7d3      	b.n	34186ea4 <HAL_XSPI_Command+0x4c>

34186efc <HAL_XSPI_Transmit>:
34186efc:	e92d 41f3 	stmdb	sp!, {r0, r1, r4, r5, r6, r7, r8, lr}
34186f00:	4604      	mov	r4, r0
34186f02:	4688      	mov	r8, r1
34186f04:	4616      	mov	r6, r2
34186f06:	f7fb f94d 	bl	341821a4 <HAL_GetTick>
34186f0a:	4605      	mov	r5, r0
34186f0c:	f1b8 0f00 	cmp.w	r8, #0
34186f10:	d103      	bne.n	34186f1a <HAL_XSPI_Transmit+0x1e>
34186f12:	2308      	movs	r3, #8
34186f14:	2001      	movs	r0, #1
34186f16:	65e3      	str	r3, [r4, #92]	@ 0x5c
34186f18:	e02c      	b.n	34186f74 <HAL_XSPI_Transmit+0x78>
34186f1a:	6da3      	ldr	r3, [r4, #88]	@ 0x58
34186f1c:	2b04      	cmp	r3, #4
34186f1e:	d131      	bne.n	34186f84 <HAL_XSPI_Transmit+0x88>
34186f20:	6827      	ldr	r7, [r4, #0]
34186f22:	6c3b      	ldr	r3, [r7, #64]	@ 0x40
34186f24:	f8c4 8044 	str.w	r8, [r4, #68]	@ 0x44
34186f28:	3301      	adds	r3, #1
34186f2a:	64e3      	str	r3, [r4, #76]	@ 0x4c
34186f2c:	6ce3      	ldr	r3, [r4, #76]	@ 0x4c
34186f2e:	64a3      	str	r3, [r4, #72]	@ 0x48
34186f30:	683b      	ldr	r3, [r7, #0]
34186f32:	f023 5340 	bic.w	r3, r3, #805306368	@ 0x30000000
34186f36:	603b      	str	r3, [r7, #0]
34186f38:	462b      	mov	r3, r5
34186f3a:	2201      	movs	r2, #1
34186f3c:	2104      	movs	r1, #4
34186f3e:	4620      	mov	r0, r4
34186f40:	9600      	str	r6, [sp, #0]
34186f42:	f7ff feb5 	bl	34186cb0 <XSPI_WaitFlagStateUntilTimeout>
34186f46:	b9a0      	cbnz	r0, 34186f72 <HAL_XSPI_Transmit+0x76>
34186f48:	6c63      	ldr	r3, [r4, #68]	@ 0x44
34186f4a:	781b      	ldrb	r3, [r3, #0]
34186f4c:	f887 3050 	strb.w	r3, [r7, #80]	@ 0x50
34186f50:	6c63      	ldr	r3, [r4, #68]	@ 0x44
34186f52:	3301      	adds	r3, #1
34186f54:	6463      	str	r3, [r4, #68]	@ 0x44
34186f56:	6ce3      	ldr	r3, [r4, #76]	@ 0x4c
34186f58:	3b01      	subs	r3, #1
34186f5a:	64e3      	str	r3, [r4, #76]	@ 0x4c
34186f5c:	6ce3      	ldr	r3, [r4, #76]	@ 0x4c
34186f5e:	2b00      	cmp	r3, #0
34186f60:	d1ea      	bne.n	34186f38 <HAL_XSPI_Transmit+0x3c>
34186f62:	462b      	mov	r3, r5
34186f64:	2201      	movs	r2, #1
34186f66:	2102      	movs	r1, #2
34186f68:	4620      	mov	r0, r4
34186f6a:	9600      	str	r6, [sp, #0]
34186f6c:	f7ff fea0 	bl	34186cb0 <XSPI_WaitFlagStateUntilTimeout>
34186f70:	b118      	cbz	r0, 34186f7a <HAL_XSPI_Transmit+0x7e>
34186f72:	2003      	movs	r0, #3
34186f74:	b002      	add	sp, #8
34186f76:	e8bd 81f0 	ldmia.w	sp!, {r4, r5, r6, r7, r8, pc}
34186f7a:	2302      	movs	r3, #2
34186f7c:	6822      	ldr	r2, [r4, #0]
34186f7e:	6253      	str	r3, [r2, #36]	@ 0x24
34186f80:	65a3      	str	r3, [r4, #88]	@ 0x58
34186f82:	e7f7      	b.n	34186f74 <HAL_XSPI_Transmit+0x78>
34186f84:	2310      	movs	r3, #16
34186f86:	e7c5      	b.n	34186f14 <HAL_XSPI_Transmit+0x18>

34186f88 <HAL_XSPI_Receive>:
34186f88:	e92d 41f3 	stmdb	sp!, {r0, r1, r4, r5, r6, r7, r8, lr}
34186f8c:	4604      	mov	r4, r0
34186f8e:	4617      	mov	r7, r2
34186f90:	4688      	mov	r8, r1
34186f92:	f7fb f907 	bl	341821a4 <HAL_GetTick>
34186f96:	6825      	ldr	r5, [r4, #0]
34186f98:	4606      	mov	r6, r0
34186f9a:	6caa      	ldr	r2, [r5, #72]	@ 0x48
34186f9c:	f8d5 0110 	ldr.w	r0, [r5, #272]	@ 0x110
34186fa0:	f1b8 0f00 	cmp.w	r8, #0
34186fa4:	d103      	bne.n	34186fae <HAL_XSPI_Receive+0x26>
34186fa6:	2308      	movs	r3, #8
34186fa8:	2001      	movs	r0, #1
34186faa:	65e3      	str	r3, [r4, #92]	@ 0x5c
34186fac:	e032      	b.n	34187014 <HAL_XSPI_Receive+0x8c>
34186fae:	6da3      	ldr	r3, [r4, #88]	@ 0x58
34186fb0:	2b04      	cmp	r3, #4
34186fb2:	d13f      	bne.n	34187034 <HAL_XSPI_Receive+0xac>
34186fb4:	6c2b      	ldr	r3, [r5, #64]	@ 0x40
34186fb6:	f8c4 8044 	str.w	r8, [r4, #68]	@ 0x44
34186fba:	3301      	adds	r3, #1
34186fbc:	64e3      	str	r3, [r4, #76]	@ 0x4c
34186fbe:	6ce3      	ldr	r3, [r4, #76]	@ 0x4c
34186fc0:	64a3      	str	r3, [r4, #72]	@ 0x48
34186fc2:	6829      	ldr	r1, [r5, #0]
34186fc4:	68e3      	ldr	r3, [r4, #12]
34186fc6:	f021 5140 	bic.w	r1, r1, #805306368	@ 0x30000000
34186fca:	f041 5180 	orr.w	r1, r1, #268435456	@ 0x10000000
34186fce:	f1b3 6f80 	cmp.w	r3, #67108864	@ 0x4000000
34186fd2:	6029      	str	r1, [r5, #0]
34186fd4:	d121      	bne.n	3418701a <HAL_XSPI_Receive+0x92>
34186fd6:	64aa      	str	r2, [r5, #72]	@ 0x48
34186fd8:	4633      	mov	r3, r6
34186fda:	2201      	movs	r2, #1
34186fdc:	2106      	movs	r1, #6
34186fde:	4620      	mov	r0, r4
34186fe0:	9700      	str	r7, [sp, #0]
34186fe2:	f7ff fe65 	bl	34186cb0 <XSPI_WaitFlagStateUntilTimeout>
34186fe6:	b9a0      	cbnz	r0, 34187012 <HAL_XSPI_Receive+0x8a>
34186fe8:	f895 2050 	ldrb.w	r2, [r5, #80]	@ 0x50
34186fec:	6c63      	ldr	r3, [r4, #68]	@ 0x44
34186fee:	701a      	strb	r2, [r3, #0]
34186ff0:	6c63      	ldr	r3, [r4, #68]	@ 0x44
34186ff2:	3301      	adds	r3, #1
34186ff4:	6463      	str	r3, [r4, #68]	@ 0x44
34186ff6:	6ce3      	ldr	r3, [r4, #76]	@ 0x4c
34186ff8:	3b01      	subs	r3, #1
34186ffa:	64e3      	str	r3, [r4, #76]	@ 0x4c
34186ffc:	6ce3      	ldr	r3, [r4, #76]	@ 0x4c
34186ffe:	2b00      	cmp	r3, #0
34187000:	d1ea      	bne.n	34186fd8 <HAL_XSPI_Receive+0x50>
34187002:	4633      	mov	r3, r6
34187004:	2201      	movs	r2, #1
34187006:	2102      	movs	r1, #2
34187008:	4620      	mov	r0, r4
3418700a:	9700      	str	r7, [sp, #0]
3418700c:	f7ff fe50 	bl	34186cb0 <XSPI_WaitFlagStateUntilTimeout>
34187010:	b158      	cbz	r0, 3418702a <HAL_XSPI_Receive+0xa2>
34187012:	2003      	movs	r0, #3
34187014:	b002      	add	sp, #8
34187016:	e8bd 81f0 	ldmia.w	sp!, {r4, r5, r6, r7, r8, pc}
3418701a:	f8d5 3100 	ldr.w	r3, [r5, #256]	@ 0x100
3418701e:	f413 6fe0 	tst.w	r3, #1792	@ 0x700
34187022:	d1d8      	bne.n	34186fd6 <HAL_XSPI_Receive+0x4e>
34187024:	f8c5 0110 	str.w	r0, [r5, #272]	@ 0x110
34187028:	e7d6      	b.n	34186fd8 <HAL_XSPI_Receive+0x50>
3418702a:	2302      	movs	r3, #2
3418702c:	6822      	ldr	r2, [r4, #0]
3418702e:	6253      	str	r3, [r2, #36]	@ 0x24
34187030:	65a3      	str	r3, [r4, #88]	@ 0x58
34187032:	e7ef      	b.n	34187014 <HAL_XSPI_Receive+0x8c>
34187034:	2310      	movs	r3, #16
34187036:	e7b7      	b.n	34186fa8 <HAL_XSPI_Receive+0x20>

34187038 <HAL_XSPI_AutoPolling>:
34187038:	e92d 47f3 	stmdb	sp!, {r0, r1, r4, r5, r6, r7, r8, r9, sl, lr}
3418703c:	4604      	mov	r4, r0
3418703e:	460e      	mov	r6, r1
34187040:	4617      	mov	r7, r2
34187042:	f7fb f8af 	bl	341821a4 <HAL_GetTick>
34187046:	6823      	ldr	r3, [r4, #0]
34187048:	4682      	mov	sl, r0
3418704a:	f8d3 8048 	ldr.w	r8, [r3, #72]	@ 0x48
3418704e:	f8d3 9110 	ldr.w	r9, [r3, #272]	@ 0x110
34187052:	6da3      	ldr	r3, [r4, #88]	@ 0x58
34187054:	2b04      	cmp	r3, #4
34187056:	d13e      	bne.n	341870d6 <HAL_XSPI_AutoPolling+0x9e>
34187058:	68f3      	ldr	r3, [r6, #12]
3418705a:	f5b3 0f80 	cmp.w	r3, #4194304	@ 0x400000
3418705e:	d13a      	bne.n	341870d6 <HAL_XSPI_AutoPolling+0x9e>
34187060:	4603      	mov	r3, r0
34187062:	2200      	movs	r2, #0
34187064:	2120      	movs	r1, #32
34187066:	4620      	mov	r0, r4
34187068:	9700      	str	r7, [sp, #0]
3418706a:	f7ff fe21 	bl	34186cb0 <XSPI_WaitFlagStateUntilTimeout>
3418706e:	2800      	cmp	r0, #0
34187070:	d135      	bne.n	341870de <HAL_XSPI_AutoPolling+0xa6>
34187072:	e9d6 1202 	ldrd	r1, r2, [r6, #8]
34187076:	6825      	ldr	r5, [r4, #0]
34187078:	6833      	ldr	r3, [r6, #0]
3418707a:	4311      	orrs	r1, r2
3418707c:	f8c5 3088 	str.w	r3, [r5, #136]	@ 0x88
34187080:	6873      	ldr	r3, [r6, #4]
34187082:	f8c5 3080 	str.w	r3, [r5, #128]	@ 0x80
34187086:	6933      	ldr	r3, [r6, #16]
34187088:	f8c5 3090 	str.w	r3, [r5, #144]	@ 0x90
3418708c:	682b      	ldr	r3, [r5, #0]
3418708e:	f023 5343 	bic.w	r3, r3, #817889280	@ 0x30c00000
34187092:	4319      	orrs	r1, r3
34187094:	68e3      	ldr	r3, [r4, #12]
34187096:	f041 5100 	orr.w	r1, r1, #536870912	@ 0x20000000
3418709a:	f1b3 6f80 	cmp.w	r3, #67108864	@ 0x4000000
3418709e:	6029      	str	r1, [r5, #0]
341870a0:	d111      	bne.n	341870c6 <HAL_XSPI_AutoPolling+0x8e>
341870a2:	f8c5 8048 	str.w	r8, [r5, #72]	@ 0x48
341870a6:	4653      	mov	r3, sl
341870a8:	2201      	movs	r2, #1
341870aa:	2108      	movs	r1, #8
341870ac:	4620      	mov	r0, r4
341870ae:	9700      	str	r7, [sp, #0]
341870b0:	f7ff fdfe 	bl	34186cb0 <XSPI_WaitFlagStateUntilTimeout>
341870b4:	b9a8      	cbnz	r0, 341870e2 <HAL_XSPI_AutoPolling+0xaa>
341870b6:	2208      	movs	r2, #8
341870b8:	6823      	ldr	r3, [r4, #0]
341870ba:	625a      	str	r2, [r3, #36]	@ 0x24
341870bc:	2302      	movs	r3, #2
341870be:	65a3      	str	r3, [r4, #88]	@ 0x58
341870c0:	b002      	add	sp, #8
341870c2:	e8bd 87f0 	ldmia.w	sp!, {r4, r5, r6, r7, r8, r9, sl, pc}
341870c6:	f8d5 3100 	ldr.w	r3, [r5, #256]	@ 0x100
341870ca:	f413 6fe0 	tst.w	r3, #1792	@ 0x700
341870ce:	d1e8      	bne.n	341870a2 <HAL_XSPI_AutoPolling+0x6a>
341870d0:	f8c5 9110 	str.w	r9, [r5, #272]	@ 0x110
341870d4:	e7e7      	b.n	341870a6 <HAL_XSPI_AutoPolling+0x6e>
341870d6:	2310      	movs	r3, #16
341870d8:	2001      	movs	r0, #1
341870da:	65e3      	str	r3, [r4, #92]	@ 0x5c
341870dc:	e7f0      	b.n	341870c0 <HAL_XSPI_AutoPolling+0x88>
341870de:	2002      	movs	r0, #2
341870e0:	e7ee      	b.n	341870c0 <HAL_XSPI_AutoPolling+0x88>
341870e2:	2003      	movs	r0, #3
341870e4:	e7ec      	b.n	341870c0 <HAL_XSPI_AutoPolling+0x88>

341870e6 <HAL_XSPI_MemoryMapped>:
341870e6:	b537      	push	{r0, r1, r2, r4, r5, lr}
341870e8:	4604      	mov	r4, r0
341870ea:	460d      	mov	r5, r1
341870ec:	f7fb f85a 	bl	341821a4 <HAL_GetTick>
341870f0:	6da2      	ldr	r2, [r4, #88]	@ 0x58
341870f2:	4603      	mov	r3, r0
341870f4:	2a04      	cmp	r2, #4
341870f6:	d131      	bne.n	3418715c <HAL_XSPI_MemoryMapped+0x76>
341870f8:	6e22      	ldr	r2, [r4, #96]	@ 0x60
341870fa:	2120      	movs	r1, #32
341870fc:	9200      	str	r2, [sp, #0]
341870fe:	4620      	mov	r0, r4
34187100:	2200      	movs	r2, #0
34187102:	f7ff fdd5 	bl	34186cb0 <XSPI_WaitFlagStateUntilTimeout>
34187106:	2800      	cmp	r0, #0
34187108:	d12c      	bne.n	34187164 <HAL_XSPI_MemoryMapped+0x7e>
3418710a:	2388      	movs	r3, #136	@ 0x88
3418710c:	68aa      	ldr	r2, [r5, #8]
3418710e:	65a3      	str	r3, [r4, #88]	@ 0x58
34187110:	6823      	ldr	r3, [r4, #0]
34187112:	f1b2 7f00 	cmp.w	r2, #33554432	@ 0x2000000
34187116:	bf1b      	ittet	ne
34187118:	6819      	ldrne	r1, [r3, #0]
3418711a:	68ec      	ldrne	r4, [r5, #12]
3418711c:	681a      	ldreq	r2, [r3, #0]
3418711e:	4322      	orrne	r2, r4
34187120:	bf1a      	itte	ne
34187122:	f021 61c0 	bicne.w	r1, r1, #100663296	@ 0x6000000
34187126:	430a      	orrne	r2, r1
34187128:	f042 7200 	orreq.w	r2, r2, #33554432	@ 0x2000000
3418712c:	601a      	str	r2, [r3, #0]
3418712e:	6829      	ldr	r1, [r5, #0]
34187130:	2908      	cmp	r1, #8
34187132:	d108      	bne.n	34187146 <HAL_XSPI_MemoryMapped+0x60>
34187134:	686a      	ldr	r2, [r5, #4]
34187136:	f8c3 2130 	str.w	r2, [r3, #304]	@ 0x130
3418713a:	2210      	movs	r2, #16
3418713c:	625a      	str	r2, [r3, #36]	@ 0x24
3418713e:	681a      	ldr	r2, [r3, #0]
34187140:	f442 1280 	orr.w	r2, r2, #1048576	@ 0x100000
34187144:	601a      	str	r2, [r3, #0]
34187146:	681a      	ldr	r2, [r3, #0]
34187148:	f022 5240 	bic.w	r2, r2, #805306368	@ 0x30000000
3418714c:	f022 0208 	bic.w	r2, r2, #8
34187150:	430a      	orrs	r2, r1
34187152:	f042 5240 	orr.w	r2, r2, #805306368	@ 0x30000000
34187156:	601a      	str	r2, [r3, #0]
34187158:	b003      	add	sp, #12
3418715a:	bd30      	pop	{r4, r5, pc}
3418715c:	2310      	movs	r3, #16
3418715e:	2001      	movs	r0, #1
34187160:	65e3      	str	r3, [r4, #92]	@ 0x5c
34187162:	e7f9      	b.n	34187158 <HAL_XSPI_MemoryMapped+0x72>
34187164:	2003      	movs	r0, #3
34187166:	e7f7      	b.n	34187158 <HAL_XSPI_MemoryMapped+0x72>

34187168 <HAL_XSPI_Abort>:
34187168:	b573      	push	{r0, r1, r4, r5, r6, lr}
3418716a:	4604      	mov	r4, r0
3418716c:	f7fb f81a 	bl	341821a4 <HAL_GetTick>
34187170:	6da3      	ldr	r3, [r4, #88]	@ 0x58
34187172:	4605      	mov	r5, r0
34187174:	2b00      	cmp	r3, #0
34187176:	d043      	beq.n	34187200 <HAL_XSPI_Abort+0x98>
34187178:	6823      	ldr	r3, [r4, #0]
3418717a:	6818      	ldr	r0, [r3, #0]
3418717c:	f010 0004 	ands.w	r0, r0, #4
34187180:	d00f      	beq.n	341871a2 <HAL_XSPI_Abort+0x3a>
34187182:	681a      	ldr	r2, [r3, #0]
34187184:	6d20      	ldr	r0, [r4, #80]	@ 0x50
34187186:	f022 0204 	bic.w	r2, r2, #4
3418718a:	601a      	str	r2, [r3, #0]
3418718c:	f7fb f880 	bl	34182290 <HAL_DMA_Abort>
34187190:	b108      	cbz	r0, 34187196 <HAL_XSPI_Abort+0x2e>
34187192:	2304      	movs	r3, #4
34187194:	65e3      	str	r3, [r4, #92]	@ 0x5c
34187196:	6d60      	ldr	r0, [r4, #84]	@ 0x54
34187198:	f7fb f87a 	bl	34182290 <HAL_DMA_Abort>
3418719c:	b108      	cbz	r0, 341871a2 <HAL_XSPI_Abort+0x3a>
3418719e:	2304      	movs	r3, #4
341871a0:	65e3      	str	r3, [r4, #92]	@ 0x5c
341871a2:	6822      	ldr	r2, [r4, #0]
341871a4:	6a13      	ldr	r3, [r2, #32]
341871a6:	f013 0f20 	tst.w	r3, #32
341871aa:	6813      	ldr	r3, [r2, #0]
341871ac:	d022      	beq.n	341871f4 <HAL_XSPI_Abort+0x8c>
341871ae:	f043 0302 	orr.w	r3, r3, #2
341871b2:	6013      	str	r3, [r2, #0]
341871b4:	6e23      	ldr	r3, [r4, #96]	@ 0x60
341871b6:	2201      	movs	r2, #1
341871b8:	9300      	str	r3, [sp, #0]
341871ba:	2102      	movs	r1, #2
341871bc:	462b      	mov	r3, r5
341871be:	4620      	mov	r0, r4
341871c0:	f7ff fd76 	bl	34186cb0 <XSPI_WaitFlagStateUntilTimeout>
341871c4:	4602      	mov	r2, r0
341871c6:	b110      	cbz	r0, 341871ce <HAL_XSPI_Abort+0x66>
341871c8:	2003      	movs	r0, #3
341871ca:	b002      	add	sp, #8
341871cc:	bd70      	pop	{r4, r5, r6, pc}
341871ce:	2602      	movs	r6, #2
341871d0:	6823      	ldr	r3, [r4, #0]
341871d2:	2120      	movs	r1, #32
341871d4:	625e      	str	r6, [r3, #36]	@ 0x24
341871d6:	6e23      	ldr	r3, [r4, #96]	@ 0x60
341871d8:	4620      	mov	r0, r4
341871da:	9300      	str	r3, [sp, #0]
341871dc:	462b      	mov	r3, r5
341871de:	f7ff fd67 	bl	34186cb0 <XSPI_WaitFlagStateUntilTimeout>
341871e2:	2800      	cmp	r0, #0
341871e4:	d1f0      	bne.n	341871c8 <HAL_XSPI_Abort+0x60>
341871e6:	6822      	ldr	r2, [r4, #0]
341871e8:	6813      	ldr	r3, [r2, #0]
341871ea:	f023 5340 	bic.w	r3, r3, #805306368	@ 0x30000000
341871ee:	6013      	str	r3, [r2, #0]
341871f0:	65a6      	str	r6, [r4, #88]	@ 0x58
341871f2:	e7ea      	b.n	341871ca <HAL_XSPI_Abort+0x62>
341871f4:	f023 5340 	bic.w	r3, r3, #805306368	@ 0x30000000
341871f8:	6013      	str	r3, [r2, #0]
341871fa:	2302      	movs	r3, #2
341871fc:	65a3      	str	r3, [r4, #88]	@ 0x58
341871fe:	e7e4      	b.n	341871ca <HAL_XSPI_Abort+0x62>
34187200:	2310      	movs	r3, #16
34187202:	2001      	movs	r0, #1
34187204:	65e3      	str	r3, [r4, #92]	@ 0x5c
34187206:	e7e0      	b.n	341871ca <HAL_XSPI_Abort+0x62>

34187208 <HAL_XSPI_SetClockPrescaler>:
34187208:	4602      	mov	r2, r0
3418720a:	6d80      	ldr	r0, [r0, #88]	@ 0x58
3418720c:	f010 0008 	ands.w	r0, r0, #8
34187210:	d107      	bne.n	34187222 <HAL_XSPI_SetClockPrescaler+0x1a>
34187212:	6251      	str	r1, [r2, #36]	@ 0x24
34187214:	6812      	ldr	r2, [r2, #0]
34187216:	68d3      	ldr	r3, [r2, #12]
34187218:	f023 03ff 	bic.w	r3, r3, #255	@ 0xff
3418721c:	4319      	orrs	r1, r3
3418721e:	60d1      	str	r1, [r2, #12]
34187220:	4770      	bx	lr
34187222:	2310      	movs	r3, #16
34187224:	2001      	movs	r0, #1
34187226:	65d3      	str	r3, [r2, #92]	@ 0x5c
34187228:	4770      	bx	lr
	...

3418722c <HAL_XSPIM_Config>:
3418722c:	b5f0      	push	{r4, r5, r6, r7, lr}
3418722e:	b08b      	sub	sp, #44	@ 0x2c
34187230:	2224      	movs	r2, #36	@ 0x24
34187232:	4605      	mov	r5, r0
34187234:	460c      	mov	r4, r1
34187236:	a801      	add	r0, sp, #4
34187238:	2100      	movs	r1, #0
3418723a:	f001 fce2 	bl	34188c02 <memset>
3418723e:	4b5d      	ldr	r3, [pc, #372]	@ (341873b4 <HAL_XSPIM_Config+0x188>)
34187240:	f8d3 2400 	ldr.w	r2, [r3, #1024]	@ 0x400
34187244:	f3c2 0240 	ubfx	r2, r2, #1, #1
34187248:	9202      	str	r2, [sp, #8]
3418724a:	f8d3 2400 	ldr.w	r2, [r3, #1024]	@ 0x400
3418724e:	06d2      	lsls	r2, r2, #27
34187250:	d501      	bpl.n	34187256 <HAL_XSPIM_Config+0x2a>
34187252:	f8d3 3400 	ldr.w	r3, [r3, #1024]	@ 0x400
34187256:	2201      	movs	r2, #1
34187258:	260c      	movs	r6, #12
3418725a:	4956      	ldr	r1, [pc, #344]	@ (341873b4 <HAL_XSPIM_Config+0x188>)
3418725c:	f8d1 3400 	ldr.w	r3, [r1, #1024]	@ 0x400
34187260:	4610      	mov	r0, r2
34187262:	f8d1 7400 	ldr.w	r7, [r1, #1024]	@ 0x400
34187266:	f10d 0c28 	add.w	ip, sp, #40	@ 0x28
3418726a:	ea83 0357 	eor.w	r3, r3, r7, lsr #1
3418726e:	43db      	mvns	r3, r3
34187270:	fb06 c000 	mla	r0, r6, r0, ip
34187274:	f003 0301 	and.w	r3, r3, #1
34187278:	f840 3c20 	str.w	r3, [r0, #-32]
3418727c:	f8d1 3400 	ldr.w	r3, [r1, #1024]	@ 0x400
34187280:	3201      	adds	r2, #1
34187282:	06db      	lsls	r3, r3, #27
34187284:	b2d2      	uxtb	r2, r2
34187286:	d501      	bpl.n	3418728c <HAL_XSPIM_Config+0x60>
34187288:	f8d1 3400 	ldr.w	r3, [r1, #1024]	@ 0x400
3418728c:	2a03      	cmp	r2, #3
3418728e:	d1e5      	bne.n	3418725c <HAL_XSPIM_Config+0x30>
34187290:	4b49      	ldr	r3, [pc, #292]	@ (341873b8 <HAL_XSPIM_Config+0x18c>)
34187292:	f8d3 3260 	ldr.w	r3, [r3, #608]	@ 0x260
34187296:	f013 0320 	ands.w	r3, r3, #32
3418729a:	d009      	beq.n	341872b0 <HAL_XSPIM_Config+0x84>
3418729c:	4a47      	ldr	r2, [pc, #284]	@ (341873bc <HAL_XSPIM_Config+0x190>)
3418729e:	6813      	ldr	r3, [r2, #0]
341872a0:	f013 0301 	ands.w	r3, r3, #1
341872a4:	bf1f      	itttt	ne
341872a6:	6813      	ldrne	r3, [r2, #0]
341872a8:	f023 0301 	bicne.w	r3, r3, #1
341872ac:	6013      	strne	r3, [r2, #0]
341872ae:	2301      	movne	r3, #1
341872b0:	4841      	ldr	r0, [pc, #260]	@ (341873b8 <HAL_XSPIM_Config+0x18c>)
341872b2:	f8d0 2260 	ldr.w	r2, [r0, #608]	@ 0x260
341872b6:	04d7      	lsls	r7, r2, #19
341872b8:	d509      	bpl.n	341872ce <HAL_XSPIM_Config+0xa2>
341872ba:	4a41      	ldr	r2, [pc, #260]	@ (341873c0 <HAL_XSPIM_Config+0x194>)
341872bc:	6811      	ldr	r1, [r2, #0]
341872be:	07ce      	lsls	r6, r1, #31
341872c0:	bf41      	itttt	mi
341872c2:	6811      	ldrmi	r1, [r2, #0]
341872c4:	f043 0302 	orrmi.w	r3, r3, #2
341872c8:	f021 0101 	bicmi.w	r1, r1, #1
341872cc:	6011      	strmi	r1, [r2, #0]
341872ce:	f8d0 2260 	ldr.w	r2, [r0, #608]	@ 0x260
341872d2:	0390      	lsls	r0, r2, #14
341872d4:	d509      	bpl.n	341872ea <HAL_XSPIM_Config+0xbe>
341872d6:	4a3b      	ldr	r2, [pc, #236]	@ (341873c4 <HAL_XSPIM_Config+0x198>)
341872d8:	6811      	ldr	r1, [r2, #0]
341872da:	07c9      	lsls	r1, r1, #31
341872dc:	bf41      	itttt	mi
341872de:	6811      	ldrmi	r1, [r2, #0]
341872e0:	f043 0304 	orrmi.w	r3, r3, #4
341872e4:	f021 0101 	bicmi.w	r1, r1, #1
341872e8:	6011      	strmi	r1, [r2, #0]
341872ea:	2000      	movs	r0, #0
341872ec:	4a31      	ldr	r2, [pc, #196]	@ (341873b4 <HAL_XSPIM_Config+0x188>)
341872ee:	f8c2 0400 	str.w	r0, [r2, #1024]	@ 0x400
341872f2:	f8d2 1400 	ldr.w	r1, [r2, #1024]	@ 0x400
341872f6:	68a6      	ldr	r6, [r4, #8]
341872f8:	f421 017f 	bic.w	r1, r1, #16711680	@ 0xff0000
341872fc:	3e01      	subs	r6, #1
341872fe:	ea41 4106 	orr.w	r1, r1, r6, lsl #16
34187302:	f8c2 1400 	str.w	r1, [r2, #1024]	@ 0x400
34187306:	4e2d      	ldr	r6, [pc, #180]	@ (341873bc <HAL_XSPIM_Config+0x190>)
34187308:	6829      	ldr	r1, [r5, #0]
3418730a:	42b1      	cmp	r1, r6
3418730c:	d129      	bne.n	34187362 <HAL_XSPIM_Config+0x136>
3418730e:	6861      	ldr	r1, [r4, #4]
34187310:	6820      	ldr	r0, [r4, #0]
34187312:	9102      	str	r1, [sp, #8]
34187314:	b130      	cbz	r0, 34187324 <HAL_XSPIM_Config+0xf8>
34187316:	f8d2 1400 	ldr.w	r1, [r2, #1024]	@ 0x400
3418731a:	f021 0130 	bic.w	r1, r1, #48	@ 0x30
3418731e:	4301      	orrs	r1, r0
34187320:	f8c2 1400 	str.w	r1, [r2, #1024]	@ 0x400
34187324:	9902      	ldr	r1, [sp, #8]
34187326:	9a05      	ldr	r2, [sp, #20]
34187328:	4291      	cmp	r1, r2
3418732a:	d106      	bne.n	3418733a <HAL_XSPIM_Config+0x10e>
3418732c:	4821      	ldr	r0, [pc, #132]	@ (341873b4 <HAL_XSPIM_Config+0x188>)
3418732e:	f8d0 2400 	ldr.w	r2, [r0, #1024]	@ 0x400
34187332:	f042 0201 	orr.w	r2, r2, #1
34187336:	f8c0 2400 	str.w	r2, [r0, #1024]	@ 0x400
3418733a:	2901      	cmp	r1, #1
3418733c:	d106      	bne.n	3418734c <HAL_XSPIM_Config+0x120>
3418733e:	491d      	ldr	r1, [pc, #116]	@ (341873b4 <HAL_XSPIM_Config+0x188>)
34187340:	f8d1 2400 	ldr.w	r2, [r1, #1024]	@ 0x400
34187344:	f042 0202 	orr.w	r2, r2, #2
34187348:	f8c1 2400 	str.w	r2, [r1, #1024]	@ 0x400
3418734c:	07da      	lsls	r2, r3, #31
3418734e:	bf41      	itttt	mi
34187350:	491a      	ldrmi	r1, [pc, #104]	@ (341873bc <HAL_XSPIM_Config+0x190>)
34187352:	680a      	ldrmi	r2, [r1, #0]
34187354:	f042 0201 	orrmi.w	r2, r2, #1
34187358:	600a      	strmi	r2, [r1, #0]
3418735a:	079b      	lsls	r3, r3, #30
3418735c:	d423      	bmi.n	341873a6 <HAL_XSPIM_Config+0x17a>
3418735e:	2000      	movs	r0, #0
34187360:	e01f      	b.n	341873a2 <HAL_XSPIM_Config+0x176>
34187362:	4e17      	ldr	r6, [pc, #92]	@ (341873c0 <HAL_XSPIM_Config+0x194>)
34187364:	42b1      	cmp	r1, r6
34187366:	d109      	bne.n	3418737c <HAL_XSPIM_Config+0x150>
34187368:	6861      	ldr	r1, [r4, #4]
3418736a:	6820      	ldr	r0, [r4, #0]
3418736c:	9105      	str	r1, [sp, #20]
3418736e:	2800      	cmp	r0, #0
34187370:	d0d8      	beq.n	34187324 <HAL_XSPIM_Config+0xf8>
34187372:	f8d2 1400 	ldr.w	r1, [r2, #1024]	@ 0x400
34187376:	f021 0150 	bic.w	r1, r1, #80	@ 0x50
3418737a:	e7d0      	b.n	3418731e <HAL_XSPIM_Config+0xf2>
3418737c:	4a11      	ldr	r2, [pc, #68]	@ (341873c4 <HAL_XSPIM_Config+0x198>)
3418737e:	4291      	cmp	r1, r2
34187380:	d10a      	bne.n	34187398 <HAL_XSPIM_Config+0x16c>
34187382:	6862      	ldr	r2, [r4, #4]
34187384:	b91a      	cbnz	r2, 3418738e <HAL_XSPIM_Config+0x162>
34187386:	2201      	movs	r2, #1
34187388:	9202      	str	r2, [sp, #8]
3418738a:	9205      	str	r2, [sp, #20]
3418738c:	e7ca      	b.n	34187324 <HAL_XSPIM_Config+0xf8>
3418738e:	2a01      	cmp	r2, #1
34187390:	d1c8      	bne.n	34187324 <HAL_XSPIM_Config+0xf8>
34187392:	9002      	str	r0, [sp, #8]
34187394:	9005      	str	r0, [sp, #20]
34187396:	e7c5      	b.n	34187324 <HAL_XSPIM_Config+0xf8>
34187398:	2001      	movs	r0, #1
3418739a:	6deb      	ldr	r3, [r5, #92]	@ 0x5c
3418739c:	f043 0308 	orr.w	r3, r3, #8
341873a0:	65eb      	str	r3, [r5, #92]	@ 0x5c
341873a2:	b00b      	add	sp, #44	@ 0x2c
341873a4:	bdf0      	pop	{r4, r5, r6, r7, pc}
341873a6:	4a06      	ldr	r2, [pc, #24]	@ (341873c0 <HAL_XSPIM_Config+0x194>)
341873a8:	6813      	ldr	r3, [r2, #0]
341873aa:	f043 0301 	orr.w	r3, r3, #1
341873ae:	6013      	str	r3, [r2, #0]
341873b0:	e7d5      	b.n	3418735e <HAL_XSPIM_Config+0x132>
341873b2:	bf00      	nop
341873b4:	5802b000 	.word	0x5802b000
341873b8:	56028000 	.word	0x56028000
341873bc:	58025000 	.word	0x58025000
341873c0:	5802a000 	.word	0x5802a000
341873c4:	5802d000 	.word	0x5802d000

341873c8 <MapMemory>:
341873c8:	2100      	movs	r1, #0
341873ca:	b508      	push	{r3, lr}
341873cc:	4608      	mov	r0, r1
341873ce:	f000 f89b 	bl	34187508 <EXTMEM_MemoryMappedMode>
341873d2:	1c43      	adds	r3, r0, #1
341873d4:	d004      	beq.n	341873e0 <MapMemory+0x18>
341873d6:	2800      	cmp	r0, #0
341873d8:	bf0c      	ite	eq
341873da:	2000      	moveq	r0, #0
341873dc:	2003      	movne	r0, #3
341873de:	bd08      	pop	{r3, pc}
341873e0:	2004      	movs	r0, #4
341873e2:	e7fc      	b.n	341873de <MapMemory+0x16>

341873e4 <JumpToApplication>:
341873e4:	b573      	push	{r0, r1, r4, r5, r6, lr}
341873e6:	2000      	movs	r0, #0
341873e8:	a901      	add	r1, sp, #4
341873ea:	f000 f8a7 	bl	3418753c <EXTMEM_GetMapAddress>
341873ee:	4604      	mov	r4, r0
341873f0:	2800      	cmp	r0, #0
341873f2:	d15e      	bne.n	341874b2 <JumpToApplication+0xce>
341873f4:	f7fa feee 	bl	341821d4 <HAL_SuspendTick>
341873f8:	4b2f      	ldr	r3, [pc, #188]	@ (341874b8 <JumpToApplication+0xd4>)
341873fa:	695a      	ldr	r2, [r3, #20]
341873fc:	0392      	lsls	r2, r2, #14
341873fe:	d50d      	bpl.n	3418741c <JumpToApplication+0x38>
34187400:	f3bf 8f4f 	dsb	sy
34187404:	f3bf 8f6f 	isb	sy
34187408:	695a      	ldr	r2, [r3, #20]
3418740a:	f422 3200 	bic.w	r2, r2, #131072	@ 0x20000
3418740e:	615a      	str	r2, [r3, #20]
34187410:	f8c3 4250 	str.w	r4, [r3, #592]	@ 0x250
34187414:	f3bf 8f4f 	dsb	sy
34187418:	f3bf 8f6f 	isb	sy
3418741c:	4a26      	ldr	r2, [pc, #152]	@ (341874b8 <JumpToApplication+0xd4>)
3418741e:	6953      	ldr	r3, [r2, #20]
34187420:	03db      	lsls	r3, r3, #15
34187422:	d529      	bpl.n	34187478 <JumpToApplication+0x94>
34187424:	2300      	movs	r3, #0
34187426:	f8c2 3084 	str.w	r3, [r2, #132]	@ 0x84
3418742a:	f3bf 8f4f 	dsb	sy
3418742e:	6953      	ldr	r3, [r2, #20]
34187430:	f423 3380 	bic.w	r3, r3, #65536	@ 0x10000
34187434:	6153      	str	r3, [r2, #20]
34187436:	f3bf 8f4f 	dsb	sy
3418743a:	f643 74e0 	movw	r4, #16352	@ 0x3fe0
3418743e:	f8d2 3080 	ldr.w	r3, [r2, #128]	@ 0x80
34187442:	f3c3 00c9 	ubfx	r0, r3, #3, #10
34187446:	f3c3 334e 	ubfx	r3, r3, #13, #15
3418744a:	015b      	lsls	r3, r3, #5
3418744c:	f100 0e01 	add.w	lr, r0, #1
34187450:	4601      	mov	r1, r0
34187452:	f04e e001 	dls	lr, lr
34187456:	ea03 0604 	and.w	r6, r3, r4
3418745a:	ea46 7581 	orr.w	r5, r6, r1, lsl #30
3418745e:	f8c2 5274 	str.w	r5, [r2, #628]	@ 0x274
34187462:	3901      	subs	r1, #1
34187464:	f00f c807 	le	lr, 3418745a <JumpToApplication+0x76>
34187468:	3b20      	subs	r3, #32
3418746a:	f113 0f20 	cmn.w	r3, #32
3418746e:	d1ed      	bne.n	3418744c <JumpToApplication+0x68>
34187470:	f3bf 8f4f 	dsb	sy
34187474:	f3bf 8f6f 	isb	sy
34187478:	f3ef 8110 	mrs	r1, PRIMASK
3418747c:	b672      	cpsid	i
3418747e:	9b01      	ldr	r3, [sp, #4]
34187480:	480d      	ldr	r0, [pc, #52]	@ (341874b8 <JumpToApplication+0xd4>)
34187482:	f503 1380 	add.w	r3, r3, #1048576	@ 0x100000
34187486:	f503 6280 	add.w	r2, r3, #1024	@ 0x400
3418748a:	9201      	str	r2, [sp, #4]
3418748c:	6082      	str	r2, [r0, #8]
3418748e:	f8d3 0404 	ldr.w	r0, [r3, #1028]	@ 0x404
34187492:	4a0a      	ldr	r2, [pc, #40]	@ (341874bc <JumpToApplication+0xd8>)
34187494:	2400      	movs	r4, #0
34187496:	6010      	str	r0, [r2, #0]
34187498:	f384 880a 	msr	MSPLIM, r4
3418749c:	f8d3 3400 	ldr.w	r3, [r3, #1024]	@ 0x400
341874a0:	f383 8808 	msr	MSP, r3
341874a4:	f381 8810 	msr	PRIMASK, r1
341874a8:	6813      	ldr	r3, [r2, #0]
341874aa:	4798      	blx	r3
341874ac:	4620      	mov	r0, r4
341874ae:	b002      	add	sp, #8
341874b0:	bd70      	pop	{r4, r5, r6, pc}
341874b2:	2004      	movs	r0, #4
341874b4:	e7fb      	b.n	341874ae <JumpToApplication+0xca>
341874b6:	bf00      	nop
341874b8:	e000ed00 	.word	0xe000ed00
341874bc:	341c01cc 	.word	0x341c01cc

341874c0 <BOOT_Application>:
341874c0:	b508      	push	{r3, lr}
341874c2:	f7ff ff81 	bl	341873c8 <MapMemory>
341874c6:	b918      	cbnz	r0, 341874d0 <BOOT_Application+0x10>
341874c8:	e8bd 4008 	ldmia.w	sp!, {r3, lr}
341874cc:	f7ff bf8a 	b.w	341873e4 <JumpToApplication>
341874d0:	bd08      	pop	{r3, pc}
	...

341874d4 <EXTMEM_Init>:
341874d4:	460a      	mov	r2, r1
341874d6:	b508      	push	{r3, lr}
341874d8:	b968      	cbnz	r0, 341874f6 <EXTMEM_Init+0x22>
341874da:	480a      	ldr	r0, [pc, #40]	@ (34187504 <EXTMEM_Init+0x30>)
341874dc:	7803      	ldrb	r3, [r0, #0]
341874de:	b96b      	cbnz	r3, 341874fc <EXTMEM_Init+0x28>
341874e0:	7a01      	ldrb	r1, [r0, #8]
341874e2:	f100 030c 	add.w	r3, r0, #12
341874e6:	6840      	ldr	r0, [r0, #4]
341874e8:	f001 fafc 	bl	34188ae4 <EXTMEM_DRIVER_NOR_SFDP_Init>
341874ec:	2800      	cmp	r0, #0
341874ee:	bf18      	it	ne
341874f0:	f06f 0002 	mvnne.w	r0, #2
341874f4:	bd08      	pop	{r3, pc}
341874f6:	f06f 0004 	mvn.w	r0, #4
341874fa:	e7fb      	b.n	341874f4 <EXTMEM_Init+0x20>
341874fc:	f06f 0001 	mvn.w	r0, #1
34187500:	e7f8      	b.n	341874f4 <EXTMEM_Init+0x20>
34187502:	bf00      	nop
34187504:	341c01d0 	.word	0x341c01d0

34187508 <EXTMEM_MemoryMappedMode>:
34187508:	b508      	push	{r3, lr}
3418750a:	b978      	cbnz	r0, 3418752c <EXTMEM_MemoryMappedMode+0x24>
3418750c:	480a      	ldr	r0, [pc, #40]	@ (34187538 <EXTMEM_MemoryMappedMode+0x30>)
3418750e:	7803      	ldrb	r3, [r0, #0]
34187510:	b97b      	cbnz	r3, 34187532 <EXTMEM_MemoryMappedMode+0x2a>
34187512:	300c      	adds	r0, #12
34187514:	b939      	cbnz	r1, 34187526 <EXTMEM_MemoryMappedMode+0x1e>
34187516:	f001 fb57 	bl	34188bc8 <EXTMEM_DRIVER_NOR_SFDP_Enable_MemoryMappedMode>
3418751a:	b908      	cbnz	r0, 34187520 <EXTMEM_MemoryMappedMode+0x18>
3418751c:	2000      	movs	r0, #0
3418751e:	bd08      	pop	{r3, pc}
34187520:	f06f 0002 	mvn.w	r0, #2
34187524:	e7fb      	b.n	3418751e <EXTMEM_MemoryMappedMode+0x16>
34187526:	f001 fb62 	bl	34188bee <EXTMEM_DRIVER_NOR_SFDP_Disable_MemoryMappedMode>
3418752a:	e7f6      	b.n	3418751a <EXTMEM_MemoryMappedMode+0x12>
3418752c:	f06f 0004 	mvn.w	r0, #4
34187530:	e7f5      	b.n	3418751e <EXTMEM_MemoryMappedMode+0x16>
34187532:	f06f 0001 	mvn.w	r0, #1
34187536:	e7f2      	b.n	3418751e <EXTMEM_MemoryMappedMode+0x16>
34187538:	341c01d0 	.word	0x341c01d0

3418753c <EXTMEM_GetMapAddress>:
3418753c:	b9d0      	cbnz	r0, 34187574 <EXTMEM_GetMapAddress+0x38>
3418753e:	4b12      	ldr	r3, [pc, #72]	@ (34187588 <EXTMEM_GetMapAddress+0x4c>)
34187540:	781a      	ldrb	r2, [r3, #0]
34187542:	f012 0ffd 	tst.w	r2, #253	@ 0xfd
34187546:	d118      	bne.n	3418757a <EXTMEM_GetMapAddress+0x3e>
34187548:	685b      	ldr	r3, [r3, #4]
3418754a:	4a10      	ldr	r2, [pc, #64]	@ (3418758c <EXTMEM_GetMapAddress+0x50>)
3418754c:	681b      	ldr	r3, [r3, #0]
3418754e:	4293      	cmp	r3, r2
34187550:	d104      	bne.n	3418755c <EXTMEM_GetMapAddress+0x20>
34187552:	f04f 4310 	mov.w	r3, #2415919104	@ 0x90000000
34187556:	2000      	movs	r0, #0
34187558:	600b      	str	r3, [r1, #0]
3418755a:	4770      	bx	lr
3418755c:	4a0c      	ldr	r2, [pc, #48]	@ (34187590 <EXTMEM_GetMapAddress+0x54>)
3418755e:	4293      	cmp	r3, r2
34187560:	d102      	bne.n	34187568 <EXTMEM_GetMapAddress+0x2c>
34187562:	f04f 43e0 	mov.w	r3, #1879048192	@ 0x70000000
34187566:	e7f6      	b.n	34187556 <EXTMEM_GetMapAddress+0x1a>
34187568:	4a0a      	ldr	r2, [pc, #40]	@ (34187594 <EXTMEM_GetMapAddress+0x58>)
3418756a:	4293      	cmp	r3, r2
3418756c:	d108      	bne.n	34187580 <EXTMEM_GetMapAddress+0x44>
3418756e:	f04f 4300 	mov.w	r3, #2147483648	@ 0x80000000
34187572:	e7f0      	b.n	34187556 <EXTMEM_GetMapAddress+0x1a>
34187574:	f06f 0004 	mvn.w	r0, #4
34187578:	4770      	bx	lr
3418757a:	f06f 0001 	mvn.w	r0, #1
3418757e:	4770      	bx	lr
34187580:	f06f 0002 	mvn.w	r0, #2
34187584:	4770      	bx	lr
34187586:	bf00      	nop
34187588:	341c01d0 	.word	0x341c01d0
3418758c:	58025000 	.word	0x58025000
34187590:	5802a000 	.word	0x5802a000
34187594:	5802d000 	.word	0x5802d000

34187598 <SAL_XSPI_SetClock>:
34187598:	b530      	push	{r4, r5, lr}
3418759a:	b1aa      	cbz	r2, 341875c8 <SAL_XSPI_SetClock+0x30>
3418759c:	428a      	cmp	r2, r1
3418759e:	fbb1 f4f2 	udiv	r4, r1, r2
341875a2:	d804      	bhi.n	341875ae <SAL_XSPI_SetClock+0x16>
341875a4:	fbb1 f5f4 	udiv	r5, r1, r4
341875a8:	4295      	cmp	r5, r2
341875aa:	bf98      	it	ls
341875ac:	3c01      	subls	r4, #1
341875ae:	1c62      	adds	r2, r4, #1
341875b0:	fbb1 f1f2 	udiv	r1, r1, r2
341875b4:	6019      	str	r1, [r3, #0]
341875b6:	6803      	ldr	r3, [r0, #0]
341875b8:	2000      	movs	r0, #0
341875ba:	681a      	ldr	r2, [r3, #0]
341875bc:	68d3      	ldr	r3, [r2, #12]
341875be:	f023 03ff 	bic.w	r3, r3, #255	@ 0xff
341875c2:	4323      	orrs	r3, r4
341875c4:	60d3      	str	r3, [r2, #12]
341875c6:	bd30      	pop	{r4, r5, pc}
341875c8:	2001      	movs	r0, #1
341875ca:	e7fc      	b.n	341875c6 <SAL_XSPI_SetClock+0x2e>

341875cc <SAL_XSPI_Init>:
341875cc:	b530      	push	{r4, r5, lr}
341875ce:	b095      	sub	sp, #84	@ 0x54
341875d0:	4604      	mov	r4, r0
341875d2:	460d      	mov	r5, r1
341875d4:	224c      	movs	r2, #76	@ 0x4c
341875d6:	2100      	movs	r1, #0
341875d8:	a801      	add	r0, sp, #4
341875da:	f001 fb12 	bl	34188c02 <memset>
341875de:	225a      	movs	r2, #90	@ 0x5a
341875e0:	2301      	movs	r3, #1
341875e2:	f44f 7180 	mov.w	r1, #256	@ 0x100
341875e6:	e9cd 2303 	strd	r2, r3, [sp, #12]
341875ea:	f44f 5300 	mov.w	r3, #8192	@ 0x2000
341875ee:	e9cd 1308 	strd	r1, r3, [sp, #32]
341875f2:	f04f 7380 	mov.w	r3, #16777216	@ 0x1000000
341875f6:	4620      	mov	r0, r4
341875f8:	930f      	str	r3, [sp, #60]	@ 0x3c
341875fa:	2308      	movs	r3, #8
341875fc:	224c      	movs	r2, #76	@ 0x4c
341875fe:	f840 5b04 	str.w	r5, [r0], #4
34187602:	a901      	add	r1, sp, #4
34187604:	9312      	str	r3, [sp, #72]	@ 0x48
34187606:	f001 fb29 	bl	34188c5c <memcpy>
3418760a:	2000      	movs	r0, #0
3418760c:	f884 0050 	strb.w	r0, [r4, #80]	@ 0x50
34187610:	f884 0052 	strb.w	r0, [r4, #82]	@ 0x52
34187614:	b015      	add	sp, #84	@ 0x54
34187616:	bd30      	pop	{r4, r5, pc}

34187618 <SAL_XSPI_MemoryConfig>:
34187618:	e92d 4ff0 	stmdb	sp!, {r4, r5, r6, r7, r8, r9, sl, fp, lr}
3418761c:	4604      	mov	r4, r0
3418761e:	b099      	sub	sp, #100	@ 0x64
34187620:	1d03      	adds	r3, r0, #4
34187622:	e9cd 1201 	strd	r1, r2, [sp, #4]
34187626:	a805      	add	r0, sp, #20
34187628:	4619      	mov	r1, r3
3418762a:	224c      	movs	r2, #76	@ 0x4c
3418762c:	9303      	str	r3, [sp, #12]
3418762e:	f001 fb15 	bl	34188c5c <memcpy>
34187632:	e9d4 9804 	ldrd	r9, r8, [r4, #16]
34187636:	e9d4 e508 	ldrd	lr, r5, [r4, #32]
3418763a:	e9d4 1211 	ldrd	r1, r2, [r4, #68]	@ 0x44
3418763e:	9f01      	ldr	r7, [sp, #4]
34187640:	69a6      	ldr	r6, [r4, #24]
34187642:	f8d4 c028 	ldr.w	ip, [r4, #40]	@ 0x28
34187646:	f8d4 a030 	ldr.w	sl, [r4, #48]	@ 0x30
3418764a:	6be0      	ldr	r0, [r4, #60]	@ 0x3c
3418764c:	6ce3      	ldr	r3, [r4, #76]	@ 0x4c
3418764e:	2f04      	cmp	r7, #4
34187650:	d804      	bhi.n	3418765c <SAL_XSPI_MemoryConfig+0x44>
34187652:	e8df f007 	tbb	[pc, r7]
34187656:	a206      	.short	0xa206
34187658:	03a5      	.short	0x03a5
3418765a:	93          	.byte	0x93
3418765b:	00          	.byte	0x00
3418765c:	2401      	movs	r4, #1
3418765e:	9401      	str	r4, [sp, #4]
34187660:	e01d      	b.n	3418769e <SAL_XSPI_MemoryConfig+0x86>
34187662:	9f02      	ldr	r7, [sp, #8]
34187664:	f897 b000 	ldrb.w	fp, [r7]
34187668:	f884 b052 	strb.w	fp, [r4, #82]	@ 0x52
3418766c:	f1bb 0f0b 	cmp.w	fp, #11
34187670:	d8f4      	bhi.n	3418765c <SAL_XSPI_MemoryConfig+0x44>
34187672:	e8df f00b 	tbb	[pc, fp]
34187676:	0606      	.short	0x0606
34187678:	98980606 	.word	0x98980606
3418767c:	58463b2a 	.word	0x58463b2a
34187680:	7b69      	.short	0x7b69
34187682:	2300      	movs	r3, #0
34187684:	2208      	movs	r2, #8
34187686:	4619      	mov	r1, r3
34187688:	f04f 7080 	mov.w	r0, #16777216	@ 0x1000000
3418768c:	469c      	mov	ip, r3
3418768e:	f44f 5500 	mov.w	r5, #8192	@ 0x2000
34187692:	f44f 7e80 	mov.w	lr, #256	@ 0x100
34187696:	461e      	mov	r6, r3
34187698:	4698      	mov	r8, r3
3418769a:	f04f 0901 	mov.w	r9, #1
3418769e:	e9cd 1215 	strd	r1, r2, [sp, #84]	@ 0x54
341876a2:	9013      	str	r0, [sp, #76]	@ 0x4c
341876a4:	224c      	movs	r2, #76	@ 0x4c
341876a6:	9803      	ldr	r0, [sp, #12]
341876a8:	a905      	add	r1, sp, #20
341876aa:	e9cd 9808 	strd	r9, r8, [sp, #32]
341876ae:	e9cd e50c 	strd	lr, r5, [sp, #48]	@ 0x30
341876b2:	960a      	str	r6, [sp, #40]	@ 0x28
341876b4:	f8cd c038 	str.w	ip, [sp, #56]	@ 0x38
341876b8:	f8cd a040 	str.w	sl, [sp, #64]	@ 0x40
341876bc:	9317      	str	r3, [sp, #92]	@ 0x5c
341876be:	f001 facd 	bl	34188c5c <memcpy>
341876c2:	9801      	ldr	r0, [sp, #4]
341876c4:	b019      	add	sp, #100	@ 0x64
341876c6:	e8bd 8ff0 	ldmia.w	sp!, {r4, r5, r6, r7, r8, r9, sl, fp, pc}
341876ca:	2300      	movs	r3, #0
341876cc:	2206      	movs	r2, #6
341876ce:	f04f 6100 	mov.w	r1, #134217728	@ 0x8000000
341876d2:	f04f 7040 	mov.w	r0, #50331648	@ 0x3000000
341876d6:	f44f 6c00 	mov.w	ip, #2048	@ 0x800
341876da:	f44f 5500 	mov.w	r5, #8192	@ 0x2000
341876de:	f44f 7e40 	mov.w	lr, #768	@ 0x300
341876e2:	2608      	movs	r6, #8
341876e4:	4698      	mov	r8, r3
341876e6:	f04f 0903 	mov.w	r9, #3
341876ea:	e7d8      	b.n	3418769e <SAL_XSPI_MemoryConfig+0x86>
341876ec:	2300      	movs	r3, #0
341876ee:	2208      	movs	r2, #8
341876f0:	4619      	mov	r1, r3
341876f2:	f04f 6080 	mov.w	r0, #67108864	@ 0x4000000
341876f6:	469c      	mov	ip, r3
341876f8:	f44f 5540 	mov.w	r5, #12288	@ 0x3000
341876fc:	f44f 6e80 	mov.w	lr, #1024	@ 0x400
34187700:	e7c9      	b.n	34187696 <SAL_XSPI_MemoryConfig+0x7e>
34187702:	2600      	movs	r6, #0
34187704:	f04f 5300 	mov.w	r3, #536870912	@ 0x20000000
34187708:	2208      	movs	r2, #8
3418770a:	f04f 6100 	mov.w	r1, #134217728	@ 0x8000000
3418770e:	f04f 6080 	mov.w	r0, #67108864	@ 0x4000000
34187712:	f44f 6c00 	mov.w	ip, #2048	@ 0x800
34187716:	f44f 5540 	mov.w	r5, #12288	@ 0x3000
3418771a:	f44f 6e80 	mov.w	lr, #1024	@ 0x400
3418771e:	46b0      	mov	r8, r6
34187720:	f04f 0904 	mov.w	r9, #4
34187724:	e7bb      	b.n	3418769e <SAL_XSPI_MemoryConfig+0x86>
34187726:	f04f 5300 	mov.w	r3, #536870912	@ 0x20000000
3418772a:	2214      	movs	r2, #20
3418772c:	f04f 6100 	mov.w	r1, #134217728	@ 0x8000000
34187730:	f04f 6080 	mov.w	r0, #67108864	@ 0x4000000
34187734:	f44f 6c00 	mov.w	ip, #2048	@ 0x800
34187738:	f44f 5540 	mov.w	r5, #12288	@ 0x3000
3418773c:	f44f 6e80 	mov.w	lr, #1024	@ 0x400
34187740:	2608      	movs	r6, #8
34187742:	f04f 0810 	mov.w	r8, #16
34187746:	e7eb      	b.n	34187720 <SAL_XSPI_MemoryConfig+0x108>
34187748:	f04f 5300 	mov.w	r3, #536870912	@ 0x20000000
3418774c:	220a      	movs	r2, #10
3418774e:	f04f 6100 	mov.w	r1, #134217728	@ 0x8000000
34187752:	f04f 6080 	mov.w	r0, #67108864	@ 0x4000000
34187756:	f04f 0a00 	mov.w	sl, #0
3418775a:	f44f 6c00 	mov.w	ip, #2048	@ 0x800
3418775e:	f44f 5540 	mov.w	r5, #12288	@ 0x3000
34187762:	f44f 6e80 	mov.w	lr, #1024	@ 0x400
34187766:	4656      	mov	r6, sl
34187768:	46d0      	mov	r8, sl
3418776a:	e7d9      	b.n	34187720 <SAL_XSPI_MemoryConfig+0x108>
3418776c:	f04f 5300 	mov.w	r3, #536870912	@ 0x20000000
34187770:	220a      	movs	r2, #10
34187772:	f04f 6100 	mov.w	r1, #134217728	@ 0x8000000
34187776:	f04f 60a0 	mov.w	r0, #83886080	@ 0x5000000
3418777a:	e7ec      	b.n	34187756 <SAL_XSPI_MemoryConfig+0x13e>
3418777c:	6824      	ldr	r4, [r4, #0]
3418777e:	6827      	ldr	r7, [r4, #0]
34187780:	68bc      	ldr	r4, [r7, #8]
34187782:	9401      	str	r4, [sp, #4]
34187784:	9c02      	ldr	r4, [sp, #8]
34187786:	f894 b000 	ldrb.w	fp, [r4]
3418778a:	9c01      	ldr	r4, [sp, #4]
3418778c:	f424 14f8 	bic.w	r4, r4, #2031616	@ 0x1f0000
34187790:	ea44 440b 	orr.w	r4, r4, fp, lsl #16
34187794:	60bc      	str	r4, [r7, #8]
34187796:	2400      	movs	r4, #0
34187798:	e761      	b.n	3418765e <SAL_XSPI_MemoryConfig+0x46>
3418779a:	9a02      	ldr	r2, [sp, #8]
3418779c:	7812      	ldrb	r2, [r2, #0]
3418779e:	e7fa      	b.n	34187796 <SAL_XSPI_MemoryConfig+0x17e>
341877a0:	f44f 5540 	mov.w	r5, #12288	@ 0x3000
341877a4:	e7f7      	b.n	34187796 <SAL_XSPI_MemoryConfig+0x17e>
341877a6:	2300      	movs	r3, #0
341877a8:	2206      	movs	r2, #6
341877aa:	4619      	mov	r1, r3
341877ac:	f04f 7040 	mov.w	r0, #50331648	@ 0x3000000
341877b0:	469c      	mov	ip, r3
341877b2:	f44f 5500 	mov.w	r5, #8192	@ 0x2000
341877b6:	f44f 7e40 	mov.w	lr, #768	@ 0x300
341877ba:	461e      	mov	r6, r3
341877bc:	e792      	b.n	341876e4 <SAL_XSPI_MemoryConfig+0xcc>

341877be <SAL_XSPI_GetSFDP>:
341877be:	b5f0      	push	{r4, r5, r6, r7, lr}
341877c0:	b095      	sub	sp, #84	@ 0x54
341877c2:	4605      	mov	r5, r0
341877c4:	460f      	mov	r7, r1
341877c6:	4616      	mov	r6, r2
341877c8:	1d01      	adds	r1, r0, #4
341877ca:	224c      	movs	r2, #76	@ 0x4c
341877cc:	a801      	add	r0, sp, #4
341877ce:	461c      	mov	r4, r3
341877d0:	f001 fa44 	bl	34188c5c <memcpy>
341877d4:	9b05      	ldr	r3, [sp, #20]
341877d6:	2b10      	cmp	r3, #16
341877d8:	d12f      	bne.n	3418783a <SAL_XSPI_GetSFDP+0x7c>
341877da:	f895 3050 	ldrb.w	r3, [r5, #80]	@ 0x50
341877de:	2b01      	cmp	r3, #1
341877e0:	d12d      	bne.n	3418783e <SAL_XSPI_GetSFDP+0x80>
341877e2:	f645 23a5 	movw	r3, #23205	@ 0x5aa5
341877e6:	9303      	str	r3, [sp, #12]
341877e8:	f895 3051 	ldrb.w	r3, [r5, #81]	@ 0x51
341877ec:	6828      	ldr	r0, [r5, #0]
341877ee:	9312      	str	r3, [sp, #72]	@ 0x48
341877f0:	9b08      	ldr	r3, [sp, #32]
341877f2:	a901      	add	r1, sp, #4
341877f4:	f423 7300 	bic.w	r3, r3, #512	@ 0x200
341877f8:	f5b3 7f80 	cmp.w	r3, #256	@ 0x100
341877fc:	bf04      	itt	eq
341877fe:	f44f 5300 	moveq.w	r3, #8192	@ 0x2000
34187802:	9309      	streq	r3, [sp, #36]	@ 0x24
34187804:	9b11      	ldr	r3, [sp, #68]	@ 0x44
34187806:	9410      	str	r4, [sp, #64]	@ 0x40
34187808:	f103 4278 	add.w	r2, r3, #4160749568	@ 0xf8000000
3418780c:	4253      	negs	r3, r2
3418780e:	4153      	adcs	r3, r2
34187810:	075b      	lsls	r3, r3, #29
34187812:	2264      	movs	r2, #100	@ 0x64
34187814:	9707      	str	r7, [sp, #28]
34187816:	9313      	str	r3, [sp, #76]	@ 0x4c
34187818:	f7ff fb1e 	bl	34186e58 <HAL_XSPI_Command>
3418781c:	4604      	mov	r4, r0
3418781e:	b930      	cbnz	r0, 3418782e <SAL_XSPI_GetSFDP+0x70>
34187820:	2264      	movs	r2, #100	@ 0x64
34187822:	4631      	mov	r1, r6
34187824:	6828      	ldr	r0, [r5, #0]
34187826:	f7ff fbaf 	bl	34186f88 <HAL_XSPI_Receive>
3418782a:	4604      	mov	r4, r0
3418782c:	b110      	cbz	r0, 34187834 <SAL_XSPI_GetSFDP+0x76>
3418782e:	6828      	ldr	r0, [r5, #0]
34187830:	f7ff fc9a 	bl	34187168 <HAL_XSPI_Abort>
34187834:	4620      	mov	r0, r4
34187836:	b015      	add	sp, #84	@ 0x54
34187838:	bdf0      	pop	{r4, r5, r6, r7, pc}
3418783a:	235a      	movs	r3, #90	@ 0x5a
3418783c:	e7d3      	b.n	341877e6 <SAL_XSPI_GetSFDP+0x28>
3418783e:	f645 235a 	movw	r3, #23130	@ 0x5a5a
34187842:	e7d0      	b.n	341877e6 <SAL_XSPI_GetSFDP+0x28>

34187844 <SAL_XSPI_GetId>:
34187844:	b570      	push	{r4, r5, r6, lr}
34187846:	b094      	sub	sp, #80	@ 0x50
34187848:	4605      	mov	r5, r0
3418784a:	460e      	mov	r6, r1
3418784c:	4614      	mov	r4, r2
3418784e:	1d01      	adds	r1, r0, #4
34187850:	224c      	movs	r2, #76	@ 0x4c
34187852:	a801      	add	r0, sp, #4
34187854:	f001 fa02 	bl	34188c5c <memcpy>
34187858:	9b05      	ldr	r3, [sp, #20]
3418785a:	2b10      	cmp	r3, #16
3418785c:	d125      	bne.n	341878aa <SAL_XSPI_GetId+0x66>
3418785e:	f895 3050 	ldrb.w	r3, [r5, #80]	@ 0x50
34187862:	2b01      	cmp	r3, #1
34187864:	d123      	bne.n	341878ae <SAL_XSPI_GetId+0x6a>
34187866:	f649 7360 	movw	r3, #40800	@ 0x9f60
3418786a:	9a04      	ldr	r2, [sp, #16]
3418786c:	9303      	str	r3, [sp, #12]
3418786e:	2a01      	cmp	r2, #1
34187870:	f04f 0300 	mov.w	r3, #0
34187874:	9410      	str	r4, [sp, #64]	@ 0x40
34187876:	d11d      	bne.n	341878b4 <SAL_XSPI_GetId+0x70>
34187878:	9308      	str	r3, [sp, #32]
3418787a:	9312      	str	r3, [sp, #72]	@ 0x48
3418787c:	f04f 7380 	mov.w	r3, #16777216	@ 0x1000000
34187880:	930f      	str	r3, [sp, #60]	@ 0x3c
34187882:	2264      	movs	r2, #100	@ 0x64
34187884:	6828      	ldr	r0, [r5, #0]
34187886:	a901      	add	r1, sp, #4
34187888:	f7ff fae6 	bl	34186e58 <HAL_XSPI_Command>
3418788c:	4604      	mov	r4, r0
3418788e:	b930      	cbnz	r0, 3418789e <SAL_XSPI_GetId+0x5a>
34187890:	2264      	movs	r2, #100	@ 0x64
34187892:	4631      	mov	r1, r6
34187894:	6828      	ldr	r0, [r5, #0]
34187896:	f7ff fb77 	bl	34186f88 <HAL_XSPI_Receive>
3418789a:	4604      	mov	r4, r0
3418789c:	b110      	cbz	r0, 341878a4 <SAL_XSPI_GetId+0x60>
3418789e:	6828      	ldr	r0, [r5, #0]
341878a0:	f7ff fc62 	bl	34187168 <HAL_XSPI_Abort>
341878a4:	4620      	mov	r0, r4
341878a6:	b014      	add	sp, #80	@ 0x50
341878a8:	bd70      	pop	{r4, r5, r6, pc}
341878aa:	239f      	movs	r3, #159	@ 0x9f
341878ac:	e7dd      	b.n	3418786a <SAL_XSPI_GetId+0x26>
341878ae:	f649 739f 	movw	r3, #40863	@ 0x9f9f
341878b2:	e7da      	b.n	3418786a <SAL_XSPI_GetId+0x26>
341878b4:	2a03      	cmp	r2, #3
341878b6:	d104      	bne.n	341878c2 <SAL_XSPI_GetId+0x7e>
341878b8:	9308      	str	r3, [sp, #32]
341878ba:	9312      	str	r3, [sp, #72]	@ 0x48
341878bc:	f04f 7340 	mov.w	r3, #50331648	@ 0x3000000
341878c0:	e7de      	b.n	34187880 <SAL_XSPI_GetId+0x3c>
341878c2:	2a04      	cmp	r2, #4
341878c4:	9307      	str	r3, [sp, #28]
341878c6:	d113      	bne.n	341878f0 <SAL_XSPI_GetId+0xac>
341878c8:	7831      	ldrb	r1, [r6, #0]
341878ca:	29c2      	cmp	r1, #194	@ 0xc2
341878cc:	d106      	bne.n	341878dc <SAL_XSPI_GetId+0x98>
341878ce:	9911      	ldr	r1, [sp, #68]	@ 0x44
341878d0:	f1b1 6f00 	cmp.w	r1, #134217728	@ 0x8000000
341878d4:	d10c      	bne.n	341878f0 <SAL_XSPI_GetId+0xac>
341878d6:	e9cd 3211 	strd	r3, r2, [sp, #68]	@ 0x44
341878da:	e7d2      	b.n	34187882 <SAL_XSPI_GetId+0x3e>
341878dc:	29c8      	cmp	r1, #200	@ 0xc8
341878de:	d107      	bne.n	341878f0 <SAL_XSPI_GetId+0xac>
341878e0:	9a11      	ldr	r2, [sp, #68]	@ 0x44
341878e2:	f1b2 6f00 	cmp.w	r2, #134217728	@ 0x8000000
341878e6:	d103      	bne.n	341878f0 <SAL_XSPI_GetId+0xac>
341878e8:	2208      	movs	r2, #8
341878ea:	9308      	str	r3, [sp, #32]
341878ec:	9212      	str	r2, [sp, #72]	@ 0x48
341878ee:	e7c8      	b.n	34187882 <SAL_XSPI_GetId+0x3e>
341878f0:	2308      	movs	r3, #8
341878f2:	9312      	str	r3, [sp, #72]	@ 0x48
341878f4:	e7c5      	b.n	34187882 <SAL_XSPI_GetId+0x3e>

341878f6 <SAL_XSPI_DisableMapMode>:
341878f6:	f3bf 8f4f 	dsb	sy
341878fa:	6800      	ldr	r0, [r0, #0]
341878fc:	f7ff bc34 	b.w	34187168 <HAL_XSPI_Abort>

34187900 <SAL_XSPI_UpdateMemoryType>:
34187900:	6803      	ldr	r3, [r0, #0]
34187902:	6818      	ldr	r0, [r3, #0]
34187904:	6883      	ldr	r3, [r0, #8]
34187906:	b991      	cbnz	r1, 3418792e <SAL_XSPI_UpdateMemoryType+0x2e>
34187908:	f013 63e0 	ands.w	r3, r3, #117440512	@ 0x7000000
3418790c:	d00a      	beq.n	34187924 <SAL_XSPI_UpdateMemoryType+0x24>
3418790e:	f1b3 7f80 	cmp.w	r3, #16777216	@ 0x1000000
34187912:	d10a      	bne.n	3418792a <SAL_XSPI_UpdateMemoryType+0x2a>
34187914:	460b      	mov	r3, r1
34187916:	6882      	ldr	r2, [r0, #8]
34187918:	f022 62e0 	bic.w	r2, r2, #117440512	@ 0x7000000
3418791c:	4313      	orrs	r3, r2
3418791e:	6083      	str	r3, [r0, #8]
34187920:	4608      	mov	r0, r1
34187922:	4770      	bx	lr
34187924:	f04f 7380 	mov.w	r3, #16777216	@ 0x1000000
34187928:	e7f5      	b.n	34187916 <SAL_XSPI_UpdateMemoryType+0x16>
3418792a:	2101      	movs	r1, #1
3418792c:	e7f3      	b.n	34187916 <SAL_XSPI_UpdateMemoryType+0x16>
3418792e:	2001      	movs	r0, #1
34187930:	4770      	bx	lr

34187932 <SAL_XSPI_Abort>:
34187932:	6800      	ldr	r0, [r0, #0]
34187934:	f7ff bc18 	b.w	34187168 <HAL_XSPI_Abort>

34187938 <XSPI_FormatCommand>:
34187938:	2910      	cmp	r1, #16
3418793a:	4603      	mov	r3, r0
3418793c:	4610      	mov	r0, r2
3418793e:	d107      	bne.n	34187950 <XSPI_FormatCommand+0x18>
34187940:	2b01      	cmp	r3, #1
34187942:	bf08      	it	eq
34187944:	43c0      	mvneq	r0, r0
34187946:	ea4f 2202 	mov.w	r2, r2, lsl #8
3418794a:	bf08      	it	eq
3418794c:	b2c0      	uxtbeq	r0, r0
3418794e:	4310      	orrs	r0, r2
34187950:	4770      	bx	lr

34187952 <SAL_XSPI_CommandSendData>:
34187952:	b5f0      	push	{r4, r5, r6, r7, lr}
34187954:	4604      	mov	r4, r0
34187956:	460d      	mov	r5, r1
34187958:	b095      	sub	sp, #84	@ 0x54
3418795a:	1d01      	adds	r1, r0, #4
3418795c:	4617      	mov	r7, r2
3418795e:	a801      	add	r0, sp, #4
34187960:	224c      	movs	r2, #76	@ 0x4c
34187962:	461e      	mov	r6, r3
34187964:	f001 f97a 	bl	34188c5c <memcpy>
34187968:	462a      	mov	r2, r5
3418796a:	9905      	ldr	r1, [sp, #20]
3418796c:	f894 0050 	ldrb.w	r0, [r4, #80]	@ 0x50
34187970:	f7ff ffe2 	bl	34187938 <XSPI_FormatCommand>
34187974:	2300      	movs	r3, #0
34187976:	9003      	str	r0, [sp, #12]
34187978:	9308      	str	r3, [sp, #32]
3418797a:	9312      	str	r3, [sp, #72]	@ 0x48
3418797c:	9610      	str	r6, [sp, #64]	@ 0x40
3418797e:	9313      	str	r3, [sp, #76]	@ 0x4c
34187980:	b906      	cbnz	r6, 34187984 <SAL_XSPI_CommandSendData+0x32>
34187982:	960f      	str	r6, [sp, #60]	@ 0x3c
34187984:	2264      	movs	r2, #100	@ 0x64
34187986:	6820      	ldr	r0, [r4, #0]
34187988:	a901      	add	r1, sp, #4
3418798a:	f7ff fa65 	bl	34186e58 <HAL_XSPI_Command>
3418798e:	4605      	mov	r5, r0
34187990:	b950      	cbnz	r0, 341879a8 <SAL_XSPI_CommandSendData+0x56>
34187992:	b136      	cbz	r6, 341879a2 <SAL_XSPI_CommandSendData+0x50>
34187994:	2264      	movs	r2, #100	@ 0x64
34187996:	4639      	mov	r1, r7
34187998:	6820      	ldr	r0, [r4, #0]
3418799a:	f7ff faaf 	bl	34186efc <HAL_XSPI_Transmit>
3418799e:	4606      	mov	r6, r0
341879a0:	b918      	cbnz	r0, 341879aa <SAL_XSPI_CommandSendData+0x58>
341879a2:	4628      	mov	r0, r5
341879a4:	b015      	add	sp, #84	@ 0x54
341879a6:	bdf0      	pop	{r4, r5, r6, r7, pc}
341879a8:	4606      	mov	r6, r0
341879aa:	6820      	ldr	r0, [r4, #0]
341879ac:	f7ff fbdc 	bl	34187168 <HAL_XSPI_Abort>
341879b0:	4635      	mov	r5, r6
341879b2:	e7f6      	b.n	341879a2 <SAL_XSPI_CommandSendData+0x50>

341879b4 <SAL_XSPI_SendReadCommand>:
341879b4:	b5f0      	push	{r4, r5, r6, r7, lr}
341879b6:	4604      	mov	r4, r0
341879b8:	460d      	mov	r5, r1
341879ba:	b095      	sub	sp, #84	@ 0x54
341879bc:	1d01      	adds	r1, r0, #4
341879be:	4617      	mov	r7, r2
341879c0:	a801      	add	r0, sp, #4
341879c2:	224c      	movs	r2, #76	@ 0x4c
341879c4:	461e      	mov	r6, r3
341879c6:	f001 f949 	bl	34188c5c <memcpy>
341879ca:	462a      	mov	r2, r5
341879cc:	9905      	ldr	r1, [sp, #20]
341879ce:	f894 0050 	ldrb.w	r0, [r4, #80]	@ 0x50
341879d2:	f7ff ffb1 	bl	34187938 <XSPI_FormatCommand>
341879d6:	2300      	movs	r3, #0
341879d8:	9003      	str	r0, [sp, #12]
341879da:	9308      	str	r3, [sp, #32]
341879dc:	9312      	str	r3, [sp, #72]	@ 0x48
341879de:	9610      	str	r6, [sp, #64]	@ 0x40
341879e0:	9313      	str	r3, [sp, #76]	@ 0x4c
341879e2:	b906      	cbnz	r6, 341879e6 <SAL_XSPI_SendReadCommand+0x32>
341879e4:	960f      	str	r6, [sp, #60]	@ 0x3c
341879e6:	2264      	movs	r2, #100	@ 0x64
341879e8:	6820      	ldr	r0, [r4, #0]
341879ea:	a901      	add	r1, sp, #4
341879ec:	f7ff fa34 	bl	34186e58 <HAL_XSPI_Command>
341879f0:	4605      	mov	r5, r0
341879f2:	b950      	cbnz	r0, 34187a0a <SAL_XSPI_SendReadCommand+0x56>
341879f4:	b136      	cbz	r6, 34187a04 <SAL_XSPI_SendReadCommand+0x50>
341879f6:	2264      	movs	r2, #100	@ 0x64
341879f8:	4639      	mov	r1, r7
341879fa:	6820      	ldr	r0, [r4, #0]
341879fc:	f7ff fac4 	bl	34186f88 <HAL_XSPI_Receive>
34187a00:	4606      	mov	r6, r0
34187a02:	b918      	cbnz	r0, 34187a0c <SAL_XSPI_SendReadCommand+0x58>
34187a04:	4628      	mov	r0, r5
34187a06:	b015      	add	sp, #84	@ 0x54
34187a08:	bdf0      	pop	{r4, r5, r6, r7, pc}
34187a0a:	4606      	mov	r6, r0
34187a0c:	6820      	ldr	r0, [r4, #0]
34187a0e:	f7ff fbab 	bl	34187168 <HAL_XSPI_Abort>
34187a12:	4635      	mov	r5, r6
34187a14:	e7f6      	b.n	34187a04 <SAL_XSPI_SendReadCommand+0x50>

34187a16 <SAL_XSPI_CommandSendReadAddress>:
34187a16:	e92d 41f0 	stmdb	sp!, {r4, r5, r6, r7, r8, lr}
34187a1a:	4605      	mov	r5, r0
34187a1c:	460f      	mov	r7, r1
34187a1e:	b094      	sub	sp, #80	@ 0x50
34187a20:	1d01      	adds	r1, r0, #4
34187a22:	4614      	mov	r4, r2
34187a24:	a801      	add	r0, sp, #4
34187a26:	224c      	movs	r2, #76	@ 0x4c
34187a28:	461e      	mov	r6, r3
34187a2a:	f89d 806c 	ldrb.w	r8, [sp, #108]	@ 0x6c
34187a2e:	f001 f915 	bl	34188c5c <memcpy>
34187a32:	463a      	mov	r2, r7
34187a34:	9905      	ldr	r1, [sp, #20]
34187a36:	f895 0050 	ldrb.w	r0, [r5, #80]	@ 0x50
34187a3a:	f7ff ff7d 	bl	34187938 <XSPI_FormatCommand>
34187a3e:	f895 3051 	ldrb.w	r3, [r5, #81]	@ 0x51
34187a42:	f1b8 0fc2 	cmp.w	r8, #194	@ 0xc2
34187a46:	9312      	str	r3, [sp, #72]	@ 0x48
34187a48:	f8bd 3068 	ldrh.w	r3, [sp, #104]	@ 0x68
34187a4c:	f04f 0200 	mov.w	r2, #0
34187a50:	9003      	str	r0, [sp, #12]
34187a52:	9407      	str	r4, [sp, #28]
34187a54:	9310      	str	r3, [sp, #64]	@ 0x40
34187a56:	d119      	bne.n	34187a8c <SAL_XSPI_CommandSendReadAddress+0x76>
34187a58:	9b11      	ldr	r3, [sp, #68]	@ 0x44
34187a5a:	f1b3 6f00 	cmp.w	r3, #134217728	@ 0x8000000
34187a5e:	d11d      	bne.n	34187a9c <SAL_XSPI_CommandSendReadAddress+0x86>
34187a60:	9211      	str	r2, [sp, #68]	@ 0x44
34187a62:	2264      	movs	r2, #100	@ 0x64
34187a64:	6828      	ldr	r0, [r5, #0]
34187a66:	a901      	add	r1, sp, #4
34187a68:	f7ff f9f6 	bl	34186e58 <HAL_XSPI_Command>
34187a6c:	4604      	mov	r4, r0
34187a6e:	b930      	cbnz	r0, 34187a7e <SAL_XSPI_CommandSendReadAddress+0x68>
34187a70:	2264      	movs	r2, #100	@ 0x64
34187a72:	4631      	mov	r1, r6
34187a74:	6828      	ldr	r0, [r5, #0]
34187a76:	f7ff fa87 	bl	34186f88 <HAL_XSPI_Receive>
34187a7a:	4604      	mov	r4, r0
34187a7c:	b110      	cbz	r0, 34187a84 <SAL_XSPI_CommandSendReadAddress+0x6e>
34187a7e:	6828      	ldr	r0, [r5, #0]
34187a80:	f7ff fb72 	bl	34187168 <HAL_XSPI_Abort>
34187a84:	4620      	mov	r0, r4
34187a86:	b014      	add	sp, #80	@ 0x50
34187a88:	e8bd 81f0 	ldmia.w	sp!, {r4, r5, r6, r7, r8, pc}
34187a8c:	f1b8 0fc8 	cmp.w	r8, #200	@ 0xc8
34187a90:	d104      	bne.n	34187a9c <SAL_XSPI_CommandSendReadAddress+0x86>
34187a92:	9b11      	ldr	r3, [sp, #68]	@ 0x44
34187a94:	f1b3 6f00 	cmp.w	r3, #134217728	@ 0x8000000
34187a98:	bf08      	it	eq
34187a9a:	9211      	streq	r2, [sp, #68]	@ 0x44
34187a9c:	9213      	str	r2, [sp, #76]	@ 0x4c
34187a9e:	e7e0      	b.n	34187a62 <SAL_XSPI_CommandSendReadAddress+0x4c>

34187aa0 <SAL_XSPI_CheckStatusRegister>:
34187aa0:	b5f0      	push	{r4, r5, r6, r7, lr}
34187aa2:	461c      	mov	r4, r3
34187aa4:	b099      	sub	sp, #100	@ 0x64
34187aa6:	4605      	mov	r5, r0
34187aa8:	460f      	mov	r7, r1
34187aaa:	4616      	mov	r6, r2
34187aac:	1d01      	adds	r1, r0, #4
34187aae:	224c      	movs	r2, #76	@ 0x4c
34187ab0:	a805      	add	r0, sp, #20
34187ab2:	f001 f8d3 	bl	34188c5c <memcpy>
34187ab6:	f89d 3078 	ldrb.w	r3, [sp, #120]	@ 0x78
34187aba:	9400      	str	r4, [sp, #0]
34187abc:	9301      	str	r3, [sp, #4]
34187abe:	2400      	movs	r4, #0
34187ac0:	f44f 0380 	mov.w	r3, #4194304	@ 0x400000
34187ac4:	e9cd 4302 	strd	r4, r3, [sp, #8]
34187ac8:	2310      	movs	r3, #16
34187aca:	463a      	mov	r2, r7
34187acc:	9909      	ldr	r1, [sp, #36]	@ 0x24
34187ace:	f895 0050 	ldrb.w	r0, [r5, #80]	@ 0x50
34187ad2:	9304      	str	r3, [sp, #16]
34187ad4:	f7ff ff30 	bl	34187938 <XSPI_FormatCommand>
34187ad8:	2301      	movs	r3, #1
34187ada:	9314      	str	r3, [sp, #80]	@ 0x50
34187adc:	9b08      	ldr	r3, [sp, #32]
34187ade:	9007      	str	r0, [sp, #28]
34187ae0:	2b01      	cmp	r3, #1
34187ae2:	9417      	str	r4, [sp, #92]	@ 0x5c
34187ae4:	d118      	bne.n	34187b18 <SAL_XSPI_CheckStatusRegister+0x78>
34187ae6:	f04f 7380 	mov.w	r3, #16777216	@ 0x1000000
34187aea:	940c      	str	r4, [sp, #48]	@ 0x30
34187aec:	9313      	str	r3, [sp, #76]	@ 0x4c
34187aee:	9416      	str	r4, [sp, #88]	@ 0x58
34187af0:	2264      	movs	r2, #100	@ 0x64
34187af2:	6828      	ldr	r0, [r5, #0]
34187af4:	a905      	add	r1, sp, #20
34187af6:	f7ff f9af 	bl	34186e58 <HAL_XSPI_Command>
34187afa:	4604      	mov	r4, r0
34187afc:	b930      	cbnz	r0, 34187b0c <SAL_XSPI_CheckStatusRegister+0x6c>
34187afe:	4669      	mov	r1, sp
34187b00:	9a20      	ldr	r2, [sp, #128]	@ 0x80
34187b02:	6828      	ldr	r0, [r5, #0]
34187b04:	f7ff fa98 	bl	34187038 <HAL_XSPI_AutoPolling>
34187b08:	4604      	mov	r4, r0
34187b0a:	b110      	cbz	r0, 34187b12 <SAL_XSPI_CheckStatusRegister+0x72>
34187b0c:	6828      	ldr	r0, [r5, #0]
34187b0e:	f7ff fb2b 	bl	34187168 <HAL_XSPI_Abort>
34187b12:	4620      	mov	r0, r4
34187b14:	b019      	add	sp, #100	@ 0x64
34187b16:	bdf0      	pop	{r4, r5, r6, r7, pc}
34187b18:	9b13      	ldr	r3, [sp, #76]	@ 0x4c
34187b1a:	f1b3 6f80 	cmp.w	r3, #67108864	@ 0x4000000
34187b1e:	d1e7      	bne.n	34187af0 <SAL_XSPI_CheckStatusRegister+0x50>
34187b20:	f89d 307c 	ldrb.w	r3, [sp, #124]	@ 0x7c
34187b24:	2bc2      	cmp	r3, #194	@ 0xc2
34187b26:	d107      	bne.n	34187b38 <SAL_XSPI_CheckStatusRegister+0x98>
34187b28:	9b15      	ldr	r3, [sp, #84]	@ 0x54
34187b2a:	f1b3 6f00 	cmp.w	r3, #134217728	@ 0x8000000
34187b2e:	bf02      	ittt	eq
34187b30:	f04f 5300 	moveq.w	r3, #536870912	@ 0x20000000
34187b34:	9415      	streq	r4, [sp, #84]	@ 0x54
34187b36:	9317      	streq	r3, [sp, #92]	@ 0x5c
34187b38:	f44f 6280 	mov.w	r2, #1024	@ 0x400
34187b3c:	f44f 5340 	mov.w	r3, #12288	@ 0x3000
34187b40:	960b      	str	r6, [sp, #44]	@ 0x2c
34187b42:	e9cd 230c 	strd	r2, r3, [sp, #48]	@ 0x30
34187b46:	e7d3      	b.n	34187af0 <SAL_XSPI_CheckStatusRegister+0x50>

34187b48 <SAL_XSPI_EnableMapMode>:
34187b48:	b5f0      	push	{r4, r5, r6, r7, lr}
34187b4a:	b099      	sub	sp, #100	@ 0x64
34187b4c:	4605      	mov	r5, r0
34187b4e:	4614      	mov	r4, r2
34187b50:	460f      	mov	r7, r1
34187b52:	224c      	movs	r2, #76	@ 0x4c
34187b54:	1d01      	adds	r1, r0, #4
34187b56:	a805      	add	r0, sp, #20
34187b58:	461e      	mov	r6, r3
34187b5a:	f001 f87f 	bl	34188c5c <memcpy>
34187b5e:	2210      	movs	r2, #16
34187b60:	2100      	movs	r1, #0
34187b62:	a801      	add	r0, sp, #4
34187b64:	f001 f84d 	bl	34188c02 <memset>
34187b68:	2301      	movs	r3, #1
34187b6a:	9909      	ldr	r1, [sp, #36]	@ 0x24
34187b6c:	463a      	mov	r2, r7
34187b6e:	f895 0050 	ldrb.w	r0, [r5, #80]	@ 0x50
34187b72:	9305      	str	r3, [sp, #20]
34187b74:	f7ff fee0 	bl	34187938 <XSPI_FormatCommand>
34187b78:	2264      	movs	r2, #100	@ 0x64
34187b7a:	9007      	str	r0, [sp, #28]
34187b7c:	a905      	add	r1, sp, #20
34187b7e:	6828      	ldr	r0, [r5, #0]
34187b80:	9416      	str	r4, [sp, #88]	@ 0x58
34187b82:	f7ff f969 	bl	34186e58 <HAL_XSPI_Command>
34187b86:	4604      	mov	r4, r0
34187b88:	b9e0      	cbnz	r0, 34187bc4 <SAL_XSPI_EnableMapMode+0x7c>
34187b8a:	2302      	movs	r3, #2
34187b8c:	9909      	ldr	r1, [sp, #36]	@ 0x24
34187b8e:	4632      	mov	r2, r6
34187b90:	f895 0050 	ldrb.w	r0, [r5, #80]	@ 0x50
34187b94:	9305      	str	r3, [sp, #20]
34187b96:	f7ff fecf 	bl	34187938 <XSPI_FormatCommand>
34187b9a:	682c      	ldr	r4, [r5, #0]
34187b9c:	f89d 3078 	ldrb.w	r3, [sp, #120]	@ 0x78
34187ba0:	9007      	str	r0, [sp, #28]
34187ba2:	2264      	movs	r2, #100	@ 0x64
34187ba4:	4620      	mov	r0, r4
34187ba6:	a905      	add	r1, sp, #20
34187ba8:	9316      	str	r3, [sp, #88]	@ 0x58
34187baa:	f7ff f955 	bl	34186e58 <HAL_XSPI_Command>
34187bae:	4604      	mov	r4, r0
34187bb0:	b940      	cbnz	r0, 34187bc4 <SAL_XSPI_EnableMapMode+0x7c>
34187bb2:	2350      	movs	r3, #80	@ 0x50
34187bb4:	9001      	str	r0, [sp, #4]
34187bb6:	a901      	add	r1, sp, #4
34187bb8:	6828      	ldr	r0, [r5, #0]
34187bba:	9302      	str	r3, [sp, #8]
34187bbc:	f7ff fa93 	bl	341870e6 <HAL_XSPI_MemoryMapped>
34187bc0:	4604      	mov	r4, r0
34187bc2:	b110      	cbz	r0, 34187bca <SAL_XSPI_EnableMapMode+0x82>
34187bc4:	6828      	ldr	r0, [r5, #0]
34187bc6:	f7ff facf 	bl	34187168 <HAL_XSPI_Abort>
34187bca:	4620      	mov	r0, r4
34187bcc:	b019      	add	sp, #100	@ 0x64
34187bce:	bdf0      	pop	{r4, r5, r6, r7, pc}

34187bd0 <XSPI_Transmit>:
34187bd0:	2264      	movs	r2, #100	@ 0x64
34187bd2:	6800      	ldr	r0, [r0, #0]
34187bd4:	f7ff b992 	b.w	34186efc <HAL_XSPI_Transmit>

34187bd8 <SAL_XSPI_Write>:
34187bd8:	b5f0      	push	{r4, r5, r6, r7, lr}
34187bda:	4605      	mov	r5, r0
34187bdc:	460f      	mov	r7, r1
34187bde:	b095      	sub	sp, #84	@ 0x54
34187be0:	4614      	mov	r4, r2
34187be2:	1d01      	adds	r1, r0, #4
34187be4:	224c      	movs	r2, #76	@ 0x4c
34187be6:	a801      	add	r0, sp, #4
34187be8:	461e      	mov	r6, r3
34187bea:	f001 f837 	bl	34188c5c <memcpy>
34187bee:	9905      	ldr	r1, [sp, #20]
34187bf0:	463a      	mov	r2, r7
34187bf2:	f895 0050 	ldrb.w	r0, [r5, #80]	@ 0x50
34187bf6:	f7ff fe9f 	bl	34187938 <XSPI_FormatCommand>
34187bfa:	9b1a      	ldr	r3, [sp, #104]	@ 0x68
34187bfc:	9003      	str	r0, [sp, #12]
34187bfe:	9310      	str	r3, [sp, #64]	@ 0x40
34187c00:	2300      	movs	r3, #0
34187c02:	2264      	movs	r2, #100	@ 0x64
34187c04:	6828      	ldr	r0, [r5, #0]
34187c06:	a901      	add	r1, sp, #4
34187c08:	9407      	str	r4, [sp, #28]
34187c0a:	e9cd 3312 	strd	r3, r3, [sp, #72]	@ 0x48
34187c0e:	f7ff f923 	bl	34186e58 <HAL_XSPI_Command>
34187c12:	4604      	mov	r4, r0
34187c14:	b928      	cbnz	r0, 34187c22 <SAL_XSPI_Write+0x4a>
34187c16:	4631      	mov	r1, r6
34187c18:	4628      	mov	r0, r5
34187c1a:	f7ff ffd9 	bl	34187bd0 <XSPI_Transmit>
34187c1e:	4604      	mov	r4, r0
34187c20:	b110      	cbz	r0, 34187c28 <SAL_XSPI_Write+0x50>
34187c22:	6828      	ldr	r0, [r5, #0]
34187c24:	f7ff faa0 	bl	34187168 <HAL_XSPI_Abort>
34187c28:	4620      	mov	r0, r4
34187c2a:	b015      	add	sp, #84	@ 0x54
34187c2c:	bdf0      	pop	{r4, r5, r6, r7, pc}

34187c2e <driver_check_FlagBUSY>:
34187c2e:	b51f      	push	{r0, r1, r2, r3, r4, lr}
34187c30:	460a      	mov	r2, r1
34187c32:	f890 106c 	ldrb.w	r1, [r0, #108]	@ 0x6c
34187c36:	b919      	cbnz	r1, 34187c40 <driver_check_FlagBUSY+0x12>
34187c38:	f06f 0004 	mvn.w	r0, #4
34187c3c:	b004      	add	sp, #16
34187c3e:	bd10      	pop	{r4, pc}
34187c40:	f890 406d 	ldrb.w	r4, [r0, #109]	@ 0x6d
34187c44:	f890 306e 	ldrb.w	r3, [r0, #110]	@ 0x6e
34187c48:	9202      	str	r2, [sp, #8]
34187c4a:	f890 205d 	ldrb.w	r2, [r0, #93]	@ 0x5d
34187c4e:	40a3      	lsls	r3, r4
34187c50:	9201      	str	r2, [sp, #4]
34187c52:	2201      	movs	r2, #1
34187c54:	40a2      	lsls	r2, r4
34187c56:	b2d2      	uxtb	r2, r2
34187c58:	9200      	str	r2, [sp, #0]
34187c5a:	f890 206f 	ldrb.w	r2, [r0, #111]	@ 0x6f
34187c5e:	b2db      	uxtb	r3, r3
34187c60:	3008      	adds	r0, #8
34187c62:	f7ff ff1d 	bl	34187aa0 <SAL_XSPI_CheckStatusRegister>
34187c66:	2800      	cmp	r0, #0
34187c68:	d0e8      	beq.n	34187c3c <driver_check_FlagBUSY+0xe>
34187c6a:	e7e5      	b.n	34187c38 <driver_check_FlagBUSY+0xa>

34187c6c <sfdp_getfrequencevalue>:
34187c6c:	4602      	mov	r2, r0
34187c6e:	b570      	push	{r4, r5, r6, lr}
34187c70:	4b0e      	ldr	r3, [pc, #56]	@ (34187cac <sfdp_getfrequencevalue+0x40>)
34187c72:	b088      	sub	sp, #32
34187c74:	ac01      	add	r4, sp, #4
34187c76:	f103 0618 	add.w	r6, r3, #24
34187c7a:	4625      	mov	r5, r4
34187c7c:	6818      	ldr	r0, [r3, #0]
34187c7e:	6859      	ldr	r1, [r3, #4]
34187c80:	3308      	adds	r3, #8
34187c82:	c503      	stmia	r5!, {r0, r1}
34187c84:	42b3      	cmp	r3, r6
34187c86:	462c      	mov	r4, r5
34187c88:	d1f7      	bne.n	34187c7a <sfdp_getfrequencevalue+0xe>
34187c8a:	2a09      	cmp	r2, #9
34187c8c:	bf88      	it	hi
34187c8e:	2000      	movhi	r0, #0
34187c90:	881b      	ldrh	r3, [r3, #0]
34187c92:	802b      	strh	r3, [r5, #0]
34187c94:	bf9f      	itttt	ls
34187c96:	ab08      	addls	r3, sp, #32
34187c98:	eb03 0242 	addls.w	r2, r3, r2, lsl #1
34187c9c:	f832 0c1c 	ldrhls.w	r0, [r2, #-28]
34187ca0:	4b03      	ldrls	r3, [pc, #12]	@ (34187cb0 <sfdp_getfrequencevalue+0x44>)
34187ca2:	bf98      	it	ls
34187ca4:	4358      	mulls	r0, r3
34187ca6:	b008      	add	sp, #32
34187ca8:	bd70      	pop	{r4, r5, r6, pc}
34187caa:	bf00      	nop
34187cac:	34188c90 	.word	0x34188c90
34187cb0:	000f4240 	.word	0x000f4240

34187cb4 <sfdp_get_paraminfo>:
34187cb4:	2300      	movs	r3, #0
34187cb6:	b537      	push	{r0, r1, r2, r4, r5, lr}
34187cb8:	e9cd 3300 	strd	r3, r3, [sp]
34187cbc:	2308      	movs	r3, #8
34187cbe:	4614      	mov	r4, r2
34187cc0:	4418      	add	r0, r3
34187cc2:	466a      	mov	r2, sp
34187cc4:	f7ff fd7b 	bl	341877be <SAL_XSPI_GetSFDP>
34187cc8:	b110      	cbz	r0, 34187cd0 <sfdp_get_paraminfo+0x1c>
34187cca:	2003      	movs	r0, #3
34187ccc:	b003      	add	sp, #12
34187cce:	bd30      	pop	{r4, r5, pc}
34187cd0:	f89d 3005 	ldrb.w	r3, [sp, #5]
34187cd4:	f89d 2006 	ldrb.w	r2, [sp, #6]
34187cd8:	021b      	lsls	r3, r3, #8
34187cda:	ea43 4302 	orr.w	r3, r3, r2, lsl #16
34187cde:	f89d 2004 	ldrb.w	r2, [sp, #4]
34187ce2:	f89d 1003 	ldrb.w	r1, [sp, #3]
34187ce6:	4313      	orrs	r3, r2
34187ce8:	6063      	str	r3, [r4, #4]
34187cea:	f99d 3007 	ldrsb.w	r3, [sp, #7]
34187cee:	f89d 5007 	ldrb.w	r5, [sp, #7]
34187cf2:	2b00      	cmp	r3, #0
34187cf4:	6020      	str	r0, [r4, #0]
34187cf6:	7221      	strb	r1, [r4, #8]
34187cf8:	dd07      	ble.n	34187d0a <sfdp_get_paraminfo+0x56>
34187cfa:	f89d 3000 	ldrb.w	r3, [sp]
34187cfe:	07db      	lsls	r3, r3, #31
34187d00:	bf4c      	ite	mi
34187d02:	2301      	movmi	r3, #1
34187d04:	2302      	movpl	r3, #2
34187d06:	6023      	str	r3, [r4, #0]
34187d08:	e7e0      	b.n	34187ccc <sfdp_get_paraminfo+0x18>
34187d0a:	d0de      	beq.n	34187cca <sfdp_get_paraminfo+0x16>
34187d0c:	f89d 3000 	ldrb.w	r3, [sp]
34187d10:	2dff      	cmp	r5, #255	@ 0xff
34187d12:	ea6f 0203 	mvn.w	r2, r3
34187d16:	f002 0201 	and.w	r2, r2, #1
34187d1a:	ea4f 0282 	mov.w	r2, r2, lsl #2
34187d1e:	6022      	str	r2, [r4, #0]
34187d20:	d1d4      	bne.n	34187ccc <sfdp_get_paraminfo+0x18>
34187d22:	2b0f      	cmp	r3, #15
34187d24:	d926      	bls.n	34187d74 <sfdp_get_paraminfo+0xc0>
34187d26:	f103 027f 	add.w	r2, r3, #127	@ 0x7f
34187d2a:	b2d2      	uxtb	r2, r2
34187d2c:	2a0d      	cmp	r2, #13
34187d2e:	d8cd      	bhi.n	34187ccc <sfdp_get_paraminfo+0x18>
34187d30:	3b81      	subs	r3, #129	@ 0x81
34187d32:	2b0d      	cmp	r3, #13
34187d34:	d8ca      	bhi.n	34187ccc <sfdp_get_paraminfo+0x18>
34187d36:	a201      	add	r2, pc, #4	@ (adr r2, 34187d3c <sfdp_get_paraminfo+0x88>)
34187d38:	f852 f023 	ldr.w	pc, [r2, r3, lsl #2]
34187d3c:	34187dd1 	.word	0x34187dd1
34187d40:	34187ccd 	.word	0x34187ccd
34187d44:	34187ccd 	.word	0x34187ccd
34187d48:	34187dd9 	.word	0x34187dd9
34187d4c:	34187ccd 	.word	0x34187ccd
34187d50:	34187ccd 	.word	0x34187ccd
34187d54:	34187de7 	.word	0x34187de7
34187d58:	34187ded 	.word	0x34187ded
34187d5c:	34187ccd 	.word	0x34187ccd
34187d60:	34187ccd 	.word	0x34187ccd
34187d64:	34187dff 	.word	0x34187dff
34187d68:	34187ccd 	.word	0x34187ccd
34187d6c:	34187e0b 	.word	0x34187e0b
34187d70:	34187e11 	.word	0x34187e11
34187d74:	2b0f      	cmp	r3, #15
34187d76:	d8a9      	bhi.n	34187ccc <sfdp_get_paraminfo+0x18>
34187d78:	a201      	add	r2, pc, #4	@ (adr r2, 34187d80 <sfdp_get_paraminfo+0xcc>)
34187d7a:	f852 f023 	ldr.w	pc, [r2, r3, lsl #2]
34187d7e:	bf00      	nop
34187d80:	34187dc1 	.word	0x34187dc1
34187d84:	34187ccd 	.word	0x34187ccd
34187d88:	34187ccd 	.word	0x34187ccd
34187d8c:	34187dd5 	.word	0x34187dd5
34187d90:	34187ccd 	.word	0x34187ccd
34187d94:	34187ddd 	.word	0x34187ddd
34187d98:	34187de1 	.word	0x34187de1
34187d9c:	34187ccd 	.word	0x34187ccd
34187da0:	34187ccd 	.word	0x34187ccd
34187da4:	34187df3 	.word	0x34187df3
34187da8:	34187df9 	.word	0x34187df9
34187dac:	34187ccd 	.word	0x34187ccd
34187db0:	34187e05 	.word	0x34187e05
34187db4:	34187ccd 	.word	0x34187ccd
34187db8:	34187ccd 	.word	0x34187ccd
34187dbc:	34187e17 	.word	0x34187e17
34187dc0:	2917      	cmp	r1, #23
34187dc2:	f04f 0308 	mov.w	r3, #8
34187dc6:	bf28      	it	cs
34187dc8:	2117      	movcs	r1, #23
34187dca:	6023      	str	r3, [r4, #0]
34187dcc:	7221      	strb	r1, [r4, #8]
34187dce:	e77d      	b.n	34187ccc <sfdp_get_paraminfo+0x18>
34187dd0:	2310      	movs	r3, #16
34187dd2:	e798      	b.n	34187d06 <sfdp_get_paraminfo+0x52>
34187dd4:	2320      	movs	r3, #32
34187dd6:	e796      	b.n	34187d06 <sfdp_get_paraminfo+0x52>
34187dd8:	2340      	movs	r3, #64	@ 0x40
34187dda:	e794      	b.n	34187d06 <sfdp_get_paraminfo+0x52>
34187ddc:	2380      	movs	r3, #128	@ 0x80
34187dde:	e792      	b.n	34187d06 <sfdp_get_paraminfo+0x52>
34187de0:	f44f 7380 	mov.w	r3, #256	@ 0x100
34187de4:	e78f      	b.n	34187d06 <sfdp_get_paraminfo+0x52>
34187de6:	f44f 7300 	mov.w	r3, #512	@ 0x200
34187dea:	e78c      	b.n	34187d06 <sfdp_get_paraminfo+0x52>
34187dec:	f44f 6380 	mov.w	r3, #1024	@ 0x400
34187df0:	e789      	b.n	34187d06 <sfdp_get_paraminfo+0x52>
34187df2:	f44f 6300 	mov.w	r3, #2048	@ 0x800
34187df6:	e786      	b.n	34187d06 <sfdp_get_paraminfo+0x52>
34187df8:	f44f 5380 	mov.w	r3, #4096	@ 0x1000
34187dfc:	e783      	b.n	34187d06 <sfdp_get_paraminfo+0x52>
34187dfe:	f44f 5300 	mov.w	r3, #8192	@ 0x2000
34187e02:	e780      	b.n	34187d06 <sfdp_get_paraminfo+0x52>
34187e04:	f44f 4380 	mov.w	r3, #16384	@ 0x4000
34187e08:	e77d      	b.n	34187d06 <sfdp_get_paraminfo+0x52>
34187e0a:	f44f 4300 	mov.w	r3, #32768	@ 0x8000
34187e0e:	e77a      	b.n	34187d06 <sfdp_get_paraminfo+0x52>
34187e10:	f44f 3380 	mov.w	r3, #65536	@ 0x10000
34187e14:	e777      	b.n	34187d06 <sfdp_get_paraminfo+0x52>
34187e16:	f44f 3300 	mov.w	r3, #131072	@ 0x20000
34187e1a:	e774      	b.n	34187d06 <sfdp_get_paraminfo+0x52>

34187e1c <SFDP_CollectData>:
34187e1c:	e92d 4ff8 	stmdb	sp!, {r3, r4, r5, r6, r7, r8, r9, sl, fp, lr}
34187e20:	2500      	movs	r5, #0
34187e22:	260c      	movs	r6, #12
34187e24:	f8c0 5094 	str.w	r5, [r0, #148]	@ 0x94
34187e28:	4629      	mov	r1, r5
34187e2a:	4604      	mov	r4, r0
34187e2c:	2278      	movs	r2, #120	@ 0x78
34187e2e:	4833      	ldr	r0, [pc, #204]	@ (34187efc <SFDP_CollectData+0xe0>)
34187e30:	f000 fee7 	bl	34188c02 <memset>
34187e34:	462b      	mov	r3, r5
34187e36:	4d31      	ldr	r5, [pc, #196]	@ (34187efc <SFDP_CollectData+0xe0>)
34187e38:	f894 209c 	ldrb.w	r2, [r4, #156]	@ 0x9c
34187e3c:	1c5f      	adds	r7, r3, #1
34187e3e:	3201      	adds	r2, #1
34187e40:	b2db      	uxtb	r3, r3
34187e42:	429a      	cmp	r2, r3
34187e44:	ea4f 01c7 	mov.w	r1, r7, lsl #3
34187e48:	d80f      	bhi.n	34187e6a <SFDP_CollectData+0x4e>
34187e4a:	f04f 0800 	mov.w	r8, #0
34187e4e:	f8df 90c0 	ldr.w	r9, [pc, #192]	@ 34187f10 <SFDP_CollectData+0xf4>
34187e52:	4e2b      	ldr	r6, [pc, #172]	@ (34187f00 <SFDP_CollectData+0xe4>)
34187e54:	f109 0a04 	add.w	sl, r9, #4
34187e58:	230c      	movs	r3, #12
34187e5a:	fa5f f788 	uxtb.w	r7, r8
34187e5e:	437b      	muls	r3, r7
34187e60:	58e8      	ldr	r0, [r5, r3]
34187e62:	18ea      	adds	r2, r5, r3
34187e64:	b998      	cbnz	r0, 34187e8e <SFDP_CollectData+0x72>
34187e66:	e8bd 8ff8 	ldmia.w	sp!, {r3, r4, r5, r6, r7, r8, r9, sl, fp, pc}
34187e6a:	fb06 f803 	mul.w	r8, r6, r3
34187e6e:	4620      	mov	r0, r4
34187e70:	eb05 0208 	add.w	r2, r5, r8
34187e74:	f7ff ff1e 	bl	34187cb4 <sfdp_get_paraminfo>
34187e78:	463b      	mov	r3, r7
34187e7a:	2800      	cmp	r0, #0
34187e7c:	d13c      	bne.n	34187ef8 <SFDP_CollectData+0xdc>
34187e7e:	f8d4 2094 	ldr.w	r2, [r4, #148]	@ 0x94
34187e82:	f855 1008 	ldr.w	r1, [r5, r8]
34187e86:	430a      	orrs	r2, r1
34187e88:	f8c4 2094 	str.w	r2, [r4, #148]	@ 0x94
34187e8c:	e7d4      	b.n	34187e38 <SFDP_CollectData+0x1c>
34187e8e:	2880      	cmp	r0, #128	@ 0x80
34187e90:	7a13      	ldrb	r3, [r2, #8]
34187e92:	d02b      	beq.n	34187eec <SFDP_CollectData+0xd0>
34187e94:	d811      	bhi.n	34187eba <SFDP_CollectData+0x9e>
34187e96:	2808      	cmp	r0, #8
34187e98:	d017      	beq.n	34187eca <SFDP_CollectData+0xae>
34187e9a:	2840      	cmp	r0, #64	@ 0x40
34187e9c:	d028      	beq.n	34187ef0 <SFDP_CollectData+0xd4>
34187e9e:	230c      	movs	r3, #12
34187ea0:	437b      	muls	r3, r7
34187ea2:	58eb      	ldr	r3, [r5, r3]
34187ea4:	f108 0801 	add.w	r8, r8, #1
34187ea8:	2b08      	cmp	r3, #8
34187eaa:	bf02      	ittt	eq
34187eac:	f899 3041 	ldrbeq.w	r3, [r9, #65]	@ 0x41
34187eb0:	f003 033f 	andeq.w	r3, r3, #63	@ 0x3f
34187eb4:	f8c4 3098 	streq.w	r3, [r4, #152]	@ 0x98
34187eb8:	e7ce      	b.n	34187e58 <SFDP_CollectData+0x3c>
34187eba:	f5b0 7f00 	cmp.w	r0, #512	@ 0x200
34187ebe:	d019      	beq.n	34187ef4 <SFDP_CollectData+0xd8>
34187ec0:	f5b0 5f80 	cmp.w	r0, #4096	@ 0x1000
34187ec4:	d1eb      	bne.n	34187e9e <SFDP_CollectData+0x82>
34187ec6:	4a0f      	ldr	r2, [pc, #60]	@ (34187f04 <SFDP_CollectData+0xe8>)
34187ec8:	e002      	b.n	34187ed0 <SFDP_CollectData+0xb4>
34187eca:	4652      	mov	r2, sl
34187ecc:	f8c9 3000 	str.w	r3, [r9]
34187ed0:	f04f 0b0c 	mov.w	fp, #12
34187ed4:	fb0b 5107 	mla	r1, fp, r7, r5
34187ed8:	009b      	lsls	r3, r3, #2
34187eda:	6849      	ldr	r1, [r1, #4]
34187edc:	f104 0008 	add.w	r0, r4, #8
34187ee0:	f7ff fc6d 	bl	341877be <SAL_XSPI_GetSFDP>
34187ee4:	2800      	cmp	r0, #0
34187ee6:	d0da      	beq.n	34187e9e <SFDP_CollectData+0x82>
34187ee8:	4658      	mov	r0, fp
34187eea:	e7bc      	b.n	34187e66 <SFDP_CollectData+0x4a>
34187eec:	4632      	mov	r2, r6
34187eee:	e7ef      	b.n	34187ed0 <SFDP_CollectData+0xb4>
34187ef0:	4a05      	ldr	r2, [pc, #20]	@ (34187f08 <SFDP_CollectData+0xec>)
34187ef2:	e7ed      	b.n	34187ed0 <SFDP_CollectData+0xb4>
34187ef4:	4a05      	ldr	r2, [pc, #20]	@ (34187f0c <SFDP_CollectData+0xf0>)
34187ef6:	e7eb      	b.n	34187ed0 <SFDP_CollectData+0xb4>
34187ef8:	2003      	movs	r0, #3
34187efa:	e7b4      	b.n	34187e66 <SFDP_CollectData+0x4a>
34187efc:	341c038c 	.word	0x341c038c
34187f00:	341c030c 	.word	0x341c030c
34187f04:	341c027c 	.word	0x341c027c
34187f08:	341c0324 	.word	0x341c0324
34187f0c:	341c029c 	.word	0x341c029c
34187f10:	341c032c 	.word	0x341c032c

34187f14 <SFDP_MemoryReset>:
34187f14:	b570      	push	{r4, r5, r6, lr}
34187f16:	2300      	movs	r3, #0
34187f18:	4605      	mov	r5, r0
34187f1a:	4c1f      	ldr	r4, [pc, #124]	@ (34187f98 <SFDP_MemoryReset+0x84>)
34187f1c:	f895 209c 	ldrb.w	r2, [r5, #156]	@ 0x9c
34187f20:	1c5e      	adds	r6, r3, #1
34187f22:	3201      	adds	r2, #1
34187f24:	b2db      	uxtb	r3, r3
34187f26:	429a      	cmp	r2, r3
34187f28:	ea4f 01c6 	mov.w	r1, r6, lsl #3
34187f2c:	d801      	bhi.n	34187f32 <SFDP_MemoryReset+0x1e>
34187f2e:	240c      	movs	r4, #12
34187f30:	e019      	b.n	34187f66 <SFDP_MemoryReset+0x52>
34187f32:	4628      	mov	r0, r5
34187f34:	4a18      	ldr	r2, [pc, #96]	@ (34187f98 <SFDP_MemoryReset+0x84>)
34187f36:	f7ff febd 	bl	34187cb4 <sfdp_get_paraminfo>
34187f3a:	2800      	cmp	r0, #0
34187f3c:	d1f7      	bne.n	34187f2e <SFDP_MemoryReset+0x1a>
34187f3e:	6822      	ldr	r2, [r4, #0]
34187f40:	4633      	mov	r3, r6
34187f42:	2a08      	cmp	r2, #8
34187f44:	d1ea      	bne.n	34187f1c <SFDP_MemoryReset+0x8>
34187f46:	7a23      	ldrb	r3, [r4, #8]
34187f48:	3508      	adds	r5, #8
34187f4a:	6861      	ldr	r1, [r4, #4]
34187f4c:	4628      	mov	r0, r5
34187f4e:	4a13      	ldr	r2, [pc, #76]	@ (34187f9c <SFDP_MemoryReset+0x88>)
34187f50:	009b      	lsls	r3, r3, #2
34187f52:	f7ff fc34 	bl	341877be <SAL_XSPI_GetSFDP>
34187f56:	4604      	mov	r4, r0
34187f58:	2800      	cmp	r0, #0
34187f5a:	d1e8      	bne.n	34187f2e <SFDP_MemoryReset+0x1a>
34187f5c:	4b10      	ldr	r3, [pc, #64]	@ (34187fa0 <SFDP_MemoryReset+0x8c>)
34187f5e:	f893 3041 	ldrb.w	r3, [r3, #65]	@ 0x41
34187f62:	0698      	lsls	r0, r3, #26
34187f64:	d101      	bne.n	34187f6a <SFDP_MemoryReset+0x56>
34187f66:	4620      	mov	r0, r4
34187f68:	bd70      	pop	{r4, r5, r6, pc}
34187f6a:	0719      	lsls	r1, r3, #28
34187f6c:	f003 023f 	and.w	r2, r3, #63	@ 0x3f
34187f70:	d103      	bne.n	34187f7a <SFDP_MemoryReset+0x66>
34187f72:	06d3      	lsls	r3, r2, #27
34187f74:	d403      	bmi.n	34187f7e <SFDP_MemoryReset+0x6a>
34187f76:	2a20      	cmp	r2, #32
34187f78:	d1d9      	bne.n	34187f2e <SFDP_MemoryReset+0x1a>
34187f7a:	240f      	movs	r4, #15
34187f7c:	e7f3      	b.n	34187f66 <SFDP_MemoryReset+0x52>
34187f7e:	4623      	mov	r3, r4
34187f80:	4622      	mov	r2, r4
34187f82:	2166      	movs	r1, #102	@ 0x66
34187f84:	4628      	mov	r0, r5
34187f86:	f7ff fce4 	bl	34187952 <SAL_XSPI_CommandSendData>
34187f8a:	4623      	mov	r3, r4
34187f8c:	4622      	mov	r2, r4
34187f8e:	2199      	movs	r1, #153	@ 0x99
34187f90:	4628      	mov	r0, r5
34187f92:	f7ff fcde 	bl	34187952 <SAL_XSPI_CommandSendData>
34187f96:	e7e6      	b.n	34187f66 <SFDP_MemoryReset+0x52>
34187f98:	341c038c 	.word	0x341c038c
34187f9c:	341c0330 	.word	0x341c0330
34187fa0:	341c032c 	.word	0x341c032c

34187fa4 <sfdp_enter_octal_mode>:
34187fa4:	b537      	push	{r0, r1, r2, r4, r5, lr}
34187fa6:	4c53      	ldr	r4, [pc, #332]	@ (341880f4 <sfdp_enter_octal_mode+0x150>)
34187fa8:	4605      	mov	r5, r0
34187faa:	78e3      	ldrb	r3, [r4, #3]
34187fac:	b94b      	cbnz	r3, 34187fc2 <sfdp_enter_octal_mode+0x1e>
34187fae:	7ae3      	ldrb	r3, [r4, #11]
34187fb0:	2b00      	cmp	r3, #0
34187fb2:	d047      	beq.n	34188044 <sfdp_enter_octal_mode+0xa0>
34187fb4:	2164      	movs	r1, #100	@ 0x64
34187fb6:	4628      	mov	r0, r5
34187fb8:	f7ff fe39 	bl	34187c2e <driver_check_FlagBUSY>
34187fbc:	b310      	cbz	r0, 34188004 <sfdp_enter_octal_mode+0x60>
34187fbe:	200c      	movs	r0, #12
34187fc0:	e01e      	b.n	34188000 <sfdp_enter_octal_mode+0x5c>
34187fc2:	7862      	ldrb	r2, [r4, #1]
34187fc4:	78a1      	ldrb	r1, [r4, #2]
34187fc6:	f88d 2001 	strb.w	r2, [sp, #1]
34187fca:	7822      	ldrb	r2, [r4, #0]
34187fcc:	3b01      	subs	r3, #1
34187fce:	f88d 2002 	strb.w	r2, [sp, #2]
34187fd2:	79e2      	ldrb	r2, [r4, #7]
34187fd4:	b29b      	uxth	r3, r3
34187fd6:	f88d 2003 	strb.w	r2, [sp, #3]
34187fda:	79a2      	ldrb	r2, [r4, #6]
34187fdc:	3008      	adds	r0, #8
34187fde:	f88d 2004 	strb.w	r2, [sp, #4]
34187fe2:	7962      	ldrb	r2, [r4, #5]
34187fe4:	f88d 1000 	strb.w	r1, [sp]
34187fe8:	f88d 2005 	strb.w	r2, [sp, #5]
34187fec:	7922      	ldrb	r2, [r4, #4]
34187fee:	f88d 2006 	strb.w	r2, [sp, #6]
34187ff2:	f10d 0201 	add.w	r2, sp, #1
34187ff6:	f7ff fcac 	bl	34187952 <SAL_XSPI_CommandSendData>
34187ffa:	2800      	cmp	r0, #0
34187ffc:	d0d7      	beq.n	34187fae <sfdp_enter_octal_mode+0xa>
34187ffe:	200b      	movs	r0, #11
34188000:	b003      	add	sp, #12
34188002:	bd30      	pop	{r4, r5, pc}
34188004:	7a63      	ldrb	r3, [r4, #9]
34188006:	7aa1      	ldrb	r1, [r4, #10]
34188008:	f88d 3001 	strb.w	r3, [sp, #1]
3418800c:	7a23      	ldrb	r3, [r4, #8]
3418800e:	f10d 0201 	add.w	r2, sp, #1
34188012:	f88d 3002 	strb.w	r3, [sp, #2]
34188016:	7be3      	ldrb	r3, [r4, #15]
34188018:	f105 0008 	add.w	r0, r5, #8
3418801c:	f88d 3003 	strb.w	r3, [sp, #3]
34188020:	7ba3      	ldrb	r3, [r4, #14]
34188022:	f88d 1000 	strb.w	r1, [sp]
34188026:	f88d 3004 	strb.w	r3, [sp, #4]
3418802a:	7b63      	ldrb	r3, [r4, #13]
3418802c:	f88d 3005 	strb.w	r3, [sp, #5]
34188030:	7b23      	ldrb	r3, [r4, #12]
34188032:	f88d 3006 	strb.w	r3, [sp, #6]
34188036:	7ae3      	ldrb	r3, [r4, #11]
34188038:	3b01      	subs	r3, #1
3418803a:	b29b      	uxth	r3, r3
3418803c:	f7ff fc89 	bl	34187952 <SAL_XSPI_CommandSendData>
34188040:	2800      	cmp	r0, #0
34188042:	d1dc      	bne.n	34187ffe <sfdp_enter_octal_mode+0x5a>
34188044:	7ce3      	ldrb	r3, [r4, #19]
34188046:	b32b      	cbz	r3, 34188094 <sfdp_enter_octal_mode+0xf0>
34188048:	2164      	movs	r1, #100	@ 0x64
3418804a:	4628      	mov	r0, r5
3418804c:	f7ff fdef 	bl	34187c2e <driver_check_FlagBUSY>
34188050:	2800      	cmp	r0, #0
34188052:	d1b4      	bne.n	34187fbe <sfdp_enter_octal_mode+0x1a>
34188054:	7c63      	ldrb	r3, [r4, #17]
34188056:	7ca1      	ldrb	r1, [r4, #18]
34188058:	f88d 3001 	strb.w	r3, [sp, #1]
3418805c:	7c23      	ldrb	r3, [r4, #16]
3418805e:	f10d 0201 	add.w	r2, sp, #1
34188062:	f88d 3002 	strb.w	r3, [sp, #2]
34188066:	7de3      	ldrb	r3, [r4, #23]
34188068:	f105 0008 	add.w	r0, r5, #8
3418806c:	f88d 3003 	strb.w	r3, [sp, #3]
34188070:	7da3      	ldrb	r3, [r4, #22]
34188072:	f88d 1000 	strb.w	r1, [sp]
34188076:	f88d 3004 	strb.w	r3, [sp, #4]
3418807a:	7d63      	ldrb	r3, [r4, #21]
3418807c:	f88d 3005 	strb.w	r3, [sp, #5]
34188080:	7d23      	ldrb	r3, [r4, #20]
34188082:	f88d 3006 	strb.w	r3, [sp, #6]
34188086:	7ce3      	ldrb	r3, [r4, #19]
34188088:	3b01      	subs	r3, #1
3418808a:	b29b      	uxth	r3, r3
3418808c:	f7ff fc61 	bl	34187952 <SAL_XSPI_CommandSendData>
34188090:	2800      	cmp	r0, #0
34188092:	d1b4      	bne.n	34187ffe <sfdp_enter_octal_mode+0x5a>
34188094:	7ee3      	ldrb	r3, [r4, #27]
34188096:	b92b      	cbnz	r3, 341880a4 <sfdp_enter_octal_mode+0x100>
34188098:	f105 0008 	add.w	r0, r5, #8
3418809c:	f7ff fc49 	bl	34187932 <SAL_XSPI_Abort>
341880a0:	2000      	movs	r0, #0
341880a2:	e7ad      	b.n	34188000 <sfdp_enter_octal_mode+0x5c>
341880a4:	2164      	movs	r1, #100	@ 0x64
341880a6:	4628      	mov	r0, r5
341880a8:	f7ff fdc1 	bl	34187c2e <driver_check_FlagBUSY>
341880ac:	2800      	cmp	r0, #0
341880ae:	d186      	bne.n	34187fbe <sfdp_enter_octal_mode+0x1a>
341880b0:	7e63      	ldrb	r3, [r4, #25]
341880b2:	7ea1      	ldrb	r1, [r4, #26]
341880b4:	f88d 3001 	strb.w	r3, [sp, #1]
341880b8:	7e23      	ldrb	r3, [r4, #24]
341880ba:	f10d 0201 	add.w	r2, sp, #1
341880be:	f88d 3002 	strb.w	r3, [sp, #2]
341880c2:	7fe3      	ldrb	r3, [r4, #31]
341880c4:	f105 0008 	add.w	r0, r5, #8
341880c8:	f88d 3003 	strb.w	r3, [sp, #3]
341880cc:	7fa3      	ldrb	r3, [r4, #30]
341880ce:	f88d 1000 	strb.w	r1, [sp]
341880d2:	f88d 3004 	strb.w	r3, [sp, #4]
341880d6:	7f63      	ldrb	r3, [r4, #29]
341880d8:	f88d 3005 	strb.w	r3, [sp, #5]
341880dc:	7f23      	ldrb	r3, [r4, #28]
341880de:	f88d 3006 	strb.w	r3, [sp, #6]
341880e2:	7ee3      	ldrb	r3, [r4, #27]
341880e4:	3b01      	subs	r3, #1
341880e6:	b29b      	uxth	r3, r3
341880e8:	f7ff fc33 	bl	34187952 <SAL_XSPI_CommandSendData>
341880ec:	2800      	cmp	r0, #0
341880ee:	d0d3      	beq.n	34188098 <sfdp_enter_octal_mode+0xf4>
341880f0:	e785      	b.n	34187ffe <sfdp_enter_octal_mode+0x5a>
341880f2:	bf00      	nop
341880f4:	341c027c 	.word	0x341c027c

341880f8 <sfdp_set_dummycycle>:
341880f8:	e92d 43f0 	stmdb	sp!, {r4, r5, r6, r7, r8, r9, lr}
341880fc:	4b40      	ldr	r3, [pc, #256]	@ (34188200 <sfdp_set_dummycycle+0x108>)
341880fe:	b087      	sub	sp, #28
34188100:	9305      	str	r3, [sp, #20]
34188102:	2300      	movs	r3, #0
34188104:	4d3f      	ldr	r5, [pc, #252]	@ (34188204 <sfdp_set_dummycycle+0x10c>)
34188106:	f8ad 3010 	strh.w	r3, [sp, #16]
3418810a:	f895 2023 	ldrb.w	r2, [r5, #35]	@ 0x23
3418810e:	4604      	mov	r4, r0
34188110:	f002 0390 	and.w	r3, r2, #144	@ 0x90
34188114:	2b80      	cmp	r3, #128	@ 0x80
34188116:	4689      	mov	r9, r1
34188118:	d104      	bne.n	34188124 <sfdp_set_dummycycle+0x2c>
3418811a:	250c      	movs	r5, #12
3418811c:	4628      	mov	r0, r5
3418811e:	b007      	add	sp, #28
34188120:	e8bd 83f0 	ldmia.w	sp!, {r4, r5, r6, r7, r8, r9, pc}
34188124:	0712      	lsls	r2, r2, #28
34188126:	f890 305d 	ldrb.w	r3, [r0, #93]	@ 0x5d
3418812a:	d562      	bpl.n	341881f2 <sfdp_set_dummycycle+0xfa>
3418812c:	f895 6022 	ldrb.w	r6, [r5, #34]	@ 0x22
34188130:	0236      	lsls	r6, r6, #8
34188132:	f04f 0802 	mov.w	r8, #2
34188136:	9301      	str	r3, [sp, #4]
34188138:	f8cd 8000 	str.w	r8, [sp]
3418813c:	f104 0708 	add.w	r7, r4, #8
34188140:	ab04      	add	r3, sp, #16
34188142:	4632      	mov	r2, r6
34188144:	4638      	mov	r0, r7
34188146:	f895 1021 	ldrb.w	r1, [r5, #33]	@ 0x21
3418814a:	f7ff fc64 	bl	34187a16 <SAL_XSPI_CommandSendReadAddress>
3418814e:	4603      	mov	r3, r0
34188150:	2800      	cmp	r0, #0
34188152:	d1e2      	bne.n	3418811a <sfdp_set_dummycycle+0x22>
34188154:	4602      	mov	r2, r0
34188156:	f894 1070 	ldrb.w	r1, [r4, #112]	@ 0x70
3418815a:	4638      	mov	r0, r7
3418815c:	f7ff fbf9 	bl	34187952 <SAL_XSPI_CommandSendData>
34188160:	2800      	cmp	r0, #0
34188162:	d1da      	bne.n	3418811a <sfdp_set_dummycycle+0x22>
34188164:	f44f 727a 	mov.w	r2, #1000	@ 0x3e8
34188168:	f894 1072 	ldrb.w	r1, [r4, #114]	@ 0x72
3418816c:	f894 3073 	ldrb.w	r3, [r4, #115]	@ 0x73
34188170:	9202      	str	r2, [sp, #8]
34188172:	f894 205d 	ldrb.w	r2, [r4, #93]	@ 0x5d
34188176:	fab3 f383 	clz	r3, r3
3418817a:	9201      	str	r2, [sp, #4]
3418817c:	2201      	movs	r2, #1
3418817e:	408a      	lsls	r2, r1
34188180:	b2d2      	uxtb	r2, r2
34188182:	095b      	lsrs	r3, r3, #5
34188184:	408b      	lsls	r3, r1
34188186:	9200      	str	r2, [sp, #0]
34188188:	4638      	mov	r0, r7
3418818a:	f894 2074 	ldrb.w	r2, [r4, #116]	@ 0x74
3418818e:	f894 1071 	ldrb.w	r1, [r4, #113]	@ 0x71
34188192:	b2db      	uxtb	r3, r3
34188194:	f7ff fc84 	bl	34187aa0 <SAL_XSPI_CheckStatusRegister>
34188198:	2800      	cmp	r0, #0
3418819a:	d1be      	bne.n	3418811a <sfdp_set_dummycycle+0x22>
3418819c:	f895 3023 	ldrb.w	r3, [r5, #35]	@ 0x23
341881a0:	f89d 1010 	ldrb.w	r1, [sp, #16]
341881a4:	f003 0207 	and.w	r2, r3, #7
341881a8:	f3c3 1341 	ubfx	r3, r3, #5, #2
341881ac:	3318      	adds	r3, #24
341881ae:	446b      	add	r3, sp
341881b0:	f813 3c04 	ldrb.w	r3, [r3, #-4]
341881b4:	fa09 f902 	lsl.w	r9, r9, r2
341881b8:	4093      	lsls	r3, r2
341881ba:	ea21 0103 	bic.w	r1, r1, r3
341881be:	ea41 0109 	orr.w	r1, r1, r9
341881c2:	b2c9      	uxtb	r1, r1
341881c4:	f8cd 8000 	str.w	r8, [sp]
341881c8:	f88d 1010 	strb.w	r1, [sp, #16]
341881cc:	f88d 1011 	strb.w	r1, [sp, #17]
341881d0:	4632      	mov	r2, r6
341881d2:	f895 1020 	ldrb.w	r1, [r5, #32]
341881d6:	4638      	mov	r0, r7
341881d8:	ab04      	add	r3, sp, #16
341881da:	f7ff fcfd 	bl	34187bd8 <SAL_XSPI_Write>
341881de:	4605      	mov	r5, r0
341881e0:	2800      	cmp	r0, #0
341881e2:	d19a      	bne.n	3418811a <sfdp_set_dummycycle+0x22>
341881e4:	2164      	movs	r1, #100	@ 0x64
341881e6:	4620      	mov	r0, r4
341881e8:	f7ff fd21 	bl	34187c2e <driver_check_FlagBUSY>
341881ec:	2800      	cmp	r0, #0
341881ee:	d095      	beq.n	3418811c <sfdp_set_dummycycle+0x24>
341881f0:	e793      	b.n	3418811a <sfdp_set_dummycycle+0x22>
341881f2:	2bc8      	cmp	r3, #200	@ 0xc8
341881f4:	bf0c      	ite	eq
341881f6:	2601      	moveq	r6, #1
341881f8:	f895 6022 	ldrbne.w	r6, [r5, #34]	@ 0x22
341881fc:	e799      	b.n	34188132 <sfdp_set_dummycycle+0x3a>
341881fe:	bf00      	nop
34188200:	1f0f0703 	.word	0x1f0f0703
34188204:	341c029c 	.word	0x341c029c

34188208 <JEDEC_Basic_ManageQuadEnableRequirement>:
34188208:	4b34      	ldr	r3, [pc, #208]	@ (341882dc <JEDEC_Basic_ManageQuadEnableRequirement+0xd4>)
3418820a:	b537      	push	{r0, r1, r2, r4, r5, lr}
3418820c:	f893 303e 	ldrb.w	r3, [r3, #62]	@ 0x3e
34188210:	4604      	mov	r4, r0
34188212:	f3c3 1302 	ubfx	r3, r3, #4, #3
34188216:	2b02      	cmp	r3, #2
34188218:	d004      	beq.n	34188224 <JEDEC_Basic_ManageQuadEnableRequirement+0x1c>
3418821a:	2b04      	cmp	r3, #4
3418821c:	d02c      	beq.n	34188278 <JEDEC_Basic_ManageQuadEnableRequirement+0x70>
3418821e:	200f      	movs	r0, #15
34188220:	b003      	add	sp, #12
34188222:	bd30      	pop	{r4, r5, pc}
34188224:	2300      	movs	r3, #0
34188226:	f100 0508 	add.w	r5, r0, #8
3418822a:	f890 1070 	ldrb.w	r1, [r0, #112]	@ 0x70
3418822e:	461a      	mov	r2, r3
34188230:	4628      	mov	r0, r5
34188232:	f7ff fbbf 	bl	341879b4 <SAL_XSPI_SendReadCommand>
34188236:	b108      	cbz	r0, 3418823c <JEDEC_Basic_ManageQuadEnableRequirement+0x34>
34188238:	200c      	movs	r0, #12
3418823a:	e7f1      	b.n	34188220 <JEDEC_Basic_ManageQuadEnableRequirement+0x18>
3418823c:	2301      	movs	r3, #1
3418823e:	2105      	movs	r1, #5
34188240:	4628      	mov	r0, r5
34188242:	aa01      	add	r2, sp, #4
34188244:	f7ff fbb6 	bl	341879b4 <SAL_XSPI_SendReadCommand>
34188248:	2800      	cmp	r0, #0
3418824a:	d1f5      	bne.n	34188238 <JEDEC_Basic_ManageQuadEnableRequirement+0x30>
3418824c:	f89d 3004 	ldrb.w	r3, [sp, #4]
34188250:	4628      	mov	r0, r5
34188252:	f043 0340 	orr.w	r3, r3, #64	@ 0x40
34188256:	f88d 3004 	strb.w	r3, [sp, #4]
3418825a:	2301      	movs	r3, #1
3418825c:	aa01      	add	r2, sp, #4
3418825e:	4619      	mov	r1, r3
34188260:	f7ff fb77 	bl	34187952 <SAL_XSPI_CommandSendData>
34188264:	2800      	cmp	r0, #0
34188266:	d1e7      	bne.n	34188238 <JEDEC_Basic_ManageQuadEnableRequirement+0x30>
34188268:	2164      	movs	r1, #100	@ 0x64
3418826a:	4620      	mov	r0, r4
3418826c:	f7ff fcdf 	bl	34187c2e <driver_check_FlagBUSY>
34188270:	2800      	cmp	r0, #0
34188272:	d1e1      	bne.n	34188238 <JEDEC_Basic_ManageQuadEnableRequirement+0x30>
34188274:	2000      	movs	r0, #0
34188276:	e7d3      	b.n	34188220 <JEDEC_Basic_ManageQuadEnableRequirement+0x18>
34188278:	f100 0508 	add.w	r5, r0, #8
3418827c:	2302      	movs	r3, #2
3418827e:	2105      	movs	r1, #5
34188280:	4628      	mov	r0, r5
34188282:	aa01      	add	r2, sp, #4
34188284:	f7ff fb96 	bl	341879b4 <SAL_XSPI_SendReadCommand>
34188288:	4603      	mov	r3, r0
3418828a:	2800      	cmp	r0, #0
3418828c:	d1d4      	bne.n	34188238 <JEDEC_Basic_ManageQuadEnableRequirement+0x30>
3418828e:	f89d 2005 	ldrb.w	r2, [sp, #5]
34188292:	f894 1070 	ldrb.w	r1, [r4, #112]	@ 0x70
34188296:	f042 0202 	orr.w	r2, r2, #2
3418829a:	f88d 2005 	strb.w	r2, [sp, #5]
3418829e:	4602      	mov	r2, r0
341882a0:	4628      	mov	r0, r5
341882a2:	f7ff fb87 	bl	341879b4 <SAL_XSPI_SendReadCommand>
341882a6:	2800      	cmp	r0, #0
341882a8:	d1c6      	bne.n	34188238 <JEDEC_Basic_ManageQuadEnableRequirement+0x30>
341882aa:	2302      	movs	r3, #2
341882ac:	2101      	movs	r1, #1
341882ae:	4628      	mov	r0, r5
341882b0:	aa01      	add	r2, sp, #4
341882b2:	f7ff fb4e 	bl	34187952 <SAL_XSPI_CommandSendData>
341882b6:	2800      	cmp	r0, #0
341882b8:	d1be      	bne.n	34188238 <JEDEC_Basic_ManageQuadEnableRequirement+0x30>
341882ba:	2164      	movs	r1, #100	@ 0x64
341882bc:	4620      	mov	r0, r4
341882be:	f7ff fcb6 	bl	34187c2e <driver_check_FlagBUSY>
341882c2:	2800      	cmp	r0, #0
341882c4:	d1b8      	bne.n	34188238 <JEDEC_Basic_ManageQuadEnableRequirement+0x30>
341882c6:	23ff      	movs	r3, #255	@ 0xff
341882c8:	2105      	movs	r1, #5
341882ca:	f88d 3005 	strb.w	r3, [sp, #5]
341882ce:	4628      	mov	r0, r5
341882d0:	2302      	movs	r3, #2
341882d2:	aa01      	add	r2, sp, #4
341882d4:	f7ff fb6e 	bl	341879b4 <SAL_XSPI_SendReadCommand>
341882d8:	e7ca      	b.n	34188270 <JEDEC_Basic_ManageQuadEnableRequirement+0x68>
341882da:	bf00      	nop
341882dc:	341c032c 	.word	0x341c032c

341882e0 <JEDEC_Basic_Manage4S4S4SEnableSequence>:
341882e0:	b538      	push	{r3, r4, r5, lr}
341882e2:	4b0e      	ldr	r3, [pc, #56]	@ (3418831c <JEDEC_Basic_Manage4S4S4SEnableSequence+0x3c>)
341882e4:	4605      	mov	r5, r0
341882e6:	8f9b      	ldrh	r3, [r3, #60]	@ 0x3c
341882e8:	06d9      	lsls	r1, r3, #27
341882ea:	f3c3 1204 	ubfx	r2, r3, #4, #5
341882ee:	d50c      	bpl.n	3418830a <JEDEC_Basic_Manage4S4S4SEnableSequence+0x2a>
341882f0:	f7ff ff8a 	bl	34188208 <JEDEC_Basic_ManageQuadEnableRequirement>
341882f4:	2138      	movs	r1, #56	@ 0x38
341882f6:	4604      	mov	r4, r0
341882f8:	b92c      	cbnz	r4, 34188306 <JEDEC_Basic_Manage4S4S4SEnableSequence+0x26>
341882fa:	4623      	mov	r3, r4
341882fc:	4622      	mov	r2, r4
341882fe:	f105 0008 	add.w	r0, r5, #8
34188302:	f7ff fb57 	bl	341879b4 <SAL_XSPI_SendReadCommand>
34188306:	4620      	mov	r0, r4
34188308:	bd38      	pop	{r3, r4, r5, pc}
3418830a:	0753      	lsls	r3, r2, #29
3418830c:	d504      	bpl.n	34188318 <JEDEC_Basic_Manage4S4S4SEnableSequence+0x38>
3418830e:	f7ff ff7b 	bl	34188208 <JEDEC_Basic_ManageQuadEnableRequirement>
34188312:	2135      	movs	r1, #53	@ 0x35
34188314:	4604      	mov	r4, r0
34188316:	e7ef      	b.n	341882f8 <JEDEC_Basic_Manage4S4S4SEnableSequence+0x18>
34188318:	240f      	movs	r4, #15
3418831a:	e7f4      	b.n	34188306 <JEDEC_Basic_Manage4S4S4SEnableSequence+0x26>
3418831c:	341c032c 	.word	0x341c032c

34188320 <SFDP_BuildGenericDriver>:
34188320:	e92d 41f0 	stmdb	sp!, {r4, r5, r6, r7, r8, lr}
34188324:	f8d0 3094 	ldr.w	r3, [r0, #148]	@ 0x94
34188328:	4688      	mov	r8, r1
3418832a:	0719      	lsls	r1, r3, #28
3418832c:	4604      	mov	r4, r0
3418832e:	b088      	sub	sp, #32
34188330:	f140 8343 	bpl.w	341889ba <SFDP_BuildGenericDriver+0x69a>
34188334:	4dc4      	ldr	r5, [pc, #784]	@ (34188648 <SFDP_BuildGenericDriver+0x328>)
34188336:	f100 0608 	add.w	r6, r0, #8
3418833a:	68ab      	ldr	r3, [r5, #8]
3418833c:	2104      	movs	r1, #4
3418833e:	2b00      	cmp	r3, #0
34188340:	bfa2      	ittt	ge
34188342:	3301      	addge	r3, #1
34188344:	fab3 f383 	clzge	r3, r3
34188348:	f1c3 031f 	rsbge	r3, r3, #31
3418834c:	b2db      	uxtb	r3, r3
3418834e:	1eda      	subs	r2, r3, #3
34188350:	f880 205e 	strb.w	r2, [r0, #94]	@ 0x5e
34188354:	3b04      	subs	r3, #4
34188356:	f10d 0217 	add.w	r2, sp, #23
3418835a:	4630      	mov	r0, r6
3418835c:	f88d 3017 	strb.w	r3, [sp, #23]
34188360:	f7ff f95a 	bl	34187618 <SAL_XSPI_MemoryConfig>
34188364:	2301      	movs	r3, #1
34188366:	f895 202c 	ldrb.w	r2, [r5, #44]	@ 0x2c
3418836a:	f895 c022 	ldrb.w	ip, [r5, #34]	@ 0x22
3418836e:	0912      	lsrs	r2, r2, #4
34188370:	4093      	lsls	r3, r2
34188372:	6623      	str	r3, [r4, #96]	@ 0x60
34188374:	2302      	movs	r3, #2
34188376:	f884 3075 	strb.w	r3, [r4, #117]	@ 0x75
3418837a:	f895 3021 	ldrb.w	r3, [r5, #33]	@ 0x21
3418837e:	f895 2020 	ldrb.w	r2, [r5, #32]
34188382:	f884 3078 	strb.w	r3, [r4, #120]	@ 0x78
34188386:	f895 3023 	ldrb.w	r3, [r5, #35]	@ 0x23
3418838a:	f895 0024 	ldrb.w	r0, [r5, #36]	@ 0x24
3418838e:	f884 307a 	strb.w	r3, [r4, #122]	@ 0x7a
34188392:	f895 3025 	ldrb.w	r3, [r5, #37]	@ 0x25
34188396:	f895 1026 	ldrb.w	r1, [r5, #38]	@ 0x26
3418839a:	f884 307c 	strb.w	r3, [r4, #124]	@ 0x7c
3418839e:	f895 3027 	ldrb.w	r3, [r5, #39]	@ 0x27
341883a2:	f884 2077 	strb.w	r2, [r4, #119]	@ 0x77
341883a6:	f884 c079 	strb.w	ip, [r4, #121]	@ 0x79
341883aa:	f884 007b 	strb.w	r0, [r4, #123]	@ 0x7b
341883ae:	f884 107d 	strb.w	r1, [r4, #125]	@ 0x7d
341883b2:	f884 307e 	strb.w	r3, [r4, #126]	@ 0x7e
341883b6:	f895 3028 	ldrb.w	r3, [r5, #40]	@ 0x28
341883ba:	f003 030f 	and.w	r3, r3, #15
341883be:	b17a      	cbz	r2, 341883e0 <SFDP_BuildGenericDriver+0xc0>
341883c0:	8d2a      	ldrh	r2, [r5, #40]	@ 0x28
341883c2:	f895 7029 	ldrb.w	r7, [r5, #41]	@ 0x29
341883c6:	f3c2 1204 	ubfx	r2, r2, #4, #5
341883ca:	fb02 3203 	mla	r2, r2, r3, r3
341883ce:	f8df e27c 	ldr.w	lr, [pc, #636]	@ 3418864c <SFDP_BuildGenericDriver+0x32c>
341883d2:	f3c7 0741 	ubfx	r7, r7, #1, #2
341883d6:	f83e 7017 	ldrh.w	r7, [lr, r7, lsl #1]
341883da:	437a      	muls	r2, r7
341883dc:	f8c4 2080 	str.w	r2, [r4, #128]	@ 0x80
341883e0:	f1bc 0f00 	cmp.w	ip, #0
341883e4:	d00f      	beq.n	34188406 <SFDP_BuildGenericDriver+0xe6>
341883e6:	f895 2029 	ldrb.w	r2, [r5, #41]	@ 0x29
341883ea:	f895 702a 	ldrb.w	r7, [r5, #42]	@ 0x2a
341883ee:	08d2      	lsrs	r2, r2, #3
341883f0:	fb02 3203 	mla	r2, r2, r3, r3
341883f4:	f8df c254 	ldr.w	ip, [pc, #596]	@ 3418864c <SFDP_BuildGenericDriver+0x32c>
341883f8:	f007 0703 	and.w	r7, r7, #3
341883fc:	f83c 7017 	ldrh.w	r7, [ip, r7, lsl #1]
34188400:	437a      	muls	r2, r7
34188402:	f8c4 2084 	str.w	r2, [r4, #132]	@ 0x84
34188406:	b170      	cbz	r0, 34188426 <SFDP_BuildGenericDriver+0x106>
34188408:	f895 202a 	ldrb.w	r2, [r5, #42]	@ 0x2a
3418840c:	8d68      	ldrh	r0, [r5, #42]	@ 0x2a
3418840e:	f3c2 0284 	ubfx	r2, r2, #2, #5
34188412:	fb02 3203 	mla	r2, r2, r3, r3
34188416:	4f8d      	ldr	r7, [pc, #564]	@ (3418864c <SFDP_BuildGenericDriver+0x32c>)
34188418:	f3c0 10c1 	ubfx	r0, r0, #7, #2
3418841c:	f837 0010 	ldrh.w	r0, [r7, r0, lsl #1]
34188420:	4342      	muls	r2, r0
34188422:	f8c4 2088 	str.w	r2, [r4, #136]	@ 0x88
34188426:	b161      	cbz	r1, 34188442 <SFDP_BuildGenericDriver+0x122>
34188428:	f895 102b 	ldrb.w	r1, [r5, #43]	@ 0x2b
3418842c:	4887      	ldr	r0, [pc, #540]	@ (3418864c <SFDP_BuildGenericDriver+0x32c>)
3418842e:	f3c1 0244 	ubfx	r2, r1, #1, #5
34188432:	fb02 3203 	mla	r2, r2, r3, r3
34188436:	0989      	lsrs	r1, r1, #6
34188438:	f830 1011 	ldrh.w	r1, [r0, r1, lsl #1]
3418843c:	434a      	muls	r2, r1
3418843e:	f8c4 208c 	str.w	r2, [r4, #140]	@ 0x8c
34188442:	f895 202f 	ldrb.w	r2, [r5, #47]	@ 0x2f
34188446:	4882      	ldr	r0, [pc, #520]	@ (34188650 <SFDP_BuildGenericDriver+0x330>)
34188448:	f002 011f 	and.w	r1, r2, #31
3418844c:	f3c2 1241 	ubfx	r2, r2, #5, #2
34188450:	f850 2022 	ldr.w	r2, [r0, r2, lsl #2]
34188454:	fb01 2202 	mla	r2, r1, r2, r2
34188458:	435a      	muls	r2, r3
3418845a:	2305      	movs	r3, #5
3418845c:	f884 3071 	strb.w	r3, [r4, #113]	@ 0x71
34188460:	f884 306c 	strb.w	r3, [r4, #108]	@ 0x6c
34188464:	792b      	ldrb	r3, [r5, #4]
34188466:	f8c4 2090 	str.w	r2, [r4, #144]	@ 0x90
3418846a:	f013 0f10 	tst.w	r3, #16
3418846e:	bf14      	ite	ne
34188470:	2306      	movne	r3, #6
34188472:	2350      	moveq	r3, #80	@ 0x50
34188474:	f884 3070 	strb.w	r3, [r4, #112]	@ 0x70
34188478:	f895 2040 	ldrb.w	r2, [r5, #64]	@ 0x40
3418847c:	f002 037f 	and.w	r3, r2, #127	@ 0x7f
34188480:	0792      	lsls	r2, r2, #30
34188482:	d106      	bne.n	34188492 <SFDP_BuildGenericDriver+0x172>
34188484:	075f      	lsls	r7, r3, #29
34188486:	f100 8143 	bmi.w	34188710 <SFDP_BuildGenericDriver+0x3f0>
3418848a:	f013 0f18 	tst.w	r3, #24
3418848e:	f000 8296 	beq.w	341889be <SFDP_BuildGenericDriver+0x69e>
34188492:	2306      	movs	r3, #6
34188494:	f884 3070 	strb.w	r3, [r4, #112]	@ 0x70
34188498:	f8d4 3094 	ldr.w	r3, [r4, #148]	@ 0x94
3418849c:	f413 7300 	ands.w	r3, r3, #512	@ 0x200
341884a0:	f000 8138 	beq.w	34188714 <SFDP_BuildGenericDriver+0x3f4>
341884a4:	4b6b      	ldr	r3, [pc, #428]	@ (34188654 <SFDP_BuildGenericDriver+0x334>)
341884a6:	f993 2013 	ldrsb.w	r2, [r3, #19]
341884aa:	7cd9      	ldrb	r1, [r3, #19]
341884ac:	2a00      	cmp	r2, #0
341884ae:	da14      	bge.n	341884da <SFDP_BuildGenericDriver+0x1ba>
341884b0:	7c5a      	ldrb	r2, [r3, #17]
341884b2:	06c8      	lsls	r0, r1, #27
341884b4:	f884 206c 	strb.w	r2, [r4, #108]	@ 0x6c
341884b8:	7cda      	ldrb	r2, [r3, #19]
341884ba:	f3c2 0202 	ubfx	r2, r2, #0, #3
341884be:	f884 206d 	strb.w	r2, [r4, #109]	@ 0x6d
341884c2:	7cda      	ldrb	r2, [r3, #19]
341884c4:	f3c2 1280 	ubfx	r2, r2, #6, #1
341884c8:	f884 206e 	strb.w	r2, [r4, #110]	@ 0x6e
341884cc:	bf52      	itee	pl
341884ce:	22ff      	movpl	r2, #255	@ 0xff
341884d0:	7cda      	ldrbmi	r2, [r3, #19]
341884d2:	f3c2 02c0 	ubfxmi	r2, r2, #3, #1
341884d6:	f884 206f 	strb.w	r2, [r4, #111]	@ 0x6f
341884da:	f993 2017 	ldrsb.w	r2, [r3, #23]
341884de:	2a00      	cmp	r2, #0
341884e0:	da14      	bge.n	3418850c <SFDP_BuildGenericDriver+0x1ec>
341884e2:	7d5a      	ldrb	r2, [r3, #21]
341884e4:	f884 2071 	strb.w	r2, [r4, #113]	@ 0x71
341884e8:	7dda      	ldrb	r2, [r3, #23]
341884ea:	f3c2 0202 	ubfx	r2, r2, #0, #3
341884ee:	f884 2072 	strb.w	r2, [r4, #114]	@ 0x72
341884f2:	7dda      	ldrb	r2, [r3, #23]
341884f4:	f3c2 1280 	ubfx	r2, r2, #6, #1
341884f8:	f884 2073 	strb.w	r2, [r4, #115]	@ 0x73
341884fc:	06ca      	lsls	r2, r1, #27
341884fe:	bf52      	itee	pl
34188500:	23ff      	movpl	r3, #255	@ 0xff
34188502:	7ddb      	ldrbmi	r3, [r3, #23]
34188504:	f3c3 03c0 	ubfxmi	r3, r3, #3, #1
34188508:	f884 3074 	strb.w	r3, [r4, #116]	@ 0x74
3418850c:	2303      	movs	r3, #3
3418850e:	2700      	movs	r7, #0
34188510:	f884 3076 	strb.w	r3, [r4, #118]	@ 0x76
34188514:	2101      	movs	r1, #1
34188516:	4630      	mov	r0, r6
34188518:	aa06      	add	r2, sp, #24
3418851a:	9706      	str	r7, [sp, #24]
3418851c:	f7ff f87c 	bl	34187618 <SAL_XSPI_MemoryConfig>
34188520:	f8d4 3094 	ldr.w	r3, [r4, #148]	@ 0x94
34188524:	071b      	lsls	r3, r3, #28
34188526:	f100 810f 	bmi.w	34188748 <SFDP_BuildGenericDriver+0x428>
3418852a:	f8d4 7094 	ldr.w	r7, [r4, #148]	@ 0x94
3418852e:	f417 5780 	ands.w	r7, r7, #4096	@ 0x1000
34188532:	f040 8166 	bne.w	34188802 <SFDP_BuildGenericDriver+0x4e2>
34188536:	2164      	movs	r1, #100	@ 0x64
34188538:	4620      	mov	r0, r4
3418853a:	f7ff fb78 	bl	34187c2e <driver_check_FlagBUSY>
3418853e:	2800      	cmp	r0, #0
34188540:	f040 8140 	bne.w	341887c4 <SFDP_BuildGenericDriver+0x4a4>
34188544:	f8d4 3094 	ldr.w	r3, [r4, #148]	@ 0x94
34188548:	0659      	lsls	r1, r3, #25
3418854a:	f140 8099 	bpl.w	34188680 <SFDP_BuildGenericDriver+0x360>
3418854e:	2f00      	cmp	r7, #0
34188550:	d143      	bne.n	341885da <SFDP_BuildGenericDriver+0x2ba>
34188552:	f895 3043 	ldrb.w	r3, [r5, #67]	@ 0x43
34188556:	07da      	lsls	r2, r3, #31
34188558:	f140 81a6 	bpl.w	341888a8 <SFDP_BuildGenericDriver+0x588>
3418855c:	463b      	mov	r3, r7
3418855e:	463a      	mov	r2, r7
34188560:	21b7      	movs	r1, #183	@ 0xb7
34188562:	4630      	mov	r0, r6
34188564:	f7ff f9f5 	bl	34187952 <SAL_XSPI_CommandSendData>
34188568:	2800      	cmp	r0, #0
3418856a:	f040 812b 	bne.w	341887c4 <SFDP_BuildGenericDriver+0x4a4>
3418856e:	463a      	mov	r2, r7
34188570:	2102      	movs	r1, #2
34188572:	4630      	mov	r0, r6
34188574:	f7ff f850 	bl	34187618 <SAL_XSPI_MemoryConfig>
34188578:	2800      	cmp	r0, #0
3418857a:	f040 8123 	bne.w	341887c4 <SFDP_BuildGenericDriver+0x4a4>
3418857e:	2200      	movs	r2, #0
34188580:	2102      	movs	r1, #2
34188582:	4630      	mov	r0, r6
34188584:	f7ff f848 	bl	34187618 <SAL_XSPI_MemoryConfig>
34188588:	2800      	cmp	r0, #0
3418858a:	f040 811b 	bne.w	341887c4 <SFDP_BuildGenericDriver+0x4a4>
3418858e:	f894 3064 	ldrb.w	r3, [r4, #100]	@ 0x64
34188592:	4f31      	ldr	r7, [pc, #196]	@ (34188658 <SFDP_BuildGenericDriver+0x338>)
34188594:	b9b3      	cbnz	r3, 341885c4 <SFDP_BuildGenericDriver+0x2a4>
34188596:	783b      	ldrb	r3, [r7, #0]
34188598:	07d9      	lsls	r1, r3, #31
3418859a:	bf44      	itt	mi
3418859c:	2213      	movmi	r2, #19
3418859e:	f884 2076 	strbmi.w	r2, [r4, #118]	@ 0x76
341885a2:	065a      	lsls	r2, r3, #25
341885a4:	bf44      	itt	mi
341885a6:	2212      	movmi	r2, #18
341885a8:	f884 2075 	strbmi.w	r2, [r4, #117]	@ 0x75
341885ac:	079b      	lsls	r3, r3, #30
341885ae:	d509      	bpl.n	341885c4 <SFDP_BuildGenericDriver+0x2a4>
341885b0:	230c      	movs	r3, #12
341885b2:	f884 3076 	strb.w	r3, [r4, #118]	@ 0x76
341885b6:	2308      	movs	r3, #8
341885b8:	2101      	movs	r1, #1
341885ba:	4630      	mov	r0, r6
341885bc:	aa06      	add	r2, sp, #24
341885be:	9306      	str	r3, [sp, #24]
341885c0:	f7ff f82a 	bl	34187618 <SAL_XSPI_MemoryConfig>
341885c4:	f894 3064 	ldrb.w	r3, [r4, #100]	@ 0x64
341885c8:	2b01      	cmp	r3, #1
341885ca:	f040 81a1 	bne.w	34188910 <SFDP_BuildGenericDriver+0x5f0>
341885ce:	783b      	ldrb	r3, [r7, #0]
341885d0:	075f      	lsls	r7, r3, #29
341885d2:	d502      	bpl.n	341885da <SFDP_BuildGenericDriver+0x2ba>
341885d4:	233c      	movs	r3, #60	@ 0x3c
341885d6:	f884 3076 	strb.w	r3, [r4, #118]	@ 0x76
341885da:	f894 305c 	ldrb.w	r3, [r4, #92]	@ 0x5c
341885de:	4f1e      	ldr	r7, [pc, #120]	@ (34188658 <SFDP_BuildGenericDriver+0x338>)
341885e0:	2b03      	cmp	r3, #3
341885e2:	d118      	bne.n	34188616 <SFDP_BuildGenericDriver+0x2f6>
341885e4:	f894 1064 	ldrb.w	r1, [r4, #100]	@ 0x64
341885e8:	b9a9      	cbnz	r1, 34188616 <SFDP_BuildGenericDriver+0x2f6>
341885ea:	887b      	ldrh	r3, [r7, #2]
341885ec:	f403 7390 	and.w	r3, r3, #288	@ 0x120
341885f0:	f5b3 7f90 	cmp.w	r3, #288	@ 0x120
341885f4:	d138      	bne.n	34188668 <SFDP_BuildGenericDriver+0x348>
341885f6:	4622      	mov	r2, r4
341885f8:	2307      	movs	r3, #7
341885fa:	4630      	mov	r0, r6
341885fc:	f802 3f64 	strb.w	r3, [r2, #100]!
34188600:	f7ff f80a 	bl	34187618 <SAL_XSPI_MemoryConfig>
34188604:	2800      	cmp	r0, #0
34188606:	f040 80dd 	bne.w	341887c4 <SFDP_BuildGenericDriver+0x4a4>
3418860a:	23cc      	movs	r3, #204	@ 0xcc
3418860c:	f884 3076 	strb.w	r3, [r4, #118]	@ 0x76
34188610:	238e      	movs	r3, #142	@ 0x8e
34188612:	f884 3075 	strb.w	r3, [r4, #117]	@ 0x75
34188616:	f894 3064 	ldrb.w	r3, [r4, #100]	@ 0x64
3418861a:	2b08      	cmp	r3, #8
3418861c:	d124      	bne.n	34188668 <SFDP_BuildGenericDriver+0x348>
3418861e:	78fb      	ldrb	r3, [r7, #3]
34188620:	07da      	lsls	r2, r3, #31
34188622:	bf44      	itt	mi
34188624:	2302      	movmi	r3, #2
34188626:	f884 3075 	strbmi.w	r3, [r4, #117]	@ 0x75
3418862a:	78bb      	ldrb	r3, [r7, #2]
3418862c:	069b      	lsls	r3, r3, #26
3418862e:	d515      	bpl.n	3418865c <SFDP_BuildGenericDriver+0x33c>
34188630:	23cc      	movs	r3, #204	@ 0xcc
34188632:	f884 3076 	strb.w	r3, [r4, #118]	@ 0x76
34188636:	2308      	movs	r3, #8
34188638:	2101      	movs	r1, #1
3418863a:	4630      	mov	r0, r6
3418863c:	aa06      	add	r2, sp, #24
3418863e:	9306      	str	r3, [sp, #24]
34188640:	f7fe ffea 	bl	34187618 <SAL_XSPI_MemoryConfig>
34188644:	e00a      	b.n	3418865c <SFDP_BuildGenericDriver+0x33c>
34188646:	bf00      	nop
34188648:	341c032c 	.word	0x341c032c
3418864c:	34188ccc 	.word	0x34188ccc
34188650:	34188cbc 	.word	0x34188cbc
34188654:	341c029c 	.word	0x341c029c
34188658:	341c0324 	.word	0x341c0324
3418865c:	78bb      	ldrb	r3, [r7, #2]
3418865e:	0658      	lsls	r0, r3, #25
34188660:	bf44      	itt	mi
34188662:	23fd      	movmi	r3, #253	@ 0xfd
34188664:	f884 3076 	strbmi.w	r3, [r4, #118]	@ 0x76
34188668:	793b      	ldrb	r3, [r7, #4]
3418866a:	f884 3078 	strb.w	r3, [r4, #120]	@ 0x78
3418866e:	797b      	ldrb	r3, [r7, #5]
34188670:	f884 307a 	strb.w	r3, [r4, #122]	@ 0x7a
34188674:	79bb      	ldrb	r3, [r7, #6]
34188676:	f884 307c 	strb.w	r3, [r4, #124]	@ 0x7c
3418867a:	79fb      	ldrb	r3, [r7, #7]
3418867c:	f884 307e 	strb.w	r3, [r4, #126]	@ 0x7e
34188680:	f8d4 3094 	ldr.w	r3, [r4, #148]	@ 0x94
34188684:	0619      	lsls	r1, r3, #24
34188686:	f140 8192 	bpl.w	341889ae <SFDP_BuildGenericDriver+0x68e>
3418868a:	f894 3064 	ldrb.w	r3, [r4, #100]	@ 0x64
3418868e:	3b08      	subs	r3, #8
34188690:	2b01      	cmp	r3, #1
34188692:	f200 818c 	bhi.w	341889ae <SFDP_BuildGenericDriver+0x68e>
34188696:	2300      	movs	r3, #0
34188698:	4fa6      	ldr	r7, [pc, #664]	@ (34188934 <SFDP_BuildGenericDriver+0x614>)
3418869a:	9307      	str	r3, [sp, #28]
3418869c:	787b      	ldrb	r3, [r7, #1]
3418869e:	b10b      	cbz	r3, 341886a4 <SFDP_BuildGenericDriver+0x384>
341886a0:	f884 3076 	strb.w	r3, [r4, #118]	@ 0x76
341886a4:	7d3b      	ldrb	r3, [r7, #20]
341886a6:	06da      	lsls	r2, r3, #27
341886a8:	d007      	beq.n	341886ba <SFDP_BuildGenericDriver+0x39a>
341886aa:	f003 031f 	and.w	r3, r3, #31
341886ae:	2101      	movs	r1, #1
341886b0:	4630      	mov	r0, r6
341886b2:	aa06      	add	r2, sp, #24
341886b4:	9306      	str	r3, [sp, #24]
341886b6:	f7fe ffaf 	bl	34187618 <SAL_XSPI_MemoryConfig>
341886ba:	f895 0053 	ldrb.w	r0, [r5, #83]	@ 0x53
341886be:	0900      	lsrs	r0, r0, #4
341886c0:	f7ff fad4 	bl	34187c6c <sfdp_getfrequencevalue>
341886c4:	6ea1      	ldr	r1, [r4, #104]	@ 0x68
341886c6:	6823      	ldr	r3, [r4, #0]
341886c8:	4288      	cmp	r0, r1
341886ca:	4602      	mov	r2, r0
341886cc:	bf28      	it	cs
341886ce:	460a      	movcs	r2, r1
341886d0:	b113      	cbz	r3, 341886d8 <SFDP_BuildGenericDriver+0x3b8>
341886d2:	429a      	cmp	r2, r3
341886d4:	bf28      	it	cs
341886d6:	461a      	movcs	r2, r3
341886d8:	4630      	mov	r0, r6
341886da:	ab07      	add	r3, sp, #28
341886dc:	f7fe ff5c 	bl	34187598 <SAL_XSPI_SetClock>
341886e0:	2800      	cmp	r0, #0
341886e2:	f040 8166 	bne.w	341889b2 <SFDP_BuildGenericDriver+0x692>
341886e6:	2301      	movs	r3, #1
341886e8:	4a93      	ldr	r2, [pc, #588]	@ (34188938 <SFDP_BuildGenericDriver+0x618>)
341886ea:	f888 3000 	strb.w	r3, [r8]
341886ee:	9b07      	ldr	r3, [sp, #28]
341886f0:	4293      	cmp	r3, r2
341886f2:	f240 8123 	bls.w	3418893c <SFDP_BuildGenericDriver+0x61c>
341886f6:	89bb      	ldrh	r3, [r7, #12]
341886f8:	f403 6278 	and.w	r2, r3, #3968	@ 0xf80
341886fc:	2a00      	cmp	r2, #0
341886fe:	f000 8120 	beq.w	34188942 <SFDP_BuildGenericDriver+0x622>
34188702:	f3c3 13c4 	ubfx	r3, r3, #7, #5
34188706:	7b39      	ldrb	r1, [r7, #12]
34188708:	9306      	str	r3, [sp, #24]
3418870a:	f3c1 0184 	ubfx	r1, r1, #2, #5
3418870e:	e120      	b.n	34188952 <SFDP_BuildGenericDriver+0x632>
34188710:	2350      	movs	r3, #80	@ 0x50
34188712:	e6bf      	b.n	34188494 <SFDP_BuildGenericDriver+0x174>
34188714:	2201      	movs	r2, #1
34188716:	f8a4 2072 	strh.w	r2, [r4, #114]	@ 0x72
3418871a:	f895 2038 	ldrb.w	r2, [r5, #56]	@ 0x38
3418871e:	0757      	lsls	r7, r2, #29
34188720:	ea4f 0092 	mov.w	r0, r2, lsr #2
34188724:	f3c2 0180 	ubfx	r1, r2, #2, #1
34188728:	d504      	bpl.n	34188734 <SFDP_BuildGenericDriver+0x414>
3418872a:	f884 306d 	strb.w	r3, [r4, #109]	@ 0x6d
3418872e:	f884 306e 	strb.w	r3, [r4, #110]	@ 0x6e
34188732:	e6eb      	b.n	3418850c <SFDP_BuildGenericDriver+0x1ec>
34188734:	0782      	lsls	r2, r0, #30
34188736:	f140 8144 	bpl.w	341889c2 <SFDP_BuildGenericDriver+0x6a2>
3418873a:	f44f 63ee 	mov.w	r3, #1904	@ 0x770
3418873e:	f884 106e 	strb.w	r1, [r4, #110]	@ 0x6e
34188742:	f8a4 306c 	strh.w	r3, [r4, #108]	@ 0x6c
34188746:	e6e1      	b.n	3418850c <SFDP_BuildGenericDriver+0x1ec>
34188748:	f894 305c 	ldrb.w	r3, [r4, #92]	@ 0x5c
3418874c:	2b02      	cmp	r3, #2
3418874e:	f63f aeec 	bhi.w	3418852a <SFDP_BuildGenericDriver+0x20a>
34188752:	f884 7064 	strb.w	r7, [r4, #100]	@ 0x64
34188756:	b373      	cbz	r3, 341887b6 <SFDP_BuildGenericDriver+0x496>
34188758:	7c69      	ldrb	r1, [r5, #17]
3418875a:	b151      	cbz	r1, 34188772 <SFDP_BuildGenericDriver+0x452>
3418875c:	7c28      	ldrb	r0, [r5, #16]
3418875e:	f884 1076 	strb.w	r1, [r4, #118]	@ 0x76
34188762:	f000 021f 	and.w	r2, r0, #31
34188766:	eb02 1250 	add.w	r2, r2, r0, lsr #5
3418876a:	9206      	str	r2, [sp, #24]
3418876c:	2201      	movs	r2, #1
3418876e:	f884 2064 	strb.w	r2, [r4, #100]	@ 0x64
34188772:	7ce9      	ldrb	r1, [r5, #19]
34188774:	b151      	cbz	r1, 3418878c <SFDP_BuildGenericDriver+0x46c>
34188776:	7ca8      	ldrb	r0, [r5, #18]
34188778:	f884 1076 	strb.w	r1, [r4, #118]	@ 0x76
3418877c:	f000 021f 	and.w	r2, r0, #31
34188780:	eb02 1250 	add.w	r2, r2, r0, lsr #5
34188784:	9206      	str	r2, [sp, #24]
34188786:	2202      	movs	r2, #2
34188788:	f884 2064 	strb.w	r2, [r4, #100]	@ 0x64
3418878c:	7d29      	ldrb	r1, [r5, #20]
3418878e:	07cf      	lsls	r7, r1, #31
34188790:	d508      	bpl.n	341887a4 <SFDP_BuildGenericDriver+0x484>
34188792:	7ea8      	ldrb	r0, [r5, #26]
34188794:	f000 021f 	and.w	r2, r0, #31
34188798:	eb02 1250 	add.w	r2, r2, r0, lsr #5
3418879c:	9206      	str	r2, [sp, #24]
3418879e:	7eea      	ldrb	r2, [r5, #27]
341887a0:	f884 2076 	strb.w	r2, [r4, #118]	@ 0x76
341887a4:	2b02      	cmp	r3, #2
341887a6:	d106      	bne.n	341887b6 <SFDP_BuildGenericDriver+0x496>
341887a8:	06c8      	lsls	r0, r1, #27
341887aa:	d40d      	bmi.n	341887c8 <SFDP_BuildGenericDriver+0x4a8>
341887ac:	2101      	movs	r1, #1
341887ae:	4630      	mov	r0, r6
341887b0:	aa06      	add	r2, sp, #24
341887b2:	f7fe ff31 	bl	34187618 <SAL_XSPI_MemoryConfig>
341887b6:	2100      	movs	r1, #0
341887b8:	4630      	mov	r0, r6
341887ba:	f104 0264 	add.w	r2, r4, #100	@ 0x64
341887be:	f7fe ff2b 	bl	34187618 <SAL_XSPI_MemoryConfig>
341887c2:	b1a8      	cbz	r0, 341887f0 <SFDP_BuildGenericDriver+0x4d0>
341887c4:	200c      	movs	r0, #12
341887c6:	e010      	b.n	341887ea <SFDP_BuildGenericDriver+0x4ca>
341887c8:	7faa      	ldrb	r2, [r5, #30]
341887ca:	4620      	mov	r0, r4
341887cc:	f002 031f 	and.w	r3, r2, #31
341887d0:	eb03 1352 	add.w	r3, r3, r2, lsr #5
341887d4:	9306      	str	r3, [sp, #24]
341887d6:	7feb      	ldrb	r3, [r5, #31]
341887d8:	f884 3076 	strb.w	r3, [r4, #118]	@ 0x76
341887dc:	2304      	movs	r3, #4
341887de:	f884 3064 	strb.w	r3, [r4, #100]	@ 0x64
341887e2:	f7ff fd7d 	bl	341882e0 <JEDEC_Basic_Manage4S4S4SEnableSequence>
341887e6:	2800      	cmp	r0, #0
341887e8:	d0e0      	beq.n	341887ac <SFDP_BuildGenericDriver+0x48c>
341887ea:	b008      	add	sp, #32
341887ec:	e8bd 81f0 	ldmia.w	sp!, {r4, r5, r6, r7, r8, pc}
341887f0:	2101      	movs	r1, #1
341887f2:	4630      	mov	r0, r6
341887f4:	aa06      	add	r2, sp, #24
341887f6:	f7fe ff0f 	bl	34187618 <SAL_XSPI_MemoryConfig>
341887fa:	2800      	cmp	r0, #0
341887fc:	f43f ae95 	beq.w	3418852a <SFDP_BuildGenericDriver+0x20a>
34188800:	e7e0      	b.n	341887c4 <SFDP_BuildGenericDriver+0x4a4>
34188802:	f894 305c 	ldrb.w	r3, [r4, #92]	@ 0x5c
34188806:	2b03      	cmp	r3, #3
34188808:	d14c      	bne.n	341888a4 <SFDP_BuildGenericDriver+0x584>
3418880a:	f894 3064 	ldrb.w	r3, [r4, #100]	@ 0x64
3418880e:	2b09      	cmp	r3, #9
34188810:	d028      	beq.n	34188864 <SFDP_BuildGenericDriver+0x544>
34188812:	4620      	mov	r0, r4
34188814:	f7ff fbc6 	bl	34187fa4 <sfdp_enter_octal_mode>
34188818:	4601      	mov	r1, r0
3418881a:	bb98      	cbnz	r0, 34188884 <SFDP_BuildGenericDriver+0x564>
3418881c:	f894 305d 	ldrb.w	r3, [r4, #93]	@ 0x5d
34188820:	4622      	mov	r2, r4
34188822:	2bc8      	cmp	r3, #200	@ 0xc8
34188824:	bf14      	ite	ne
34188826:	2309      	movne	r3, #9
34188828:	2308      	moveq	r3, #8
3418882a:	4630      	mov	r0, r6
3418882c:	f802 3f64 	strb.w	r3, [r2, #100]!
34188830:	f7fe fef2 	bl	34187618 <SAL_XSPI_MemoryConfig>
34188834:	2800      	cmp	r0, #0
34188836:	d1c5      	bne.n	341887c4 <SFDP_BuildGenericDriver+0x4a4>
34188838:	f894 309d 	ldrb.w	r3, [r4, #157]	@ 0x9d
3418883c:	2bfd      	cmp	r3, #253	@ 0xfd
3418883e:	d106      	bne.n	3418884e <SFDP_BuildGenericDriver+0x52e>
34188840:	2314      	movs	r3, #20
34188842:	2101      	movs	r1, #1
34188844:	4630      	mov	r0, r6
34188846:	aa06      	add	r2, sp, #24
34188848:	9306      	str	r3, [sp, #24]
3418884a:	f7fe fee5 	bl	34187618 <SAL_XSPI_MemoryConfig>
3418884e:	f894 309d 	ldrb.w	r3, [r4, #157]	@ 0x9d
34188852:	2bfe      	cmp	r3, #254	@ 0xfe
34188854:	d106      	bne.n	34188864 <SFDP_BuildGenericDriver+0x544>
34188856:	2308      	movs	r3, #8
34188858:	2101      	movs	r1, #1
3418885a:	4630      	mov	r0, r6
3418885c:	aa06      	add	r2, sp, #24
3418885e:	9306      	str	r3, [sp, #24]
34188860:	f7fe feda 	bl	34187618 <SAL_XSPI_MemoryConfig>
34188864:	2701      	movs	r7, #1
34188866:	f8d4 2094 	ldr.w	r2, [r4, #148]	@ 0x94
3418886a:	0711      	lsls	r1, r2, #28
3418886c:	d50e      	bpl.n	3418888c <SFDP_BuildGenericDriver+0x56c>
3418886e:	682b      	ldr	r3, [r5, #0]
34188870:	2b10      	cmp	r3, #16
34188872:	d90b      	bls.n	3418888c <SFDP_BuildGenericDriver+0x56c>
34188874:	f895 304b 	ldrb.w	r3, [r5, #75]	@ 0x4b
34188878:	f3c3 1141 	ubfx	r1, r3, #5, #2
3418887c:	2901      	cmp	r1, #1
3418887e:	d903      	bls.n	34188888 <SFDP_BuildGenericDriver+0x568>
34188880:	200f      	movs	r0, #15
34188882:	e7b2      	b.n	341887ea <SFDP_BuildGenericDriver+0x4ca>
34188884:	2700      	movs	r7, #0
34188886:	e7ee      	b.n	34188866 <SFDP_BuildGenericDriver+0x546>
34188888:	f884 1058 	strb.w	r1, [r4, #88]	@ 0x58
3418888c:	0613      	lsls	r3, r2, #24
3418888e:	f57f ae52 	bpl.w	34188536 <SFDP_BuildGenericDriver+0x216>
34188892:	4b28      	ldr	r3, [pc, #160]	@ (34188934 <SFDP_BuildGenericDriver+0x614>)
34188894:	78db      	ldrb	r3, [r3, #3]
34188896:	0658      	lsls	r0, r3, #25
34188898:	f57f ae4d 	bpl.w	34188536 <SFDP_BuildGenericDriver+0x216>
3418889c:	2314      	movs	r3, #20
3418889e:	f884 3059 	strb.w	r3, [r4, #89]	@ 0x59
341888a2:	e648      	b.n	34188536 <SFDP_BuildGenericDriver+0x216>
341888a4:	2700      	movs	r7, #0
341888a6:	e646      	b.n	34188536 <SFDP_BuildGenericDriver+0x216>
341888a8:	0798      	lsls	r0, r3, #30
341888aa:	d52c      	bpl.n	34188906 <SFDP_BuildGenericDriver+0x5e6>
341888ac:	463b      	mov	r3, r7
341888ae:	463a      	mov	r2, r7
341888b0:	4630      	mov	r0, r6
341888b2:	f894 1070 	ldrb.w	r1, [r4, #112]	@ 0x70
341888b6:	f7ff f84c 	bl	34187952 <SAL_XSPI_CommandSendData>
341888ba:	2800      	cmp	r0, #0
341888bc:	d182      	bne.n	341887c4 <SFDP_BuildGenericDriver+0x4a4>
341888be:	f44f 727a 	mov.w	r2, #1000	@ 0x3e8
341888c2:	f894 1072 	ldrb.w	r1, [r4, #114]	@ 0x72
341888c6:	f894 3073 	ldrb.w	r3, [r4, #115]	@ 0x73
341888ca:	9202      	str	r2, [sp, #8]
341888cc:	f894 205d 	ldrb.w	r2, [r4, #93]	@ 0x5d
341888d0:	fab3 f383 	clz	r3, r3
341888d4:	9201      	str	r2, [sp, #4]
341888d6:	2201      	movs	r2, #1
341888d8:	408a      	lsls	r2, r1
341888da:	b2d2      	uxtb	r2, r2
341888dc:	095b      	lsrs	r3, r3, #5
341888de:	408b      	lsls	r3, r1
341888e0:	9200      	str	r2, [sp, #0]
341888e2:	4630      	mov	r0, r6
341888e4:	f894 2074 	ldrb.w	r2, [r4, #116]	@ 0x74
341888e8:	f894 1071 	ldrb.w	r1, [r4, #113]	@ 0x71
341888ec:	b2db      	uxtb	r3, r3
341888ee:	f7ff f8d7 	bl	34187aa0 <SAL_XSPI_CheckStatusRegister>
341888f2:	2800      	cmp	r0, #0
341888f4:	f47f af66 	bne.w	341887c4 <SFDP_BuildGenericDriver+0x4a4>
341888f8:	463b      	mov	r3, r7
341888fa:	463a      	mov	r2, r7
341888fc:	21b7      	movs	r1, #183	@ 0xb7
341888fe:	4630      	mov	r0, r6
34188900:	f7ff f827 	bl	34187952 <SAL_XSPI_CommandSendData>
34188904:	e638      	b.n	34188578 <SFDP_BuildGenericDriver+0x258>
34188906:	f013 0f60 	tst.w	r3, #96	@ 0x60
3418890a:	f47f ae38 	bne.w	3418857e <SFDP_BuildGenericDriver+0x25e>
3418890e:	e7b7      	b.n	34188880 <SFDP_BuildGenericDriver+0x560>
34188910:	2b02      	cmp	r3, #2
34188912:	d105      	bne.n	34188920 <SFDP_BuildGenericDriver+0x600>
34188914:	783b      	ldrb	r3, [r7, #0]
34188916:	0718      	lsls	r0, r3, #28
34188918:	f57f ae5f 	bpl.w	341885da <SFDP_BuildGenericDriver+0x2ba>
3418891c:	23bc      	movs	r3, #188	@ 0xbc
3418891e:	e65a      	b.n	341885d6 <SFDP_BuildGenericDriver+0x2b6>
34188920:	2b03      	cmp	r3, #3
34188922:	f47f ae5a 	bne.w	341885da <SFDP_BuildGenericDriver+0x2ba>
34188926:	787b      	ldrb	r3, [r7, #1]
34188928:	0699      	lsls	r1, r3, #26
3418892a:	f57f ae56 	bpl.w	341885da <SFDP_BuildGenericDriver+0x2ba>
3418892e:	230e      	movs	r3, #14
34188930:	e651      	b.n	341885d6 <SFDP_BuildGenericDriver+0x2b6>
34188932:	bf00      	nop
34188934:	341c030c 	.word	0x341c030c
34188938:	0bebc1ff 	.word	0x0bebc1ff
3418893c:	4a22      	ldr	r2, [pc, #136]	@ (341889c8 <SFDP_BuildGenericDriver+0x6a8>)
3418893e:	4293      	cmp	r3, r2
34188940:	d913      	bls.n	3418896a <SFDP_BuildGenericDriver+0x64a>
34188942:	7cfb      	ldrb	r3, [r7, #19]
34188944:	2b07      	cmp	r3, #7
34188946:	d913      	bls.n	34188970 <SFDP_BuildGenericDriver+0x650>
34188948:	8a79      	ldrh	r1, [r7, #18]
3418894a:	08db      	lsrs	r3, r3, #3
3418894c:	9306      	str	r3, [sp, #24]
3418894e:	f3c1 1184 	ubfx	r1, r1, #6, #5
34188952:	f894 305d 	ldrb.w	r3, [r4, #93]	@ 0x5d
34188956:	2bc8      	cmp	r3, #200	@ 0xc8
34188958:	d11b      	bne.n	34188992 <SFDP_BuildGenericDriver+0x672>
3418895a:	2310      	movs	r3, #16
3418895c:	9306      	str	r3, [sp, #24]
3418895e:	2101      	movs	r1, #1
34188960:	4630      	mov	r0, r6
34188962:	aa06      	add	r2, sp, #24
34188964:	f7fe fe58 	bl	34187618 <SAL_XSPI_MemoryConfig>
34188968:	e021      	b.n	341889ae <SFDP_BuildGenericDriver+0x68e>
3418896a:	4a18      	ldr	r2, [pc, #96]	@ (341889cc <SFDP_BuildGenericDriver+0x6ac>)
3418896c:	4293      	cmp	r3, r2
3418896e:	d90a      	bls.n	34188986 <SFDP_BuildGenericDriver+0x666>
34188970:	7cbb      	ldrb	r3, [r7, #18]
34188972:	f013 0f3e 	tst.w	r3, #62	@ 0x3e
34188976:	d006      	beq.n	34188986 <SFDP_BuildGenericDriver+0x666>
34188978:	6939      	ldr	r1, [r7, #16]
3418897a:	f3c3 0344 	ubfx	r3, r3, #1, #5
3418897e:	9306      	str	r3, [sp, #24]
34188980:	f3c1 3104 	ubfx	r1, r1, #12, #5
34188984:	e7e5      	b.n	34188952 <SFDP_BuildGenericDriver+0x632>
34188986:	8a3b      	ldrh	r3, [r7, #16]
34188988:	7c39      	ldrb	r1, [r7, #16]
3418898a:	f3c3 13c4 	ubfx	r3, r3, #7, #5
3418898e:	9306      	str	r3, [sp, #24]
34188990:	e6bb      	b.n	3418870a <SFDP_BuildGenericDriver+0x3ea>
34188992:	f8d4 3094 	ldr.w	r3, [r4, #148]	@ 0x94
34188996:	059b      	lsls	r3, r3, #22
34188998:	d50d      	bpl.n	341889b6 <SFDP_BuildGenericDriver+0x696>
3418899a:	4b0d      	ldr	r3, [pc, #52]	@ (341889d0 <SFDP_BuildGenericDriver+0x6b0>)
3418899c:	f993 3023 	ldrsb.w	r3, [r3, #35]	@ 0x23
341889a0:	2b00      	cmp	r3, #0
341889a2:	da08      	bge.n	341889b6 <SFDP_BuildGenericDriver+0x696>
341889a4:	4620      	mov	r0, r4
341889a6:	f7ff fba7 	bl	341880f8 <sfdp_set_dummycycle>
341889aa:	2800      	cmp	r0, #0
341889ac:	d0d7      	beq.n	3418895e <SFDP_BuildGenericDriver+0x63e>
341889ae:	2000      	movs	r0, #0
341889b0:	e71b      	b.n	341887ea <SFDP_BuildGenericDriver+0x4ca>
341889b2:	200d      	movs	r0, #13
341889b4:	e719      	b.n	341887ea <SFDP_BuildGenericDriver+0x4ca>
341889b6:	200e      	movs	r0, #14
341889b8:	e717      	b.n	341887ea <SFDP_BuildGenericDriver+0x4ca>
341889ba:	2007      	movs	r0, #7
341889bc:	e715      	b.n	341887ea <SFDP_BuildGenericDriver+0x4ca>
341889be:	200a      	movs	r0, #10
341889c0:	e713      	b.n	341887ea <SFDP_BuildGenericDriver+0x4ca>
341889c2:	2009      	movs	r0, #9
341889c4:	e711      	b.n	341887ea <SFDP_BuildGenericDriver+0x4ca>
341889c6:	bf00      	nop
341889c8:	09e4f57f 	.word	0x09e4f57f
341889cc:	07ed6b3f 	.word	0x07ed6b3f
341889d0:	341c029c 	.word	0x341c029c

341889d4 <CheckSFDP_Signature>:
341889d4:	b508      	push	{r3, lr}
341889d6:	4b0b      	ldr	r3, [pc, #44]	@ (34188a04 <CheckSFDP_Signature+0x30>)
341889d8:	4299      	cmp	r1, r3
341889da:	d00a      	beq.n	341889f2 <CheckSFDP_Signature+0x1e>
341889dc:	f103 633f 	add.w	r3, r3, #200278016	@ 0xbf00000
341889e0:	f503 337c 	add.w	r3, r3, #258048	@ 0x3f000
341889e4:	f203 330d 	addw	r3, r3, #781	@ 0x30d
341889e8:	1ac9      	subs	r1, r1, r3
341889ea:	bf18      	it	ne
341889ec:	2101      	movne	r1, #1
341889ee:	0088      	lsls	r0, r1, #2
341889f0:	bd08      	pop	{r3, pc}
341889f2:	2100      	movs	r1, #0
341889f4:	3008      	adds	r0, #8
341889f6:	f7fe ff83 	bl	34187900 <SAL_XSPI_UpdateMemoryType>
341889fa:	2800      	cmp	r0, #0
341889fc:	bf14      	ite	ne
341889fe:	2004      	movne	r0, #4
34188a00:	2005      	moveq	r0, #5
34188a02:	e7f5      	b.n	341889f0 <CheckSFDP_Signature+0x1c>
34188a04:	44505346 	.word	0x44505346

34188a08 <SFDP_ReadHeader>:
34188a08:	e92d 41f0 	stmdb	sp!, {r4, r5, r6, r7, r8, lr}
34188a0c:	4605      	mov	r5, r0
34188a0e:	460c      	mov	r4, r1
34188a10:	2602      	movs	r6, #2
34188a12:	2700      	movs	r7, #0
34188a14:	f100 0808 	add.w	r8, r0, #8
34188a18:	2308      	movs	r3, #8
34188a1a:	4622      	mov	r2, r4
34188a1c:	2100      	movs	r1, #0
34188a1e:	4640      	mov	r0, r8
34188a20:	6027      	str	r7, [r4, #0]
34188a22:	f7fe fecc 	bl	341877be <SAL_XSPI_GetSFDP>
34188a26:	b960      	cbnz	r0, 34188a42 <SFDP_ReadHeader+0x3a>
34188a28:	4628      	mov	r0, r5
34188a2a:	6821      	ldr	r1, [r4, #0]
34188a2c:	f7ff ffd2 	bl	341889d4 <CheckSFDP_Signature>
34188a30:	b140      	cbz	r0, 34188a44 <SFDP_ReadHeader+0x3c>
34188a32:	2805      	cmp	r0, #5
34188a34:	d101      	bne.n	34188a3a <SFDP_ReadHeader+0x32>
34188a36:	2e01      	cmp	r6, #1
34188a38:	d101      	bne.n	34188a3e <SFDP_ReadHeader+0x36>
34188a3a:	2004      	movs	r0, #4
34188a3c:	e002      	b.n	34188a44 <SFDP_ReadHeader+0x3c>
34188a3e:	2601      	movs	r6, #1
34188a40:	e7ea      	b.n	34188a18 <SFDP_ReadHeader+0x10>
34188a42:	2003      	movs	r0, #3
34188a44:	e8bd 81f0 	ldmia.w	sp!, {r4, r5, r6, r7, r8, pc}

34188a48 <SFDP_GetHeader>:
34188a48:	e92d 4ff0 	stmdb	sp!, {r4, r5, r6, r7, r8, r9, sl, fp, lr}
34188a4c:	b085      	sub	sp, #20
34188a4e:	4604      	mov	r4, r0
34188a50:	460e      	mov	r6, r1
34188a52:	466a      	mov	r2, sp
34188a54:	466d      	mov	r5, sp
34188a56:	4b22      	ldr	r3, [pc, #136]	@ (34188ae0 <SFDP_GetHeader+0x98>)
34188a58:	f103 0c10 	add.w	ip, r3, #16
34188a5c:	4617      	mov	r7, r2
34188a5e:	6818      	ldr	r0, [r3, #0]
34188a60:	6859      	ldr	r1, [r3, #4]
34188a62:	3308      	adds	r3, #8
34188a64:	c703      	stmia	r7!, {r0, r1}
34188a66:	4563      	cmp	r3, ip
34188a68:	463a      	mov	r2, r7
34188a6a:	d1f7      	bne.n	34188a5c <SFDP_GetHeader+0x14>
34188a6c:	f04f 0a00 	mov.w	sl, #0
34188a70:	46d1      	mov	r9, sl
34188a72:	f104 0764 	add.w	r7, r4, #100	@ 0x64
34188a76:	f104 0808 	add.w	r8, r4, #8
34188a7a:	f895 b000 	ldrb.w	fp, [r5]
34188a7e:	463a      	mov	r2, r7
34188a80:	2100      	movs	r1, #0
34188a82:	4640      	mov	r0, r8
34188a84:	f884 b064 	strb.w	fp, [r4, #100]	@ 0x64
34188a88:	f7fe fdc6 	bl	34187618 <SAL_XSPI_MemoryConfig>
34188a8c:	786b      	ldrb	r3, [r5, #1]
34188a8e:	4631      	mov	r1, r6
34188a90:	4620      	mov	r0, r4
34188a92:	f884 3059 	strb.w	r3, [r4, #89]	@ 0x59
34188a96:	f884 9058 	strb.w	r9, [r4, #88]	@ 0x58
34188a9a:	f7ff ffb5 	bl	34188a08 <SFDP_ReadHeader>
34188a9e:	3800      	subs	r0, #0
34188aa0:	bf18      	it	ne
34188aa2:	2001      	movne	r0, #1
34188aa4:	f1bb 0f03 	cmp.w	fp, #3
34188aa8:	ea4f 0080 	mov.w	r0, r0, lsl #2
34188aac:	d90b      	bls.n	34188ac6 <SFDP_GetHeader+0x7e>
34188aae:	b1a8      	cbz	r0, 34188adc <SFDP_GetHeader+0x94>
34188ab0:	2301      	movs	r3, #1
34188ab2:	4631      	mov	r1, r6
34188ab4:	f884 3058 	strb.w	r3, [r4, #88]	@ 0x58
34188ab8:	4620      	mov	r0, r4
34188aba:	f7ff ffa5 	bl	34188a08 <SFDP_ReadHeader>
34188abe:	1e03      	subs	r3, r0, #0
34188ac0:	bf18      	it	ne
34188ac2:	2301      	movne	r3, #1
34188ac4:	0098      	lsls	r0, r3, #2
34188ac6:	f1ba 0f07 	cmp.w	sl, #7
34188aca:	d004      	beq.n	34188ad6 <SFDP_GetHeader+0x8e>
34188acc:	f10a 0a01 	add.w	sl, sl, #1
34188ad0:	3502      	adds	r5, #2
34188ad2:	2800      	cmp	r0, #0
34188ad4:	d1d1      	bne.n	34188a7a <SFDP_GetHeader+0x32>
34188ad6:	b005      	add	sp, #20
34188ad8:	e8bd 8ff0 	ldmia.w	sp!, {r4, r5, r6, r7, r8, r9, sl, fp, pc}
34188adc:	2000      	movs	r0, #0
34188ade:	e7f2      	b.n	34188ac6 <SFDP_GetHeader+0x7e>
34188ae0:	34188caa 	.word	0x34188caa

34188ae4 <EXTMEM_DRIVER_NOR_SFDP_Init>:
34188ae4:	e92d 41f0 	stmdb	sp!, {r4, r5, r6, r7, r8, lr}
34188ae8:	4688      	mov	r8, r1
34188aea:	2100      	movs	r1, #0
34188aec:	f103 0508 	add.w	r5, r3, #8
34188af0:	b086      	sub	sp, #24
34188af2:	4616      	mov	r6, r2
34188af4:	4607      	mov	r7, r0
34188af6:	2298      	movs	r2, #152	@ 0x98
34188af8:	4628      	mov	r0, r5
34188afa:	461c      	mov	r4, r3
34188afc:	f88d 1003 	strb.w	r1, [sp, #3]
34188b00:	f000 f87f 	bl	34188c02 <memset>
34188b04:	2308      	movs	r3, #8
34188b06:	4639      	mov	r1, r7
34188b08:	f884 3059 	strb.w	r3, [r4, #89]	@ 0x59
34188b0c:	4628      	mov	r0, r5
34188b0e:	f884 805c 	strb.w	r8, [r4, #92]	@ 0x5c
34188b12:	66a6      	str	r6, [r4, #104]	@ 0x68
34188b14:	f7fe fd5a 	bl	341875cc <SAL_XSPI_Init>
34188b18:	4631      	mov	r1, r6
34188b1a:	4a2a      	ldr	r2, [pc, #168]	@ (34188bc4 <EXTMEM_DRIVER_NOR_SFDP_Init+0xe0>)
34188b1c:	ab01      	add	r3, sp, #4
34188b1e:	4628      	mov	r0, r5
34188b20:	f7fe fd3a 	bl	34187598 <SAL_XSPI_SetClock>
34188b24:	4628      	mov	r0, r5
34188b26:	f7fe fee6 	bl	341878f6 <SAL_XSPI_DisableMapMode>
34188b2a:	4620      	mov	r0, r4
34188b2c:	a904      	add	r1, sp, #16
34188b2e:	f7ff ff8b 	bl	34188a48 <SFDP_GetHeader>
34188b32:	b120      	cbz	r0, 34188b3e <EXTMEM_DRIVER_NOR_SFDP_Init+0x5a>
34188b34:	f04f 30ff 	mov.w	r0, #4294967295
34188b38:	b006      	add	sp, #24
34188b3a:	e8bd 81f0 	ldmia.w	sp!, {r4, r5, r6, r7, r8, pc}
34188b3e:	4620      	mov	r0, r4
34188b40:	f7ff f9e8 	bl	34187f14 <SFDP_MemoryReset>
34188b44:	200a      	movs	r0, #10
34188b46:	f7f9 fb33 	bl	341821b0 <HAL_Delay>
34188b4a:	4620      	mov	r0, r4
34188b4c:	a904      	add	r1, sp, #16
34188b4e:	f7ff ff7b 	bl	34188a48 <SFDP_GetHeader>
34188b52:	2800      	cmp	r0, #0
34188b54:	d1ee      	bne.n	34188b34 <EXTMEM_DRIVER_NOR_SFDP_Init+0x50>
34188b56:	f89d 3016 	ldrb.w	r3, [sp, #22]
34188b5a:	2204      	movs	r2, #4
34188b5c:	2b09      	cmp	r3, #9
34188b5e:	bf28      	it	cs
34188b60:	2309      	movcs	r3, #9
34188b62:	f884 309c 	strb.w	r3, [r4, #156]	@ 0x9c
34188b66:	f89d 3017 	ldrb.w	r3, [sp, #23]
34188b6a:	4628      	mov	r0, r5
34188b6c:	f884 309d 	strb.w	r3, [r4, #157]	@ 0x9d
34188b70:	a902      	add	r1, sp, #8
34188b72:	f7fe fe67 	bl	34187844 <SAL_XSPI_GetId>
34188b76:	f89d 3008 	ldrb.w	r3, [sp, #8]
34188b7a:	4620      	mov	r0, r4
34188b7c:	f884 305d 	strb.w	r3, [r4, #93]	@ 0x5d
34188b80:	f7ff f94c 	bl	34187e1c <SFDP_CollectData>
34188b84:	2800      	cmp	r0, #0
34188b86:	d1d5      	bne.n	34188b34 <EXTMEM_DRIVER_NOR_SFDP_Init+0x50>
34188b88:	4620      	mov	r0, r4
34188b8a:	f10d 0103 	add.w	r1, sp, #3
34188b8e:	f7ff fbc7 	bl	34188320 <SFDP_BuildGenericDriver>
34188b92:	b998      	cbnz	r0, 34188bbc <EXTMEM_DRIVER_NOR_SFDP_Init+0xd8>
34188b94:	f89d 3003 	ldrb.w	r3, [sp, #3]
34188b98:	b933      	cbnz	r3, 34188ba8 <EXTMEM_DRIVER_NOR_SFDP_Init+0xc4>
34188b9a:	6822      	ldr	r2, [r4, #0]
34188b9c:	b122      	cbz	r2, 34188ba8 <EXTMEM_DRIVER_NOR_SFDP_Init+0xc4>
34188b9e:	4631      	mov	r1, r6
34188ba0:	4628      	mov	r0, r5
34188ba2:	ab01      	add	r3, sp, #4
34188ba4:	f7fe fcf8 	bl	34187598 <SAL_XSPI_SetClock>
34188ba8:	4620      	mov	r0, r4
34188baa:	a904      	add	r1, sp, #16
34188bac:	f7ff ff2c 	bl	34188a08 <SFDP_ReadHeader>
34188bb0:	2800      	cmp	r0, #0
34188bb2:	bf14      	ite	ne
34188bb4:	f06f 000d 	mvnne.w	r0, #13
34188bb8:	2000      	moveq	r0, #0
34188bba:	e7bd      	b.n	34188b38 <EXTMEM_DRIVER_NOR_SFDP_Init+0x54>
34188bbc:	f06f 0002 	mvn.w	r0, #2
34188bc0:	e7ba      	b.n	34188b38 <EXTMEM_DRIVER_NOR_SFDP_Init+0x54>
34188bc2:	bf00      	nop
34188bc4:	02faf080 	.word	0x02faf080

34188bc8 <EXTMEM_DRIVER_NOR_SFDP_Enable_MemoryMappedMode>:
34188bc8:	2300      	movs	r3, #0
34188bca:	b507      	push	{r0, r1, r2, lr}
34188bcc:	9300      	str	r3, [sp, #0]
34188bce:	f890 3075 	ldrb.w	r3, [r0, #117]	@ 0x75
34188bd2:	f890 2050 	ldrb.w	r2, [r0, #80]	@ 0x50
34188bd6:	f890 1076 	ldrb.w	r1, [r0, #118]	@ 0x76
34188bda:	3008      	adds	r0, #8
34188bdc:	f7fe ffb4 	bl	34187b48 <SAL_XSPI_EnableMapMode>
34188be0:	2800      	cmp	r0, #0
34188be2:	bf14      	ite	ne
34188be4:	f06f 000c 	mvnne.w	r0, #12
34188be8:	2000      	moveq	r0, #0
34188bea:	b003      	add	sp, #12
34188bec:	bd00      	pop	{pc}

34188bee <EXTMEM_DRIVER_NOR_SFDP_Disable_MemoryMappedMode>:
34188bee:	b508      	push	{r3, lr}
34188bf0:	3008      	adds	r0, #8
34188bf2:	f7fe fe80 	bl	341878f6 <SAL_XSPI_DisableMapMode>
34188bf6:	2800      	cmp	r0, #0
34188bf8:	bf14      	ite	ne
34188bfa:	f06f 000c 	mvnne.w	r0, #12
34188bfe:	2000      	moveq	r0, #0
34188c00:	bd08      	pop	{r3, pc}

34188c02 <memset>:
34188c02:	4402      	add	r2, r0
34188c04:	4603      	mov	r3, r0
34188c06:	4293      	cmp	r3, r2
34188c08:	d100      	bne.n	34188c0c <memset+0xa>
34188c0a:	4770      	bx	lr
34188c0c:	f803 1b01 	strb.w	r1, [r3], #1
34188c10:	e7f9      	b.n	34188c06 <memset+0x4>
	...

34188c14 <__libc_init_array>:
34188c14:	b570      	push	{r4, r5, r6, lr}
34188c16:	4b0d      	ldr	r3, [pc, #52]	@ (34188c4c <__libc_init_array+0x38>)
34188c18:	2600      	movs	r6, #0
34188c1a:	4d0d      	ldr	r5, [pc, #52]	@ (34188c50 <__libc_init_array+0x3c>)
34188c1c:	1b5b      	subs	r3, r3, r5
34188c1e:	109c      	asrs	r4, r3, #2
34188c20:	42a6      	cmp	r6, r4
34188c22:	d109      	bne.n	34188c38 <__libc_init_array+0x24>
34188c24:	4d0b      	ldr	r5, [pc, #44]	@ (34188c54 <__libc_init_array+0x40>)
34188c26:	f000 f827 	bl	34188c78 <_init>
34188c2a:	4b0b      	ldr	r3, [pc, #44]	@ (34188c58 <__libc_init_array+0x44>)
34188c2c:	2600      	movs	r6, #0
34188c2e:	1b5b      	subs	r3, r3, r5
34188c30:	109c      	asrs	r4, r3, #2
34188c32:	42a6      	cmp	r6, r4
34188c34:	d105      	bne.n	34188c42 <__libc_init_array+0x2e>
34188c36:	bd70      	pop	{r4, r5, r6, pc}
34188c38:	f855 3b04 	ldr.w	r3, [r5], #4
34188c3c:	3601      	adds	r6, #1
34188c3e:	4798      	blx	r3
34188c40:	e7ee      	b.n	34188c20 <__libc_init_array+0xc>
34188c42:	f855 3b04 	ldr.w	r3, [r5], #4
34188c46:	3601      	adds	r6, #1
34188c48:	4798      	blx	r3
34188c4a:	e7f2      	b.n	34188c32 <__libc_init_array+0x1e>
34188c4c:	34188cd4 	.word	0x34188cd4
34188c50:	34188cd4 	.word	0x34188cd4
34188c54:	34188cd4 	.word	0x34188cd4
34188c58:	34188cd8 	.word	0x34188cd8

34188c5c <memcpy>:
34188c5c:	440a      	add	r2, r1
34188c5e:	1e43      	subs	r3, r0, #1
34188c60:	4291      	cmp	r1, r2
34188c62:	d100      	bne.n	34188c66 <memcpy+0xa>
34188c64:	4770      	bx	lr
34188c66:	b510      	push	{r4, lr}
34188c68:	f811 4b01 	ldrb.w	r4, [r1], #1
34188c6c:	4291      	cmp	r1, r2
34188c6e:	f803 4f01 	strb.w	r4, [r3, #1]!
34188c72:	d1f9      	bne.n	34188c68 <memcpy+0xc>
34188c74:	bd10      	pop	{r4, pc}
	...

34188c78 <_init>:
34188c78:	b5f8      	push	{r3, r4, r5, r6, r7, lr}
34188c7a:	bf00      	nop
34188c7c:	bcf8      	pop	{r3, r4, r5, r6, r7}
34188c7e:	bc08      	pop	{r3}
34188c80:	469e      	mov	lr, r3
34188c82:	4770      	bx	lr

34188c84 <_fini>:
34188c84:	b5f8      	push	{r3, r4, r5, r6, r7, lr}
34188c86:	bf00      	nop
34188c88:	bcf8      	pop	{r3, r4, r5, r6, r7}
34188c8a:	bc08      	pop	{r3}
34188c8c:	469e      	mov	lr, r3
34188c8e:	4770      	bx	lr

Disassembly of section .gnu.sgstubs:

34188d00 <SECURE_SystemCoreClockUpdate>:
34188d00:	e97f e97f 	sg
34188d04:	f7f9 b9f8 	b.w	341820f8 <__acle_se_SECURE_SystemCoreClockUpdate>
	...
